
enclave.so:     file format elf64-x86-64


Disassembly of section .plt:

0000000000000810 <.plt>:
 810:	ff 35 f2 47 22 00    	push   QWORD PTR [rip+0x2247f2]        # 225008 <_GLOBAL_OFFSET_TABLE_+0x8>
 816:	ff 25 f4 47 22 00    	jmp    QWORD PTR [rip+0x2247f4]        # 225010 <_GLOBAL_OFFSET_TABLE_+0x10>
 81c:	0f 1f 40 00          	nop    DWORD PTR [rax+0x0]

Disassembly of section .plt.got:

0000000000000820 <_Z9pcl_entryPvS_@plt>:
 820:	ff 25 d2 47 22 00    	jmp    QWORD PTR [rip+0x2247d2]        # 224ff8 <_Z9pcl_entryPvS_>
 826:	66 90                	xchg   ax,ax

Disassembly of section .text:

0000000000000840 <ocall_readInt>:
     840:	55                   	push   rbp
     841:	48 89 e5             	mov    rbp,rsp
     844:	48 81 ec 80 00 00 00 	sub    rsp,0x80
     84b:	48 89 7d f0          	mov    QWORD PTR [rbp-0x10],rdi
     84f:	48 89 75 e8          	mov    QWORD PTR [rbp-0x18],rsi
     853:	48 89 55 e0          	mov    QWORD PTR [rbp-0x20],rdx
     857:	48 89 4d d8          	mov    QWORD PTR [rbp-0x28],rcx
     85b:	c7 45 d4 00 00 00 00 	mov    DWORD PTR [rbp-0x2c],0x0
     862:	48 83 7d e8 00       	cmp    QWORD PTR [rbp-0x18],0x0
     867:	74 15                	je     87e <ocall_readInt+0x3e>
     869:	48 8b 7d e8          	mov    rdi,QWORD PTR [rbp-0x18]
     86d:	e8 b5 a1 00 00       	call   aa27 <strlen>
     872:	48 05 01 00 00 00    	add    rax,0x1
     878:	48 89 45 98          	mov    QWORD PTR [rbp-0x68],rax
     87c:	eb 0a                	jmp    888 <ocall_readInt+0x48>
     87e:	31 c0                	xor    eax,eax
     880:	89 c1                	mov    ecx,eax
     882:	48 89 4d 98          	mov    QWORD PTR [rbp-0x68],rcx
     886:	eb 00                	jmp    888 <ocall_readInt+0x48>
     888:	48 8b 45 98          	mov    rax,QWORD PTR [rbp-0x68]
     88c:	48 89 45 c8          	mov    QWORD PTR [rbp-0x38],rax
     890:	48 8b 45 d8          	mov    rax,QWORD PTR [rbp-0x28]
     894:	48 89 45 c0          	mov    QWORD PTR [rbp-0x40],rax
     898:	48 c7 45 b8 00 00 00 	mov    QWORD PTR [rbp-0x48],0x0
     89f:	00 
     8a0:	48 c7 45 b0 20 00 00 	mov    QWORD PTR [rbp-0x50],0x20
     8a7:	00 
     8a8:	48 c7 45 a8 00 00 00 	mov    QWORD PTR [rbp-0x58],0x0
     8af:	00 
     8b0:	48 c7 45 a0 00 00 00 	mov    QWORD PTR [rbp-0x60],0x0
     8b7:	00 
     8b8:	48 83 7d e8 00       	cmp    QWORD PTR [rbp-0x18],0x0
     8bd:	74 1e                	je     8dd <ocall_readInt+0x9d>
     8bf:	48 8b 7d e8          	mov    rdi,QWORD PTR [rbp-0x18]
     8c3:	48 8b 75 c8          	mov    rsi,QWORD PTR [rbp-0x38]
     8c7:	e8 0f 04 00 00       	call   cdb <sgx_is_within_enclave>
     8cc:	83 f8 00             	cmp    eax,0x0
     8cf:	75 0c                	jne    8dd <ocall_readInt+0x9d>
     8d1:	c7 45 fc 02 00 00 00 	mov    DWORD PTR [rbp-0x4],0x2
     8d8:	e9 2a 02 00 00       	jmp    b07 <ocall_readInt+0x2c7>
     8dd:	eb 00                	jmp    8df <ocall_readInt+0x9f>
     8df:	eb 00                	jmp    8e1 <ocall_readInt+0xa1>
     8e1:	48 83 7d e0 00       	cmp    QWORD PTR [rbp-0x20],0x0
     8e6:	74 21                	je     909 <ocall_readInt+0xc9>
     8e8:	48 8b 45 e0          	mov    rax,QWORD PTR [rbp-0x20]
     8ec:	48 8b 75 c0          	mov    rsi,QWORD PTR [rbp-0x40]
     8f0:	48 89 c7             	mov    rdi,rax
     8f3:	e8 e3 03 00 00       	call   cdb <sgx_is_within_enclave>
     8f8:	83 f8 00             	cmp    eax,0x0
     8fb:	75 0c                	jne    909 <ocall_readInt+0xc9>
     8fd:	c7 45 fc 02 00 00 00 	mov    DWORD PTR [rbp-0x4],0x2
     904:	e9 fe 01 00 00       	jmp    b07 <ocall_readInt+0x2c7>
     909:	eb 00                	jmp    90b <ocall_readInt+0xcb>
     90b:	48 83 7d e8 00       	cmp    QWORD PTR [rbp-0x18],0x0
     910:	74 0a                	je     91c <ocall_readInt+0xdc>
     912:	48 8b 45 c8          	mov    rax,QWORD PTR [rbp-0x38]
     916:	48 89 45 90          	mov    QWORD PTR [rbp-0x70],rax
     91a:	eb 0a                	jmp    926 <ocall_readInt+0xe6>
     91c:	31 c0                	xor    eax,eax
     91e:	89 c1                	mov    ecx,eax
     920:	48 89 4d 90          	mov    QWORD PTR [rbp-0x70],rcx
     924:	eb 00                	jmp    926 <ocall_readInt+0xe6>
     926:	48 8b 45 90          	mov    rax,QWORD PTR [rbp-0x70]
     92a:	48 03 45 b0          	add    rax,QWORD PTR [rbp-0x50]
     92e:	48 89 45 b0          	mov    QWORD PTR [rbp-0x50],rax
     932:	48 83 7d e0 00       	cmp    QWORD PTR [rbp-0x20],0x0
     937:	74 0a                	je     943 <ocall_readInt+0x103>
     939:	48 8b 45 c0          	mov    rax,QWORD PTR [rbp-0x40]
     93d:	48 89 45 88          	mov    QWORD PTR [rbp-0x78],rax
     941:	eb 0a                	jmp    94d <ocall_readInt+0x10d>
     943:	31 c0                	xor    eax,eax
     945:	89 c1                	mov    ecx,eax
     947:	48 89 4d 88          	mov    QWORD PTR [rbp-0x78],rcx
     94b:	eb 00                	jmp    94d <ocall_readInt+0x10d>
     94d:	48 8b 45 88          	mov    rax,QWORD PTR [rbp-0x78]
     951:	48 03 45 b0          	add    rax,QWORD PTR [rbp-0x50]
     955:	48 89 45 b0          	mov    QWORD PTR [rbp-0x50],rax
     959:	48 8b 7d b0          	mov    rdi,QWORD PTR [rbp-0x50]
     95d:	e8 93 04 00 00       	call   df5 <sgx_ocalloc>
     962:	48 89 45 a8          	mov    QWORD PTR [rbp-0x58],rax
     966:	48 83 7d a8 00       	cmp    QWORD PTR [rbp-0x58],0x0
     96b:	75 11                	jne    97e <ocall_readInt+0x13e>
     96d:	e8 94 05 00 00       	call   f06 <sgx_ocfree>
     972:	c7 45 fc 01 00 00 00 	mov    DWORD PTR [rbp-0x4],0x1
     979:	e9 89 01 00 00       	jmp    b07 <ocall_readInt+0x2c7>
     97e:	48 8b 45 a8          	mov    rax,QWORD PTR [rbp-0x58]
     982:	48 89 45 b8          	mov    QWORD PTR [rbp-0x48],rax
     986:	48 8b 45 a8          	mov    rax,QWORD PTR [rbp-0x58]
     98a:	48 05 20 00 00 00    	add    rax,0x20
     990:	48 89 45 a8          	mov    QWORD PTR [rbp-0x58],rax
     994:	48 8b 45 b0          	mov    rax,QWORD PTR [rbp-0x50]
     998:	48 2d 20 00 00 00    	sub    rax,0x20
     99e:	48 89 45 b0          	mov    QWORD PTR [rbp-0x50],rax
     9a2:	48 83 7d e8 00       	cmp    QWORD PTR [rbp-0x18],0x0
     9a7:	74 54                	je     9fd <ocall_readInt+0x1bd>
     9a9:	48 8b 45 a8          	mov    rax,QWORD PTR [rbp-0x58]
     9ad:	48 8b 4d b8          	mov    rcx,QWORD PTR [rbp-0x48]
     9b1:	48 89 41 08          	mov    QWORD PTR [rcx+0x8],rax
     9b5:	48 8b 7d a8          	mov    rdi,QWORD PTR [rbp-0x58]
     9b9:	48 8b 75 b0          	mov    rsi,QWORD PTR [rbp-0x50]
     9bd:	48 8b 55 e8          	mov    rdx,QWORD PTR [rbp-0x18]
     9c1:	48 8b 4d c8          	mov    rcx,QWORD PTR [rbp-0x38]
     9c5:	e8 77 a0 00 00       	call   aa41 <memcpy_s>
     9ca:	83 f8 00             	cmp    eax,0x0
     9cd:	74 11                	je     9e0 <ocall_readInt+0x1a0>
     9cf:	e8 32 05 00 00       	call   f06 <sgx_ocfree>
     9d4:	c7 45 fc 01 00 00 00 	mov    DWORD PTR [rbp-0x4],0x1
     9db:	e9 27 01 00 00       	jmp    b07 <ocall_readInt+0x2c7>
     9e0:	48 8b 45 a8          	mov    rax,QWORD PTR [rbp-0x58]
     9e4:	48 03 45 c8          	add    rax,QWORD PTR [rbp-0x38]
     9e8:	48 89 45 a8          	mov    QWORD PTR [rbp-0x58],rax
     9ec:	48 8b 45 c8          	mov    rax,QWORD PTR [rbp-0x38]
     9f0:	48 8b 4d b0          	mov    rcx,QWORD PTR [rbp-0x50]
     9f4:	48 29 c1             	sub    rcx,rax
     9f7:	48 89 4d b0          	mov    QWORD PTR [rbp-0x50],rcx
     9fb:	eb 0c                	jmp    a09 <ocall_readInt+0x1c9>
     9fd:	48 8b 45 b8          	mov    rax,QWORD PTR [rbp-0x48]
     a01:	48 c7 40 08 00 00 00 	mov    QWORD PTR [rax+0x8],0x0
     a08:	00 
     a09:	48 83 7d e0 00       	cmp    QWORD PTR [rbp-0x20],0x0
     a0e:	74 5f                	je     a6f <ocall_readInt+0x22f>
     a10:	48 8b 45 a8          	mov    rax,QWORD PTR [rbp-0x58]
     a14:	48 8b 4d b8          	mov    rcx,QWORD PTR [rbp-0x48]
     a18:	48 89 41 10          	mov    QWORD PTR [rcx+0x10],rax
     a1c:	48 8b 45 a8          	mov    rax,QWORD PTR [rbp-0x58]
     a20:	48 89 45 a0          	mov    QWORD PTR [rbp-0x60],rax
     a24:	48 8b 7d a0          	mov    rdi,QWORD PTR [rbp-0x60]
     a28:	48 8b 75 b0          	mov    rsi,QWORD PTR [rbp-0x50]
     a2c:	48 8b 45 e0          	mov    rax,QWORD PTR [rbp-0x20]
     a30:	48 8b 4d c0          	mov    rcx,QWORD PTR [rbp-0x40]
     a34:	48 89 c2             	mov    rdx,rax
     a37:	e8 05 a0 00 00       	call   aa41 <memcpy_s>
     a3c:	83 f8 00             	cmp    eax,0x0
     a3f:	74 11                	je     a52 <ocall_readInt+0x212>
     a41:	e8 c0 04 00 00       	call   f06 <sgx_ocfree>
     a46:	c7 45 fc 01 00 00 00 	mov    DWORD PTR [rbp-0x4],0x1
     a4d:	e9 b5 00 00 00       	jmp    b07 <ocall_readInt+0x2c7>
     a52:	48 8b 45 a8          	mov    rax,QWORD PTR [rbp-0x58]
     a56:	48 03 45 c0          	add    rax,QWORD PTR [rbp-0x40]
     a5a:	48 89 45 a8          	mov    QWORD PTR [rbp-0x58],rax
     a5e:	48 8b 45 c0          	mov    rax,QWORD PTR [rbp-0x40]
     a62:	48 8b 4d b0          	mov    rcx,QWORD PTR [rbp-0x50]
     a66:	48 29 c1             	sub    rcx,rax
     a69:	48 89 4d b0          	mov    QWORD PTR [rbp-0x50],rcx
     a6d:	eb 0c                	jmp    a7b <ocall_readInt+0x23b>
     a6f:	48 8b 45 b8          	mov    rax,QWORD PTR [rbp-0x48]
     a73:	48 c7 40 10 00 00 00 	mov    QWORD PTR [rax+0x10],0x0
     a7a:	00 
     a7b:	48 8b 45 d8          	mov    rax,QWORD PTR [rbp-0x28]
     a7f:	48 8b 4d b8          	mov    rcx,QWORD PTR [rbp-0x48]
     a83:	48 89 41 18          	mov    QWORD PTR [rcx+0x18],rax
     a87:	48 8b 45 b8          	mov    rax,QWORD PTR [rbp-0x48]
     a8b:	bf 03 00 00 00       	mov    edi,0x3
     a90:	48 89 c6             	mov    rsi,rax
     a93:	e8 5e 12 00 00       	call   1cf6 <sgx_ocall>
     a98:	89 45 d4             	mov    DWORD PTR [rbp-0x2c],eax
     a9b:	83 7d d4 00          	cmp    DWORD PTR [rbp-0x2c],0x0
     a9f:	75 5b                	jne    afc <ocall_readInt+0x2bc>
     aa1:	48 83 7d f0 00       	cmp    QWORD PTR [rbp-0x10],0x0
     aa6:	74 0c                	je     ab4 <ocall_readInt+0x274>
     aa8:	48 8b 45 b8          	mov    rax,QWORD PTR [rbp-0x48]
     aac:	8b 08                	mov    ecx,DWORD PTR [rax]
     aae:	48 8b 45 f0          	mov    rax,QWORD PTR [rbp-0x10]
     ab2:	89 08                	mov    DWORD PTR [rax],ecx
     ab4:	48 83 7d e0 00       	cmp    QWORD PTR [rbp-0x20],0x0
     ab9:	74 2d                	je     ae8 <ocall_readInt+0x2a8>
     abb:	48 8b 45 e0          	mov    rax,QWORD PTR [rbp-0x20]
     abf:	48 8b 75 c0          	mov    rsi,QWORD PTR [rbp-0x40]
     ac3:	48 8b 55 a0          	mov    rdx,QWORD PTR [rbp-0x60]
     ac7:	48 8b 4d c0          	mov    rcx,QWORD PTR [rbp-0x40]
     acb:	48 89 c7             	mov    rdi,rax
     ace:	e8 6e 9f 00 00       	call   aa41 <memcpy_s>
     ad3:	83 f8 00             	cmp    eax,0x0
     ad6:	74 0e                	je     ae6 <ocall_readInt+0x2a6>
     ad8:	e8 29 04 00 00       	call   f06 <sgx_ocfree>
     add:	c7 45 fc 01 00 00 00 	mov    DWORD PTR [rbp-0x4],0x1
     ae4:	eb 21                	jmp    b07 <ocall_readInt+0x2c7>
     ae6:	eb 00                	jmp    ae8 <ocall_readInt+0x2a8>
     ae8:	48 8b 45 b8          	mov    rax,QWORD PTR [rbp-0x48]
     aec:	8b 48 04             	mov    ecx,DWORD PTR [rax+0x4]
     aef:	89 4d 84             	mov    DWORD PTR [rbp-0x7c],ecx
     af2:	e8 75 3b 00 00       	call   466c <__errno>
     af7:	8b 4d 84             	mov    ecx,DWORD PTR [rbp-0x7c]
     afa:	89 08                	mov    DWORD PTR [rax],ecx
     afc:	e8 05 04 00 00       	call   f06 <sgx_ocfree>
     b01:	8b 45 d4             	mov    eax,DWORD PTR [rbp-0x2c]
     b04:	89 45 fc             	mov    DWORD PTR [rbp-0x4],eax
     b07:	8b 45 fc             	mov    eax,DWORD PTR [rbp-0x4]
     b0a:	48 81 c4 80 00 00 00 	add    rsp,0x80
     b11:	5d                   	pop    rbp
     b12:	c3                   	ret    
     b13:	66 2e 0f 1f 84 00 00 	nop    WORD PTR cs:[rax+rax*1+0x0]
     b1a:	00 00 00 
     b1d:	0f 1f 00             	nop    DWORD PTR [rax]

0000000000000b20 <sgx_ecall_hob>:
     b20:	55                   	push   rbp
     b21:	48 89 e5             	mov    rbp,rsp
     b24:	48 83 ec 40          	sub    rsp,0x40
     b28:	48 89 7d f0          	mov    QWORD PTR [rbp-0x10],rdi
     b2c:	48 83 7d f0 00       	cmp    QWORD PTR [rbp-0x10],0x0
     b31:	74 13                	je     b46 <sgx_ecall_hob+0x26>
     b33:	48 8b 7d f0          	mov    rdi,QWORD PTR [rbp-0x10]
     b37:	be 10 00 00 00       	mov    esi,0x10
     b3c:	e8 27 02 00 00       	call   d68 <sgx_is_outside_enclave>
     b41:	83 f8 00             	cmp    eax,0x0
     b44:	75 0c                	jne    b52 <sgx_ecall_hob+0x32>
     b46:	c7 45 fc 02 00 00 00 	mov    DWORD PTR [rbp-0x4],0x2
     b4d:	e9 0c 01 00 00       	jmp    c5e <sgx_ecall_hob+0x13e>
     b52:	eb 00                	jmp    b54 <sgx_ecall_hob+0x34>
     b54:	0f ae e8             	lfence 
     b57:	48 8b 45 f0          	mov    rax,QWORD PTR [rbp-0x10]
     b5b:	48 89 45 e8          	mov    QWORD PTR [rbp-0x18],rax
     b5f:	c7 45 e4 00 00 00 00 	mov    DWORD PTR [rbp-0x1c],0x0
     b66:	48 8b 45 e8          	mov    rax,QWORD PTR [rbp-0x18]
     b6a:	48 8b 00             	mov    rax,QWORD PTR [rax]
     b6d:	48 89 45 d8          	mov    QWORD PTR [rbp-0x28],rax
     b71:	48 8b 45 e8          	mov    rax,QWORD PTR [rbp-0x18]
     b75:	48 8b 40 08          	mov    rax,QWORD PTR [rax+0x8]
     b79:	48 89 45 d0          	mov    QWORD PTR [rbp-0x30],rax
     b7d:	48 c7 45 c8 00 00 00 	mov    QWORD PTR [rbp-0x38],0x0
     b84:	00 
     b85:	48 83 7d d8 00       	cmp    QWORD PTR [rbp-0x28],0x0
     b8a:	74 1e                	je     baa <sgx_ecall_hob+0x8a>
     b8c:	48 8b 7d d8          	mov    rdi,QWORD PTR [rbp-0x28]
     b90:	48 8b 75 d0          	mov    rsi,QWORD PTR [rbp-0x30]
     b94:	e8 cf 01 00 00       	call   d68 <sgx_is_outside_enclave>
     b99:	83 f8 00             	cmp    eax,0x0
     b9c:	75 0c                	jne    baa <sgx_ecall_hob+0x8a>
     b9e:	c7 45 fc 02 00 00 00 	mov    DWORD PTR [rbp-0x4],0x2
     ba5:	e9 b4 00 00 00       	jmp    c5e <sgx_ecall_hob+0x13e>
     baa:	eb 00                	jmp    bac <sgx_ecall_hob+0x8c>
     bac:	0f ae e8             	lfence 
     baf:	48 83 7d d8 00       	cmp    QWORD PTR [rbp-0x28],0x0
     bb4:	0f 84 85 00 00 00    	je     c3f <sgx_ecall_hob+0x11f>
     bba:	48 83 7d d0 00       	cmp    QWORD PTR [rbp-0x30],0x0
     bbf:	74 7e                	je     c3f <sgx_ecall_hob+0x11f>
     bc1:	48 8b 7d d0          	mov    rdi,QWORD PTR [rbp-0x30]
     bc5:	e8 56 75 00 00       	call   8120 <dlmalloc>
     bca:	48 89 45 c8          	mov    QWORD PTR [rbp-0x38],rax
     bce:	48 83 7d c8 00       	cmp    QWORD PTR [rbp-0x38],0x0
     bd3:	75 09                	jne    bde <sgx_ecall_hob+0xbe>
     bd5:	c7 45 e4 03 00 00 00 	mov    DWORD PTR [rbp-0x1c],0x3
     bdc:	eb 6a                	jmp    c48 <sgx_ecall_hob+0x128>
     bde:	48 8b 7d c8          	mov    rdi,QWORD PTR [rbp-0x38]
     be2:	48 8b 75 d0          	mov    rsi,QWORD PTR [rbp-0x30]
     be6:	48 8b 55 d8          	mov    rdx,QWORD PTR [rbp-0x28]
     bea:	48 8b 4d d0          	mov    rcx,QWORD PTR [rbp-0x30]
     bee:	e8 4e 9e 00 00       	call   aa41 <memcpy_s>
     bf3:	83 f8 00             	cmp    eax,0x0
     bf6:	74 09                	je     c01 <sgx_ecall_hob+0xe1>
     bf8:	c7 45 e4 01 00 00 00 	mov    DWORD PTR [rbp-0x1c],0x1
     bff:	eb 47                	jmp    c48 <sgx_ecall_hob+0x128>
     c01:	48 8b 45 c8          	mov    rax,QWORD PTR [rbp-0x38]
     c05:	48 8b 4d d0          	mov    rcx,QWORD PTR [rbp-0x30]
     c09:	48 81 e9 01 00 00 00 	sub    rcx,0x1
     c10:	c6 04 08 00          	mov    BYTE PTR [rax+rcx*1],0x0
     c14:	48 8b 45 d0          	mov    rax,QWORD PTR [rbp-0x30]
     c18:	48 8b 7d c8          	mov    rdi,QWORD PTR [rbp-0x38]
     c1c:	48 89 45 c0          	mov    QWORD PTR [rbp-0x40],rax
     c20:	e8 02 9e 00 00       	call   aa27 <strlen>
     c25:	48 05 01 00 00 00    	add    rax,0x1
     c2b:	48 8b 4d c0          	mov    rcx,QWORD PTR [rbp-0x40]
     c2f:	48 39 c1             	cmp    rcx,rax
     c32:	74 09                	je     c3d <sgx_ecall_hob+0x11d>
     c34:	c7 45 e4 01 00 00 00 	mov    DWORD PTR [rbp-0x1c],0x1
     c3b:	eb 0b                	jmp    c48 <sgx_ecall_hob+0x128>
     c3d:	eb 00                	jmp    c3f <sgx_ecall_hob+0x11f>
     c3f:	48 8b 7d c8          	mov    rdi,QWORD PTR [rbp-0x38]
     c43:	e8 28 00 00 00       	call   c70 <ecall_hob>
     c48:	48 83 7d c8 00       	cmp    QWORD PTR [rbp-0x38],0x0
     c4d:	74 09                	je     c58 <sgx_ecall_hob+0x138>
     c4f:	48 8b 7d c8          	mov    rdi,QWORD PTR [rbp-0x38]
     c53:	e8 bf 7f 00 00       	call   8c17 <dlfree>
     c58:	8b 45 e4             	mov    eax,DWORD PTR [rbp-0x1c]
     c5b:	89 45 fc             	mov    DWORD PTR [rbp-0x4],eax
     c5e:	8b 45 fc             	mov    eax,DWORD PTR [rbp-0x4]
     c61:	48 83 c4 40          	add    rsp,0x40
     c65:	5d                   	pop    rbp
     c66:	c3                   	ret    
     c67:	66 0f 1f 84 00 00 00 	nop    WORD PTR [rax+rax*1+0x0]
     c6e:	00 00 

0000000000000c70 <ecall_hob>:
     c70:	55                   	push   rbp
     c71:	48 89 e5             	mov    rbp,rsp
     c74:	48 83 ec 50          	sub    rsp,0x50
     c78:	48 89 7d f8          	mov    QWORD PTR [rbp-0x8],rdi
     c7c:	48 83 7d f8 00       	cmp    QWORD PTR [rbp-0x8],0x0
     c81:	74 52                	je     cd5 <ecall_hob+0x65>
     c83:	48 8b 75 f8          	mov    rsi,QWORD PTR [rbp-0x8]
     c87:	48 8d 7d ec          	lea    rdi,[rbp-0x14]
     c8b:	48 8d 55 d0          	lea    rdx,[rbp-0x30]
     c8f:	b9 18 00 00 00       	mov    ecx,0x18
     c94:	e8 a7 fb ff ff       	call   840 <ocall_readInt>
     c99:	48 8b 7d d0          	mov    rdi,QWORD PTR [rbp-0x30]
     c9d:	89 45 cc             	mov    DWORD PTR [rbp-0x34],eax
     ca0:	e8 7b 74 00 00       	call   8120 <dlmalloc>
     ca5:	48 89 45 f0          	mov    QWORD PTR [rbp-0x10],rax
     ca9:	48 8b 7d f0          	mov    rdi,QWORD PTR [rbp-0x10]
     cad:	48 8b 75 f8          	mov    rsi,QWORD PTR [rbp-0x8]
     cb1:	48 8b 45 f8          	mov    rax,QWORD PTR [rbp-0x8]
     cb5:	48 89 7d c0          	mov    QWORD PTR [rbp-0x40],rdi
     cb9:	48 89 c7             	mov    rdi,rax
     cbc:	48 89 75 b8          	mov    QWORD PTR [rbp-0x48],rsi
     cc0:	e8 62 9d 00 00       	call   aa27 <strlen>
     cc5:	48 8b 7d c0          	mov    rdi,QWORD PTR [rbp-0x40]
     cc9:	48 8b 75 b8          	mov    rsi,QWORD PTR [rbp-0x48]
     ccd:	48 89 c2             	mov    rdx,rax
     cd0:	e8 02 96 00 00       	call   a2d7 <memcpy>
     cd5:	48 83 c4 50          	add    rsp,0x50
     cd9:	5d                   	pop    rbp
     cda:	c3                   	ret    

0000000000000cdb <sgx_is_within_enclave>:
     cdb:	55                   	push   rbp
     cdc:	48 89 e5             	mov    rbp,rsp
     cdf:	48 89 7d d8          	mov    QWORD PTR [rbp-0x28],rdi
     ce3:	48 89 75 d0          	mov    QWORD PTR [rbp-0x30],rsi
     ce7:	48 8b 45 d8          	mov    rax,QWORD PTR [rbp-0x28]
     ceb:	48 89 45 e8          	mov    QWORD PTR [rbp-0x18],rax
     cef:	48 c7 45 e0 00 00 00 	mov    QWORD PTR [rbp-0x20],0x0
     cf6:	00 
     cf7:	48 8d 05 02 f3 ff ff 	lea    rax,[rip+0xfffffffffffff302]        # 0 <enclave.so>
     cfe:	48 89 45 f0          	mov    QWORD PTR [rbp-0x10],rax
     d02:	48 8b 15 b7 4e 22 00 	mov    rdx,QWORD PTR [rip+0x224eb7]        # 225bc0 <g_global_data>
     d09:	48 8b 45 f0          	mov    rax,QWORD PTR [rbp-0x10]
     d0d:	48 01 d0             	add    rax,rdx
     d10:	48 83 e8 01          	sub    rax,0x1
     d14:	48 89 45 f8          	mov    QWORD PTR [rbp-0x8],rax
     d18:	48 83 7d d0 00       	cmp    QWORD PTR [rbp-0x30],0x0
     d1d:	74 15                	je     d34 <sgx_is_within_enclave+0x59>
     d1f:	48 8b 55 e8          	mov    rdx,QWORD PTR [rbp-0x18]
     d23:	48 8b 45 d0          	mov    rax,QWORD PTR [rbp-0x30]
     d27:	48 01 d0             	add    rax,rdx
     d2a:	48 83 e8 01          	sub    rax,0x1
     d2e:	48 89 45 e0          	mov    QWORD PTR [rbp-0x20],rax
     d32:	eb 08                	jmp    d3c <sgx_is_within_enclave+0x61>
     d34:	48 8b 45 e8          	mov    rax,QWORD PTR [rbp-0x18]
     d38:	48 89 45 e0          	mov    QWORD PTR [rbp-0x20],rax
     d3c:	48 8b 45 e8          	mov    rax,QWORD PTR [rbp-0x18]
     d40:	48 3b 45 e0          	cmp    rax,QWORD PTR [rbp-0x20]
     d44:	77 1b                	ja     d61 <sgx_is_within_enclave+0x86>
     d46:	48 8b 45 e8          	mov    rax,QWORD PTR [rbp-0x18]
     d4a:	48 3b 45 f0          	cmp    rax,QWORD PTR [rbp-0x10]
     d4e:	72 11                	jb     d61 <sgx_is_within_enclave+0x86>
     d50:	48 8b 45 e0          	mov    rax,QWORD PTR [rbp-0x20]
     d54:	48 3b 45 f8          	cmp    rax,QWORD PTR [rbp-0x8]
     d58:	77 07                	ja     d61 <sgx_is_within_enclave+0x86>
     d5a:	b8 01 00 00 00       	mov    eax,0x1
     d5f:	eb 05                	jmp    d66 <sgx_is_within_enclave+0x8b>
     d61:	b8 00 00 00 00       	mov    eax,0x0
     d66:	5d                   	pop    rbp
     d67:	c3                   	ret    

0000000000000d68 <sgx_is_outside_enclave>:
     d68:	55                   	push   rbp
     d69:	48 89 e5             	mov    rbp,rsp
     d6c:	48 89 7d d8          	mov    QWORD PTR [rbp-0x28],rdi
     d70:	48 89 75 d0          	mov    QWORD PTR [rbp-0x30],rsi
     d74:	48 8b 45 d8          	mov    rax,QWORD PTR [rbp-0x28]
     d78:	48 89 45 e8          	mov    QWORD PTR [rbp-0x18],rax
     d7c:	48 c7 45 e0 00 00 00 	mov    QWORD PTR [rbp-0x20],0x0
     d83:	00 
     d84:	48 8d 05 75 f2 ff ff 	lea    rax,[rip+0xfffffffffffff275]        # 0 <enclave.so>
     d8b:	48 89 45 f0          	mov    QWORD PTR [rbp-0x10],rax
     d8f:	48 8b 15 2a 4e 22 00 	mov    rdx,QWORD PTR [rip+0x224e2a]        # 225bc0 <g_global_data>
     d96:	48 8b 45 f0          	mov    rax,QWORD PTR [rbp-0x10]
     d9a:	48 01 d0             	add    rax,rdx
     d9d:	48 83 e8 01          	sub    rax,0x1
     da1:	48 89 45 f8          	mov    QWORD PTR [rbp-0x8],rax
     da5:	48 83 7d d0 00       	cmp    QWORD PTR [rbp-0x30],0x0
     daa:	74 15                	je     dc1 <sgx_is_outside_enclave+0x59>
     dac:	48 8b 55 e8          	mov    rdx,QWORD PTR [rbp-0x18]
     db0:	48 8b 45 d0          	mov    rax,QWORD PTR [rbp-0x30]
     db4:	48 01 d0             	add    rax,rdx
     db7:	48 83 e8 01          	sub    rax,0x1
     dbb:	48 89 45 e0          	mov    QWORD PTR [rbp-0x20],rax
     dbf:	eb 08                	jmp    dc9 <sgx_is_outside_enclave+0x61>
     dc1:	48 8b 45 e8          	mov    rax,QWORD PTR [rbp-0x18]
     dc5:	48 89 45 e0          	mov    QWORD PTR [rbp-0x20],rax
     dc9:	48 8b 45 e8          	mov    rax,QWORD PTR [rbp-0x18]
     dcd:	48 3b 45 e0          	cmp    rax,QWORD PTR [rbp-0x20]
     dd1:	77 1b                	ja     dee <sgx_is_outside_enclave+0x86>
     dd3:	48 8b 45 e0          	mov    rax,QWORD PTR [rbp-0x20]
     dd7:	48 3b 45 f0          	cmp    rax,QWORD PTR [rbp-0x10]
     ddb:	72 0a                	jb     de7 <sgx_is_outside_enclave+0x7f>
     ddd:	48 8b 45 e8          	mov    rax,QWORD PTR [rbp-0x18]
     de1:	48 3b 45 f8          	cmp    rax,QWORD PTR [rbp-0x8]
     de5:	76 07                	jbe    dee <sgx_is_outside_enclave+0x86>
     de7:	b8 01 00 00 00       	mov    eax,0x1
     dec:	eb 05                	jmp    df3 <sgx_is_outside_enclave+0x8b>
     dee:	b8 00 00 00 00       	mov    eax,0x0
     df3:	5d                   	pop    rbp
     df4:	c3                   	ret    

0000000000000df5 <sgx_ocalloc>:
     df5:	55                   	push   rbp
     df6:	48 89 e5             	mov    rbp,rsp
     df9:	48 83 ec 40          	sub    rsp,0x40
     dfd:	48 89 7d c8          	mov    QWORD PTR [rbp-0x38],rdi
     e01:	e8 1d f0 01 00       	call   1fe23 <get_thread_data>
     e06:	48 89 45 d8          	mov    QWORD PTR [rbp-0x28],rax
     e0a:	48 8b 45 d8          	mov    rax,QWORD PTR [rbp-0x28]
     e0e:	48 8b 40 20          	mov    rax,QWORD PTR [rax+0x20]
     e12:	48 89 45 e0          	mov    QWORD PTR [rbp-0x20],rax
     e16:	48 8b 45 e0          	mov    rax,QWORD PTR [rbp-0x20]
     e1a:	48 8b 80 90 00 00 00 	mov    rax,QWORD PTR [rax+0x90]
     e21:	48 89 45 e8          	mov    QWORD PTR [rbp-0x18],rax
     e25:	48 8b 45 e8          	mov    rax,QWORD PTR [rbp-0x18]
     e29:	be 08 00 00 00       	mov    esi,0x8
     e2e:	48 89 c7             	mov    rdi,rax
     e31:	e8 32 ff ff ff       	call   d68 <sgx_is_outside_enclave>
     e36:	85 c0                	test   eax,eax
     e38:	0f 94 c0             	sete   al
     e3b:	84 c0                	test   al,al
     e3d:	74 05                	je     e44 <sgx_ocalloc+0x4f>
     e3f:	e8 af f3 01 00       	call   201f3 <abort>
     e44:	48 8b 45 e8          	mov    rax,QWORD PTR [rbp-0x18]
     e48:	48 3b 45 c8          	cmp    rax,QWORD PTR [rbp-0x38]
     e4c:	73 05                	jae    e53 <sgx_ocalloc+0x5e>
     e4e:	e8 a0 f3 01 00       	call   201f3 <abort>
     e53:	48 8b 45 c8          	mov    rax,QWORD PTR [rbp-0x38]
     e57:	48 29 45 e8          	sub    QWORD PTR [rbp-0x18],rax
     e5b:	48 83 65 e8 f0       	and    QWORD PTR [rbp-0x18],0xfffffffffffffff0
     e60:	48 8b 45 e8          	mov    rax,QWORD PTR [rbp-0x18]
     e64:	48 8b 55 c8          	mov    rdx,QWORD PTR [rbp-0x38]
     e68:	48 89 d6             	mov    rsi,rdx
     e6b:	48 89 c7             	mov    rdi,rax
     e6e:	e8 f5 fe ff ff       	call   d68 <sgx_is_outside_enclave>
     e73:	85 c0                	test   eax,eax
     e75:	0f 94 c0             	sete   al
     e78:	84 c0                	test   al,al
     e7a:	74 05                	je     e81 <sgx_ocalloc+0x8c>
     e7c:	e8 72 f3 01 00       	call   201f3 <abort>
     e81:	48 8b 45 e0          	mov    rax,QWORD PTR [rbp-0x20]
     e85:	48 8b 80 90 00 00 00 	mov    rax,QWORD PTR [rax+0x90]
     e8c:	48 83 e8 01          	sub    rax,0x1
     e90:	48 25 00 f0 ff ff    	and    rax,0xfffffffffffff000
     e96:	48 89 45 f0          	mov    QWORD PTR [rbp-0x10],rax
     e9a:	48 8b 45 e8          	mov    rax,QWORD PTR [rbp-0x18]
     e9e:	48 25 00 f0 ff ff    	and    rax,0xfffffffffffff000
     ea4:	48 89 45 f8          	mov    QWORD PTR [rbp-0x8],rax
     ea8:	48 83 7d f8 00       	cmp    QWORD PTR [rbp-0x8],0x0
     ead:	75 05                	jne    eb4 <sgx_ocalloc+0xbf>
     eaf:	e8 3f f3 01 00       	call   201f3 <abort>
     eb4:	48 8b 45 f0          	mov    rax,QWORD PTR [rbp-0x10]
     eb8:	48 89 45 d0          	mov    QWORD PTR [rbp-0x30],rax
     ebc:	48 8b 45 d0          	mov    rax,QWORD PTR [rbp-0x30]
     ec0:	48 39 45 f8          	cmp    QWORD PTR [rbp-0x8],rax
     ec4:	0f 96 c0             	setbe  al
     ec7:	84 c0                	test   al,al
     ec9:	74 26                	je     ef1 <sgx_ocalloc+0xfc>
     ecb:	48 8b 55 d0          	mov    rdx,QWORD PTR [rbp-0x30]
     ecf:	48 8b 45 e0          	mov    rax,QWORD PTR [rbp-0x20]
     ed3:	48 89 90 90 00 00 00 	mov    QWORD PTR [rax+0x90],rdx
     eda:	48 8b 45 d0          	mov    rax,QWORD PTR [rbp-0x30]
     ede:	c6 00 00             	mov    BYTE PTR [rax],0x0
     ee1:	48 8b 45 d0          	mov    rax,QWORD PTR [rbp-0x30]
     ee5:	48 2d 00 10 00 00    	sub    rax,0x1000
     eeb:	48 89 45 d0          	mov    QWORD PTR [rbp-0x30],rax
     eef:	eb cb                	jmp    ebc <sgx_ocalloc+0xc7>
     ef1:	48 8b 45 e0          	mov    rax,QWORD PTR [rbp-0x20]
     ef5:	48 8b 55 e8          	mov    rdx,QWORD PTR [rbp-0x18]
     ef9:	48 89 90 90 00 00 00 	mov    QWORD PTR [rax+0x90],rdx
     f00:	48 8b 45 e8          	mov    rax,QWORD PTR [rbp-0x18]
     f04:	c9                   	leave  
     f05:	c3                   	ret    

0000000000000f06 <sgx_ocfree>:
     f06:	55                   	push   rbp
     f07:	48 89 e5             	mov    rbp,rsp
     f0a:	48 83 ec 20          	sub    rsp,0x20
     f0e:	e8 10 ef 01 00       	call   1fe23 <get_thread_data>
     f13:	48 89 45 e0          	mov    QWORD PTR [rbp-0x20],rax
     f17:	48 8b 45 e0          	mov    rax,QWORD PTR [rbp-0x20]
     f1b:	48 8b 40 20          	mov    rax,QWORD PTR [rax+0x20]
     f1f:	48 89 45 e8          	mov    QWORD PTR [rbp-0x18],rax
     f23:	48 8b 45 e0          	mov    rax,QWORD PTR [rbp-0x20]
     f27:	48 8b 40 08          	mov    rax,QWORD PTR [rax+0x8]
     f2b:	48 89 45 f0          	mov    QWORD PTR [rbp-0x10],rax
     f2f:	48 8b 45 f0          	mov    rax,QWORD PTR [rbp-0x10]
     f33:	48 8b 40 e8          	mov    rax,QWORD PTR [rax-0x18]
     f37:	48 89 45 f8          	mov    QWORD PTR [rbp-0x8],rax
     f3b:	48 8b 45 f8          	mov    rax,QWORD PTR [rbp-0x8]
     f3f:	be 08 00 00 00       	mov    esi,0x8
     f44:	48 89 c7             	mov    rdi,rax
     f47:	e8 1c fe ff ff       	call   d68 <sgx_is_outside_enclave>
     f4c:	85 c0                	test   eax,eax
     f4e:	0f 94 c0             	sete   al
     f51:	84 c0                	test   al,al
     f53:	74 05                	je     f5a <sgx_ocfree+0x54>
     f55:	e8 99 f2 01 00       	call   201f3 <abort>
     f5a:	48 8b 45 e8          	mov    rax,QWORD PTR [rbp-0x18]
     f5e:	48 8b 55 f8          	mov    rdx,QWORD PTR [rbp-0x8]
     f62:	48 89 90 90 00 00 00 	mov    QWORD PTR [rax+0x90],rdx
     f69:	90                   	nop
     f6a:	c9                   	leave  
     f6b:	c3                   	ret    

0000000000000f6c <_ZL12get_rand_lcgv>:
     f6c:	55                   	push   rbp
     f6d:	48 89 e5             	mov    rbp,rsp
     f70:	48 83 ec 10          	sub    rsp,0x10
     f74:	48 8d 3d a5 54 22 00 	lea    rdi,[rip+0x2254a5]        # 226420 <_ZL11g_seed_lock>
     f7b:	e8 27 9a 00 00       	call   a9a7 <sgx_spin_lock>
     f80:	48 8d 05 f1 54 22 00 	lea    rax,[rip+0x2254f1]        # 226478 <g_global_data_sim+0x18>
     f87:	48 89 45 f8          	mov    QWORD PTR [rbp-0x8],rax
     f8b:	48 8b 45 f8          	mov    rax,QWORD PTR [rbp-0x8]
     f8f:	48 8b 10             	mov    rdx,QWORD PTR [rax]
     f92:	48 b8 2d 7f 95 4c 2d 	movabs rax,0x5851f42d4c957f2d
     f99:	f4 51 58 
     f9c:	48 0f af c2          	imul   rax,rdx
     fa0:	48 8d 50 01          	lea    rdx,[rax+0x1]
     fa4:	48 8b 45 f8          	mov    rax,QWORD PTR [rbp-0x8]
     fa8:	48 89 10             	mov    QWORD PTR [rax],rdx
     fab:	48 8b 45 f8          	mov    rax,QWORD PTR [rbp-0x8]
     faf:	48 8b 00             	mov    rax,QWORD PTR [rax]
     fb2:	48 c1 e8 20          	shr    rax,0x20
     fb6:	89 45 f4             	mov    DWORD PTR [rbp-0xc],eax
     fb9:	48 8d 3d 60 54 22 00 	lea    rdi,[rip+0x225460]        # 226420 <_ZL11g_seed_lock>
     fc0:	e8 49 9a 00 00       	call   aa0e <sgx_spin_unlock>
     fc5:	8b 45 f4             	mov    eax,DWORD PTR [rbp-0xc]
     fc8:	c9                   	leave  
     fc9:	c3                   	ret    

0000000000000fca <_ZL15__do_get_rand32Pj>:
     fca:	55                   	push   rbp
     fcb:	48 89 e5             	mov    rbp,rsp
     fce:	48 83 ec 10          	sub    rsp,0x10
     fd2:	48 89 7d f8          	mov    QWORD PTR [rbp-0x8],rdi
     fd6:	48 8b 05 63 3e 22 00 	mov    rax,QWORD PTR [rip+0x223e63]        # 224e40 <g_cpu_feature_indicator>
     fdd:	25 00 00 02 00       	and    eax,0x20000
     fe2:	48 85 c0             	test   rax,rax
     fe5:	74 1c                	je     1003 <_ZL15__do_get_rand32Pj+0x39>
     fe7:	48 8b 45 f8          	mov    rax,QWORD PTR [rbp-0x8]
     feb:	48 89 c7             	mov    rdi,rax
     fee:	e8 e1 f1 01 00       	call   201d4 <do_rdrand>
     ff3:	85 c0                	test   eax,eax
     ff5:	0f 94 c0             	sete   al
     ff8:	84 c0                	test   al,al
     ffa:	74 14                	je     1010 <_ZL15__do_get_rand32Pj+0x46>
     ffc:	b8 01 00 00 00       	mov    eax,0x1
    1001:	eb 12                	jmp    1015 <_ZL15__do_get_rand32Pj+0x4b>
    1003:	e8 64 ff ff ff       	call   f6c <_ZL12get_rand_lcgv>
    1008:	89 c2                	mov    edx,eax
    100a:	48 8b 45 f8          	mov    rax,QWORD PTR [rbp-0x8]
    100e:	89 10                	mov    DWORD PTR [rax],edx
    1010:	b8 00 00 00 00       	mov    eax,0x0
    1015:	c9                   	leave  
    1016:	c3                   	ret    

0000000000001017 <sgx_read_rand>:
    1017:	55                   	push   rbp
    1018:	48 89 e5             	mov    rbp,rsp
    101b:	48 83 ec 30          	sub    rsp,0x30
    101f:	48 89 7d d8          	mov    QWORD PTR [rbp-0x28],rdi
    1023:	48 89 75 d0          	mov    QWORD PTR [rbp-0x30],rsi
    1027:	64 48 8b 04 25 28 00 	mov    rax,QWORD PTR fs:0x28
    102e:	00 00 
    1030:	48 89 45 f8          	mov    QWORD PTR [rbp-0x8],rax
    1034:	31 c0                	xor    eax,eax
    1036:	48 83 7d d8 00       	cmp    QWORD PTR [rbp-0x28],0x0
    103b:	74 07                	je     1044 <sgx_read_rand+0x2d>
    103d:	48 83 7d d0 00       	cmp    QWORD PTR [rbp-0x30],0x0
    1042:	75 0a                	jne    104e <sgx_read_rand+0x37>
    1044:	b8 02 00 00 00       	mov    eax,0x2
    1049:	e9 cc 00 00 00       	jmp    111a <sgx_read_rand+0x103>
    104e:	48 8b 55 d0          	mov    rdx,QWORD PTR [rbp-0x30]
    1052:	48 8b 45 d8          	mov    rax,QWORD PTR [rbp-0x28]
    1056:	48 89 d6             	mov    rsi,rdx
    1059:	48 89 c7             	mov    rdi,rax
    105c:	e8 7a fc ff ff       	call   cdb <sgx_is_within_enclave>
    1061:	85 c0                	test   eax,eax
    1063:	75 1e                	jne    1083 <sgx_read_rand+0x6c>
    1065:	48 8b 55 d0          	mov    rdx,QWORD PTR [rbp-0x30]
    1069:	48 8b 45 d8          	mov    rax,QWORD PTR [rbp-0x28]
    106d:	48 89 d6             	mov    rsi,rdx
    1070:	48 89 c7             	mov    rdi,rax
    1073:	e8 f0 fc ff ff       	call   d68 <sgx_is_outside_enclave>
    1078:	85 c0                	test   eax,eax
    107a:	75 07                	jne    1083 <sgx_read_rand+0x6c>
    107c:	b8 01 00 00 00       	mov    eax,0x1
    1081:	eb 05                	jmp    1088 <sgx_read_rand+0x71>
    1083:	b8 00 00 00 00       	mov    eax,0x0
    1088:	84 c0                	test   al,al
    108a:	74 0a                	je     1096 <sgx_read_rand+0x7f>
    108c:	b8 02 00 00 00       	mov    eax,0x2
    1091:	e9 84 00 00 00       	jmp    111a <sgx_read_rand+0x103>
    1096:	c7 45 e8 00 00 00 00 	mov    DWORD PTR [rbp-0x18],0x0
    109d:	48 83 7d d0 00       	cmp    QWORD PTR [rbp-0x30],0x0
    10a2:	74 56                	je     10fa <sgx_read_rand+0xe3>
    10a4:	48 8d 45 e8          	lea    rax,[rbp-0x18]
    10a8:	48 89 c7             	mov    rdi,rax
    10ab:	e8 1a ff ff ff       	call   fca <_ZL15__do_get_rand32Pj>
    10b0:	89 45 ec             	mov    DWORD PTR [rbp-0x14],eax
    10b3:	83 7d ec 00          	cmp    DWORD PTR [rbp-0x14],0x0
    10b7:	74 05                	je     10be <sgx_read_rand+0xa7>
    10b9:	8b 45 ec             	mov    eax,DWORD PTR [rbp-0x14]
    10bc:	eb 5c                	jmp    111a <sgx_read_rand+0x103>
    10be:	b8 04 00 00 00       	mov    eax,0x4
    10c3:	48 83 7d d0 04       	cmp    QWORD PTR [rbp-0x30],0x4
    10c8:	48 0f 46 45 d0       	cmovbe rax,QWORD PTR [rbp-0x30]
    10cd:	48 89 45 f0          	mov    QWORD PTR [rbp-0x10],rax
    10d1:	48 8b 55 f0          	mov    rdx,QWORD PTR [rbp-0x10]
    10d5:	48 8d 4d e8          	lea    rcx,[rbp-0x18]
    10d9:	48 8b 45 d8          	mov    rax,QWORD PTR [rbp-0x28]
    10dd:	48 89 ce             	mov    rsi,rcx
    10e0:	48 89 c7             	mov    rdi,rax
    10e3:	e8 ef 91 00 00       	call   a2d7 <memcpy>
    10e8:	48 8b 45 f0          	mov    rax,QWORD PTR [rbp-0x10]
    10ec:	48 01 45 d8          	add    QWORD PTR [rbp-0x28],rax
    10f0:	48 8b 45 f0          	mov    rax,QWORD PTR [rbp-0x10]
    10f4:	48 29 45 d0          	sub    QWORD PTR [rbp-0x30],rax
    10f8:	eb a3                	jmp    109d <sgx_read_rand+0x86>
    10fa:	48 8d 45 e8          	lea    rax,[rbp-0x18]
    10fe:	b9 04 00 00 00       	mov    ecx,0x4
    1103:	ba 00 00 00 00       	mov    edx,0x0
    1108:	be 04 00 00 00       	mov    esi,0x4
    110d:	48 89 c7             	mov    rdi,rax
    1110:	e8 60 92 00 00       	call   a375 <memset_s>
    1115:	b8 00 00 00 00       	mov    eax,0x0
    111a:	48 8b 4d f8          	mov    rcx,QWORD PTR [rbp-0x8]
    111e:	64 48 33 0c 25 28 00 	xor    rcx,QWORD PTR fs:0x28
    1125:	00 00 
    1127:	74 05                	je     112e <sgx_read_rand+0x117>
    1129:	e8 f8 34 00 00       	call   4626 <__stack_chk_fail>
    112e:	c9                   	leave  
    112f:	c3                   	ret    

0000000000001130 <check_static_stack_canary>:
    1130:	55                   	push   rbp
    1131:	48 89 e5             	mov    rbp,rsp
    1134:	48 89 7d e8          	mov    QWORD PTR [rbp-0x18],rdi
    1138:	48 8b 45 e8          	mov    rax,QWORD PTR [rbp-0x18]
    113c:	48 2d a8 02 01 00    	sub    rax,0x102a8
    1142:	48 89 45 f8          	mov    QWORD PTR [rbp-0x8],rax
    1146:	48 8b 45 f8          	mov    rax,QWORD PTR [rbp-0x8]
    114a:	48 8b 10             	mov    rdx,QWORD PTR [rax]
    114d:	48 8b 05 fc 3c 22 00 	mov    rax,QWORD PTR [rip+0x223cfc]        # 224e50 <__intel_security_cookie>
    1154:	48 39 c2             	cmp    rdx,rax
    1157:	74 07                	je     1160 <check_static_stack_canary+0x30>
    1159:	b8 ff ff ff ff       	mov    eax,0xffffffff
    115e:	eb 05                	jmp    1165 <check_static_stack_canary+0x35>
    1160:	b8 00 00 00 00       	mov    eax,0x0
    1165:	5d                   	pop    rbp
    1166:	c3                   	ret    

0000000000001167 <random_stack_notify_gdb>:
    1167:	55                   	push   rbp
    1168:	48 89 e5             	mov    rbp,rsp
    116b:	48 89 7d f8          	mov    QWORD PTR [rbp-0x8],rdi
    116f:	48 89 75 f0          	mov    QWORD PTR [rbp-0x10],rsi
    1173:	90                   	nop
    1174:	5d                   	pop    rbp
    1175:	c3                   	ret    

0000000000001176 <memcpy_s>:
    1176:	55                   	push   rbp
    1177:	48 89 e5             	mov    rbp,rsp
    117a:	48 83 ec 20          	sub    rsp,0x20
    117e:	48 89 7d f8          	mov    QWORD PTR [rbp-0x8],rdi
    1182:	48 89 75 f0          	mov    QWORD PTR [rbp-0x10],rsi
    1186:	48 89 55 e8          	mov    QWORD PTR [rbp-0x18],rdx
    118a:	48 89 4d e0          	mov    QWORD PTR [rbp-0x20],rcx
    118e:	48 8b 45 f0          	mov    rax,QWORD PTR [rbp-0x10]
    1192:	48 3b 45 e0          	cmp    rax,QWORD PTR [rbp-0x20]
    1196:	73 07                	jae    119f <memcpy_s+0x29>
    1198:	b8 ff ff ff ff       	mov    eax,0xffffffff
    119d:	eb 1c                	jmp    11bb <memcpy_s+0x45>
    119f:	48 8b 55 e0          	mov    rdx,QWORD PTR [rbp-0x20]
    11a3:	48 8b 4d e8          	mov    rcx,QWORD PTR [rbp-0x18]
    11a7:	48 8b 45 f8          	mov    rax,QWORD PTR [rbp-0x8]
    11ab:	48 89 ce             	mov    rsi,rcx
    11ae:	48 89 c7             	mov    rdi,rax
    11b1:	e8 21 91 00 00       	call   a2d7 <memcpy>
    11b6:	b8 00 00 00 00       	mov    eax,0x0
    11bb:	c9                   	leave  
    11bc:	c3                   	ret    

00000000000011bd <_ZL16is_ecall_allowedj>:
    11bd:	55                   	push   rbp
    11be:	48 89 e5             	mov    rbp,rsp
    11c1:	48 83 ec 30          	sub    rsp,0x30
    11c5:	89 7d dc             	mov    DWORD PTR [rbp-0x24],edi
    11c8:	8b 55 dc             	mov    edx,DWORD PTR [rbp-0x24]
    11cb:	48 8b 05 56 3c 22 00 	mov    rax,QWORD PTR [rip+0x223c56]        # 224e28 <g_ecall_table>
    11d2:	48 39 c2             	cmp    rdx,rax
    11d5:	72 0a                	jb     11e1 <_ZL16is_ecall_allowedj+0x24>
    11d7:	b8 01 10 00 00       	mov    eax,0x1001
    11dc:	e9 ba 00 00 00       	jmp    129b <_ZL16is_ecall_allowedj+0xde>
    11e1:	e8 3d ec 01 00       	call   1fe23 <get_thread_data>
    11e6:	48 89 45 e8          	mov    QWORD PTR [rbp-0x18],rax
    11ea:	0f ae e8             	lfence 
    11ed:	48 8b 45 e8          	mov    rax,QWORD PTR [rbp-0x18]
    11f1:	48 8b 50 08          	mov    rdx,QWORD PTR [rax+0x8]
    11f5:	48 8b 45 e8          	mov    rax,QWORD PTR [rbp-0x18]
    11f9:	48 8b 40 10          	mov    rax,QWORD PTR [rax+0x10]
    11fd:	48 39 c2             	cmp    rdx,rax
    1200:	75 27                	jne    1229 <_ZL16is_ecall_allowedj+0x6c>
    1202:	8b 45 dc             	mov    eax,DWORD PTR [rbp-0x24]
    1205:	48 c1 e0 04          	shl    rax,0x4
    1209:	48 89 c2             	mov    rdx,rax
    120c:	48 8d 05 25 3c 22 00 	lea    rax,[rip+0x223c25]        # 224e38 <g_ecall_table+0x10>
    1213:	0f b6 04 02          	movzx  eax,BYTE PTR [rdx+rax*1]
    1217:	84 c0                	test   al,al
    1219:	74 07                	je     1222 <_ZL16is_ecall_allowedj+0x65>
    121b:	b8 07 10 00 00       	mov    eax,0x1007
    1220:	eb 79                	jmp    129b <_ZL16is_ecall_allowedj+0xde>
    1222:	b8 00 00 00 00       	mov    eax,0x0
    1227:	eb 72                	jmp    129b <_ZL16is_ecall_allowedj+0xde>
    1229:	48 8b 45 e8          	mov    rax,QWORD PTR [rbp-0x18]
    122d:	48 8b 40 08          	mov    rax,QWORD PTR [rax+0x8]
    1231:	48 89 45 f0          	mov    QWORD PTR [rbp-0x10],rax
    1235:	48 8b 45 f0          	mov    rax,QWORD PTR [rbp-0x10]
    1239:	48 8b 40 20          	mov    rax,QWORD PTR [rax+0x20]
    123d:	48 3d 44 49 43 4f    	cmp    rax,0x4f434944
    1243:	74 05                	je     124a <_ZL16is_ecall_allowedj+0x8d>
    1245:	e8 a9 ef 01 00       	call   201f3 <abort>
    124a:	48 8b 45 f0          	mov    rax,QWORD PTR [rbp-0x10]
    124e:	48 8b 40 28          	mov    rax,QWORD PTR [rax+0x28]
    1252:	48 89 45 f8          	mov    QWORD PTR [rbp-0x8],rax
    1256:	48 8b 05 a3 f0 01 00 	mov    rax,QWORD PTR [rip+0x1f0a3]        # 20300 <g_dyn_entry_table>
    125d:	48 39 45 f8          	cmp    QWORD PTR [rbp-0x8],rax
    1261:	72 07                	jb     126a <_ZL16is_ecall_allowedj+0xad>
    1263:	b8 01 10 00 00       	mov    eax,0x1001
    1268:	eb 31                	jmp    129b <_ZL16is_ecall_allowedj+0xde>
    126a:	48 8b 05 b7 3b 22 00 	mov    rax,QWORD PTR [rip+0x223bb7]        # 224e28 <g_ecall_table>
    1271:	48 0f af 45 f8       	imul   rax,QWORD PTR [rbp-0x8]
    1276:	48 89 c2             	mov    rdx,rax
    1279:	8b 45 dc             	mov    eax,DWORD PTR [rbp-0x24]
    127c:	48 01 c2             	add    rdx,rax
    127f:	48 8d 05 82 f0 01 00 	lea    rax,[rip+0x1f082]        # 20308 <g_dyn_entry_table+0x8>
    1286:	0f b6 04 02          	movzx  eax,BYTE PTR [rdx+rax*1]
    128a:	84 c0                	test   al,al
    128c:	74 07                	je     1295 <_ZL16is_ecall_allowedj+0xd8>
    128e:	b8 00 00 00 00       	mov    eax,0x0
    1293:	eb 05                	jmp    129a <_ZL16is_ecall_allowedj+0xdd>
    1295:	b8 07 10 00 00       	mov    eax,0x1007
    129a:	90                   	nop
    129b:	c9                   	leave  
    129c:	c3                   	ret    

000000000000129d <_ZL13get_func_addrjPPv>:
    129d:	55                   	push   rbp
    129e:	48 89 e5             	mov    rbp,rsp
    12a1:	48 83 ec 20          	sub    rsp,0x20
    12a5:	89 7d ec             	mov    DWORD PTR [rbp-0x14],edi
    12a8:	48 89 75 e0          	mov    QWORD PTR [rbp-0x20],rsi
    12ac:	83 7d ec fa          	cmp    DWORD PTR [rbp-0x14],0xfffffffa
    12b0:	0f 94 c0             	sete   al
    12b3:	0f b6 c0             	movzx  eax,al
    12b6:	48 85 c0             	test   rax,rax
    12b9:	75 0f                	jne    12ca <_ZL13get_func_addrjPPv+0x2d>
    12bb:	83 7d ec f9          	cmp    DWORD PTR [rbp-0x14],0xfffffff9
    12bf:	0f 94 c0             	sete   al
    12c2:	0f b6 c0             	movzx  eax,al
    12c5:	48 85 c0             	test   rax,rax
    12c8:	74 5e                	je     1328 <_ZL13get_func_addrjPPv+0x8b>
    12ca:	e8 54 eb 01 00       	call   1fe23 <get_thread_data>
    12cf:	48 89 45 f8          	mov    QWORD PTR [rbp-0x8],rax
    12d3:	48 8b 45 f8          	mov    rax,QWORD PTR [rbp-0x8]
    12d7:	48 8b 50 08          	mov    rdx,QWORD PTR [rax+0x8]
    12db:	48 8b 45 f8          	mov    rax,QWORD PTR [rbp-0x8]
    12df:	48 8b 40 10          	mov    rax,QWORD PTR [rax+0x10]
    12e3:	48 39 c2             	cmp    rdx,rax
    12e6:	74 0a                	je     12f2 <_ZL13get_func_addrjPPv+0x55>
    12e8:	b8 01 00 00 00       	mov    eax,0x1
    12ed:	e9 93 00 00 00       	jmp    1385 <_ZL13get_func_addrjPPv+0xe8>
    12f2:	83 7d ec fa          	cmp    DWORD PTR [rbp-0x14],0xfffffffa
    12f6:	75 15                	jne    130d <_ZL13get_func_addrjPPv+0x70>
    12f8:	48 8b 45 e0          	mov    rax,QWORD PTR [rbp-0x20]
    12fc:	48 8d 15 71 17 00 00 	lea    rdx,[rip+0x1771]        # 2a74 <do_init_switchless>
    1303:	48 89 10             	mov    QWORD PTR [rax],rdx
    1306:	b8 00 00 00 00       	mov    eax,0x0
    130b:	eb 78                	jmp    1385 <_ZL13get_func_addrjPPv+0xe8>
    130d:	83 7d ec f9          	cmp    DWORD PTR [rbp-0x14],0xfffffff9
    1311:	75 15                	jne    1328 <_ZL13get_func_addrjPPv+0x8b>
    1313:	48 8b 45 e0          	mov    rax,QWORD PTR [rbp-0x20]
    1317:	48 8d 15 65 17 00 00 	lea    rdx,[rip+0x1765]        # 2a83 <do_run_switchless_tworker>
    131e:	48 89 10             	mov    QWORD PTR [rax],rdx
    1321:	b8 00 00 00 00       	mov    eax,0x0
    1326:	eb 5d                	jmp    1385 <_ZL13get_func_addrjPPv+0xe8>
    1328:	8b 45 ec             	mov    eax,DWORD PTR [rbp-0x14]
    132b:	89 c7                	mov    edi,eax
    132d:	e8 8b fe ff ff       	call   11bd <_ZL16is_ecall_allowedj>
    1332:	89 45 f4             	mov    DWORD PTR [rbp-0xc],eax
    1335:	83 7d f4 00          	cmp    DWORD PTR [rbp-0xc],0x0
    1339:	74 05                	je     1340 <_ZL13get_func_addrjPPv+0xa3>
    133b:	8b 45 f4             	mov    eax,DWORD PTR [rbp-0xc]
    133e:	eb 45                	jmp    1385 <_ZL13get_func_addrjPPv+0xe8>
    1340:	8b 45 ec             	mov    eax,DWORD PTR [rbp-0x14]
    1343:	48 c1 e0 04          	shl    rax,0x4
    1347:	48 89 c2             	mov    rdx,rax
    134a:	48 8d 05 df 3a 22 00 	lea    rax,[rip+0x223adf]        # 224e30 <g_ecall_table+0x8>
    1351:	48 8b 14 02          	mov    rdx,QWORD PTR [rdx+rax*1]
    1355:	48 8b 45 e0          	mov    rax,QWORD PTR [rbp-0x20]
    1359:	48 89 10             	mov    QWORD PTR [rax],rdx
    135c:	48 8b 45 e0          	mov    rax,QWORD PTR [rbp-0x20]
    1360:	48 8b 00             	mov    rax,QWORD PTR [rax]
    1363:	be 00 00 00 00       	mov    esi,0x0
    1368:	48 89 c7             	mov    rdi,rax
    136b:	e8 6b f9 ff ff       	call   cdb <sgx_is_within_enclave>
    1370:	85 c0                	test   eax,eax
    1372:	0f 94 c0             	sete   al
    1375:	84 c0                	test   al,al
    1377:	74 07                	je     1380 <_ZL13get_func_addrjPPv+0xe3>
    1379:	b8 01 00 00 00       	mov    eax,0x1
    137e:	eb 05                	jmp    1385 <_ZL13get_func_addrjPPv+0xe8>
    1380:	b8 00 00 00 00       	mov    eax,0x0
    1385:	c9                   	leave  
    1386:	c3                   	ret    

0000000000001387 <_ZL17is_utility_threadv>:
    1387:	55                   	push   rbp
    1388:	48 89 e5             	mov    rbp,rsp
    138b:	48 83 ec 10          	sub    rsp,0x10
    138f:	e8 8f ea 01 00       	call   1fe23 <get_thread_data>
    1394:	48 89 45 f8          	mov    QWORD PTR [rbp-0x8],rax
    1398:	48 83 7d f8 00       	cmp    QWORD PTR [rbp-0x8],0x0
    139d:	74 17                	je     13b6 <_ZL17is_utility_threadv+0x2f>
    139f:	48 8b 45 f8          	mov    rax,QWORD PTR [rbp-0x8]
    13a3:	48 8b 40 30          	mov    rax,QWORD PTR [rax+0x30]
    13a7:	83 e0 01             	and    eax,0x1
    13aa:	48 85 c0             	test   rax,rax
    13ad:	74 07                	je     13b6 <_ZL17is_utility_threadv+0x2f>
    13af:	b8 01 00 00 00       	mov    eax,0x1
    13b4:	eb 05                	jmp    13bb <_ZL17is_utility_threadv+0x34>
    13b6:	b8 00 00 00 00       	mov    eax,0x0
    13bb:	c9                   	leave  
    13bc:	c3                   	ret    

00000000000013bd <_ZL11do_save_tcsPv>:
    13bd:	55                   	push   rbp
    13be:	48 89 e5             	mov    rbp,rsp
    13c1:	48 83 ec 30          	sub    rsp,0x30
    13c5:	48 89 7d d8          	mov    QWORD PTR [rbp-0x28],rdi
    13c9:	64 48 8b 04 25 28 00 	mov    rax,QWORD PTR fs:0x28
    13d0:	00 00 
    13d2:	48 89 45 f8          	mov    QWORD PTR [rbp-0x8],rax
    13d6:	31 c0                	xor    eax,eax
    13d8:	e8 aa ff ff ff       	call   1387 <_ZL17is_utility_threadv>
    13dd:	83 f0 01             	xor    eax,0x1
    13e0:	84 c0                	test   al,al
    13e2:	74 0a                	je     13ee <_ZL11do_save_tcsPv+0x31>
    13e4:	b8 01 00 00 00       	mov    eax,0x1
    13e9:	e9 b0 00 00 00       	jmp    149e <_ZL11do_save_tcsPv+0xe1>
    13ee:	48 8b 05 3b 50 22 00 	mov    rax,QWORD PTR [rip+0x22503b]        # 226430 <_ZL12g_tcs_cookie>
    13f5:	48 85 c0             	test   rax,rax
    13f8:	0f 94 c0             	sete   al
    13fb:	0f b6 c0             	movzx  eax,al
    13fe:	48 85 c0             	test   rax,rax
    1401:	74 4b                	je     144e <_ZL11do_save_tcsPv+0x91>
    1403:	48 c7 45 e8 00 00 00 	mov    QWORD PTR [rbp-0x18],0x0
    140a:	00 
    140b:	48 8d 45 e8          	lea    rax,[rbp-0x18]
    140f:	be 08 00 00 00       	mov    esi,0x8
    1414:	48 89 c7             	mov    rdi,rax
    1417:	e8 fb fb ff ff       	call   1017 <sgx_read_rand>
    141c:	85 c0                	test   eax,eax
    141e:	0f 95 c0             	setne  al
    1421:	84 c0                	test   al,al
    1423:	74 07                	je     142c <_ZL11do_save_tcsPv+0x6f>
    1425:	b8 01 00 00 00       	mov    eax,0x1
    142a:	eb 72                	jmp    149e <_ZL11do_save_tcsPv+0xe1>
    142c:	48 8b 45 e8          	mov    rax,QWORD PTR [rbp-0x18]
    1430:	48 85 c0             	test   rax,rax
    1433:	75 02                	jne    1437 <_ZL11do_save_tcsPv+0x7a>
    1435:	eb d4                	jmp    140b <_ZL11do_save_tcsPv+0x4e>
    1437:	48 8b 05 f2 4f 22 00 	mov    rax,QWORD PTR [rip+0x224ff2]        # 226430 <_ZL12g_tcs_cookie>
    143e:	48 85 c0             	test   rax,rax
    1441:	75 0b                	jne    144e <_ZL11do_save_tcsPv+0x91>
    1443:	48 8b 45 e8          	mov    rax,QWORD PTR [rbp-0x18]
    1447:	48 89 05 e2 4f 22 00 	mov    QWORD PTR [rip+0x224fe2],rax        # 226430 <_ZL12g_tcs_cookie>
    144e:	bf 10 00 00 00       	mov    edi,0x10
    1453:	e8 c8 6c 00 00       	call   8120 <dlmalloc>
    1458:	48 89 45 f0          	mov    QWORD PTR [rbp-0x10],rax
    145c:	48 83 7d f0 00       	cmp    QWORD PTR [rbp-0x10],0x0
    1461:	75 07                	jne    146a <_ZL11do_save_tcsPv+0xad>
    1463:	b8 01 00 00 00       	mov    eax,0x1
    1468:	eb 34                	jmp    149e <_ZL11do_save_tcsPv+0xe1>
    146a:	48 8b 55 d8          	mov    rdx,QWORD PTR [rbp-0x28]
    146e:	48 8b 05 bb 4f 22 00 	mov    rax,QWORD PTR [rip+0x224fbb]        # 226430 <_ZL12g_tcs_cookie>
    1475:	48 31 c2             	xor    rdx,rax
    1478:	48 8b 45 f0          	mov    rax,QWORD PTR [rbp-0x10]
    147c:	48 89 10             	mov    QWORD PTR [rax],rdx
    147f:	48 8b 15 a2 4f 22 00 	mov    rdx,QWORD PTR [rip+0x224fa2]        # 226428 <_ZL10g_tcs_node>
    1486:	48 8b 45 f0          	mov    rax,QWORD PTR [rbp-0x10]
    148a:	48 89 50 08          	mov    QWORD PTR [rax+0x8],rdx
    148e:	48 8b 45 f0          	mov    rax,QWORD PTR [rbp-0x10]
    1492:	48 89 05 8f 4f 22 00 	mov    QWORD PTR [rip+0x224f8f],rax        # 226428 <_ZL10g_tcs_node>
    1499:	b8 00 00 00 00       	mov    eax,0x0
    149e:	48 8b 4d f8          	mov    rcx,QWORD PTR [rbp-0x8]
    14a2:	64 48 33 0c 25 28 00 	xor    rcx,QWORD PTR fs:0x28
    14a9:	00 00 
    14ab:	74 05                	je     14b2 <_ZL11do_save_tcsPv+0xf5>
    14ad:	e8 74 31 00 00       	call   4626 <__stack_chk_fail>
    14b2:	c9                   	leave  
    14b3:	c3                   	ret    

00000000000014b4 <_ZL10do_del_tcsPv>:
    14b4:	55                   	push   rbp
    14b5:	48 89 e5             	mov    rbp,rsp
    14b8:	48 83 ec 30          	sub    rsp,0x30
    14bc:	48 89 7d d8          	mov    QWORD PTR [rbp-0x28],rdi
    14c0:	e8 c2 fe ff ff       	call   1387 <_ZL17is_utility_threadv>
    14c5:	83 f0 01             	xor    eax,0x1
    14c8:	84 c0                	test   al,al
    14ca:	0f 85 c1 00 00 00    	jne    1591 <_ZL10do_del_tcsPv+0xdd>
    14d0:	48 8b 05 51 4f 22 00 	mov    rax,QWORD PTR [rip+0x224f51]        # 226428 <_ZL10g_tcs_node>
    14d7:	48 85 c0             	test   rax,rax
    14da:	0f 84 b2 00 00 00    	je     1592 <_ZL10do_del_tcsPv+0xde>
    14e0:	48 8b 05 41 4f 22 00 	mov    rax,QWORD PTR [rip+0x224f41]        # 226428 <_ZL10g_tcs_node>
    14e7:	48 8b 10             	mov    rdx,QWORD PTR [rax]
    14ea:	48 8b 05 3f 4f 22 00 	mov    rax,QWORD PTR [rip+0x224f3f]        # 226430 <_ZL12g_tcs_cookie>
    14f1:	48 31 d0             	xor    rax,rdx
    14f4:	48 39 45 d8          	cmp    QWORD PTR [rbp-0x28],rax
    14f8:	75 2b                	jne    1525 <_ZL10do_del_tcsPv+0x71>
    14fa:	48 8b 05 27 4f 22 00 	mov    rax,QWORD PTR [rip+0x224f27]        # 226428 <_ZL10g_tcs_node>
    1501:	48 89 45 f8          	mov    QWORD PTR [rbp-0x8],rax
    1505:	48 8b 05 1c 4f 22 00 	mov    rax,QWORD PTR [rip+0x224f1c]        # 226428 <_ZL10g_tcs_node>
    150c:	48 8b 40 08          	mov    rax,QWORD PTR [rax+0x8]
    1510:	48 89 05 11 4f 22 00 	mov    QWORD PTR [rip+0x224f11],rax        # 226428 <_ZL10g_tcs_node>
    1517:	48 8b 45 f8          	mov    rax,QWORD PTR [rbp-0x8]
    151b:	48 89 c7             	mov    rdi,rax
    151e:	e8 f4 76 00 00       	call   8c17 <dlfree>
    1523:	eb 6d                	jmp    1592 <_ZL10do_del_tcsPv+0xde>
    1525:	48 8b 05 fc 4e 22 00 	mov    rax,QWORD PTR [rip+0x224efc]        # 226428 <_ZL10g_tcs_node>
    152c:	48 8b 40 08          	mov    rax,QWORD PTR [rax+0x8]
    1530:	48 89 45 e8          	mov    QWORD PTR [rbp-0x18],rax
    1534:	48 8b 05 ed 4e 22 00 	mov    rax,QWORD PTR [rip+0x224eed]        # 226428 <_ZL10g_tcs_node>
    153b:	48 89 45 f0          	mov    QWORD PTR [rbp-0x10],rax
    153f:	48 83 7d e8 00       	cmp    QWORD PTR [rbp-0x18],0x0
    1544:	74 4c                	je     1592 <_ZL10do_del_tcsPv+0xde>
    1546:	48 8b 45 e8          	mov    rax,QWORD PTR [rbp-0x18]
    154a:	48 8b 10             	mov    rdx,QWORD PTR [rax]
    154d:	48 8b 05 dc 4e 22 00 	mov    rax,QWORD PTR [rip+0x224edc]        # 226430 <_ZL12g_tcs_cookie>
    1554:	48 31 d0             	xor    rax,rdx
    1557:	48 39 45 d8          	cmp    QWORD PTR [rbp-0x28],rax
    155b:	75 1e                	jne    157b <_ZL10do_del_tcsPv+0xc7>
    155d:	48 8b 45 e8          	mov    rax,QWORD PTR [rbp-0x18]
    1561:	48 8b 50 08          	mov    rdx,QWORD PTR [rax+0x8]
    1565:	48 8b 45 f0          	mov    rax,QWORD PTR [rbp-0x10]
    1569:	48 89 50 08          	mov    QWORD PTR [rax+0x8],rdx
    156d:	48 8b 45 e8          	mov    rax,QWORD PTR [rbp-0x18]
    1571:	48 89 c7             	mov    rdi,rax
    1574:	e8 9e 76 00 00       	call   8c17 <dlfree>
    1579:	eb 17                	jmp    1592 <_ZL10do_del_tcsPv+0xde>
    157b:	48 8b 45 e8          	mov    rax,QWORD PTR [rbp-0x18]
    157f:	48 89 45 f0          	mov    QWORD PTR [rbp-0x10],rax
    1583:	48 8b 45 e8          	mov    rax,QWORD PTR [rbp-0x18]
    1587:	48 8b 40 08          	mov    rax,QWORD PTR [rax+0x8]
    158b:	48 89 45 e8          	mov    QWORD PTR [rbp-0x18],rax
    158f:	eb ae                	jmp    153f <_ZL10do_del_tcsPv+0x8b>
    1591:	90                   	nop
    1592:	c9                   	leave  
    1593:	c3                   	ret    

0000000000001594 <_ZL10trts_ecalljPv>:
    1594:	55                   	push   rbp
    1595:	48 89 e5             	mov    rbp,rsp
    1598:	48 83 ec 40          	sub    rsp,0x40
    159c:	89 7d cc             	mov    DWORD PTR [rbp-0x34],edi
    159f:	48 89 75 c0          	mov    QWORD PTR [rbp-0x40],rsi
    15a3:	64 48 8b 04 25 28 00 	mov    rax,QWORD PTR fs:0x28
    15aa:	00 00 
    15ac:	48 89 45 f8          	mov    QWORD PTR [rbp-0x8],rax
    15b0:	31 c0                	xor    eax,eax
    15b2:	c7 45 dc 01 00 00 00 	mov    DWORD PTR [rbp-0x24],0x1
    15b9:	0f b6 05 60 3a 22 00 	movzx  eax,BYTE PTR [rip+0x223a60]        # 225020 <_ZL16g_is_first_ecall>
    15c0:	0f b6 c0             	movzx  eax,al
    15c3:	48 85 c0             	test   rax,rax
    15c6:	0f 95 c0             	setne  al
    15c9:	84 c0                	test   al,al
    15cb:	74 54                	je     1621 <_ZL10trts_ecalljPv+0x8d>
    15cd:	e8 51 e8 01 00       	call   1fe23 <get_thread_data>
    15d2:	48 89 45 e8          	mov    QWORD PTR [rbp-0x18],rax
    15d6:	48 8b 45 e8          	mov    rax,QWORD PTR [rbp-0x18]
    15da:	48 8b 50 08          	mov    rdx,QWORD PTR [rax+0x8]
    15de:	48 8b 45 e8          	mov    rax,QWORD PTR [rbp-0x18]
    15e2:	48 8b 40 10          	mov    rax,QWORD PTR [rax+0x10]
    15e6:	48 39 c2             	cmp    rdx,rax
    15e9:	74 07                	je     15f2 <_ZL10trts_ecalljPv+0x5e>
    15eb:	b8 07 10 00 00       	mov    eax,0x1007
    15f0:	eb 6f                	jmp    1661 <_ZL10trts_ecalljPv+0xcd>
    15f2:	48 8d 3d 3f 4e 22 00 	lea    rdi,[rip+0x224e3f]        # 226438 <_ZL10g_ife_lock>
    15f9:	e8 a9 93 00 00       	call   a9a7 <sgx_spin_lock>
    15fe:	0f b6 05 1b 3a 22 00 	movzx  eax,BYTE PTR [rip+0x223a1b]        # 225020 <_ZL16g_is_first_ecall>
    1605:	84 c0                	test   al,al
    1607:	74 0c                	je     1615 <_ZL10trts_ecalljPv+0x81>
    1609:	e8 fb 2f 00 00       	call   4609 <init_global_object>
    160e:	c6 05 0b 3a 22 00 00 	mov    BYTE PTR [rip+0x223a0b],0x0        # 225020 <_ZL16g_is_first_ecall>
    1615:	48 8d 3d 1c 4e 22 00 	lea    rdi,[rip+0x224e1c]        # 226438 <_ZL10g_ife_lock>
    161c:	e8 ed 93 00 00       	call   aa0e <sgx_spin_unlock>
    1621:	48 c7 45 e0 00 00 00 	mov    QWORD PTR [rbp-0x20],0x0
    1628:	00 
    1629:	48 8d 55 e0          	lea    rdx,[rbp-0x20]
    162d:	8b 45 cc             	mov    eax,DWORD PTR [rbp-0x34]
    1630:	48 89 d6             	mov    rsi,rdx
    1633:	89 c7                	mov    edi,eax
    1635:	e8 63 fc ff ff       	call   129d <_ZL13get_func_addrjPPv>
    163a:	89 45 dc             	mov    DWORD PTR [rbp-0x24],eax
    163d:	83 7d dc 00          	cmp    DWORD PTR [rbp-0x24],0x0
    1641:	75 1b                	jne    165e <_ZL10trts_ecalljPv+0xca>
    1643:	48 8b 45 e0          	mov    rax,QWORD PTR [rbp-0x20]
    1647:	48 89 45 f0          	mov    QWORD PTR [rbp-0x10],rax
    164b:	0f ae e8             	lfence 
    164e:	48 8b 55 c0          	mov    rdx,QWORD PTR [rbp-0x40]
    1652:	48 8b 45 f0          	mov    rax,QWORD PTR [rbp-0x10]
    1656:	48 89 d7             	mov    rdi,rdx
    1659:	ff d0                	call   rax
    165b:	89 45 dc             	mov    DWORD PTR [rbp-0x24],eax
    165e:	8b 45 dc             	mov    eax,DWORD PTR [rbp-0x24]
    1661:	48 8b 4d f8          	mov    rcx,QWORD PTR [rbp-0x8]
    1665:	64 48 33 0c 25 28 00 	xor    rcx,QWORD PTR fs:0x28
    166c:	00 00 
    166e:	74 05                	je     1675 <_ZL10trts_ecalljPv+0xe1>
    1670:	e8 b1 2f 00 00       	call   4626 <__stack_chk_fail>
    1675:	c9                   	leave  
    1676:	c3                   	ret    

0000000000001677 <_ZL24init_static_stack_canaryPv>:
    1677:	55                   	push   rbp
    1678:	48 89 e5             	mov    rbp,rsp
    167b:	48 89 7d e8          	mov    QWORD PTR [rbp-0x18],rdi
    167f:	48 8b 45 e8          	mov    rax,QWORD PTR [rbp-0x18]
    1683:	48 2d a8 02 01 00    	sub    rax,0x102a8
    1689:	48 89 45 f8          	mov    QWORD PTR [rbp-0x8],rax
    168d:	48 8b 15 bc 37 22 00 	mov    rdx,QWORD PTR [rip+0x2237bc]        # 224e50 <__intel_security_cookie>
    1694:	48 8b 45 f8          	mov    rax,QWORD PTR [rbp-0x8]
    1698:	48 89 10             	mov    QWORD PTR [rax],rdx
    169b:	90                   	nop
    169c:	5d                   	pop    rbp
    169d:	c3                   	ret    

000000000000169e <do_init_thread>:
    169e:	55                   	push   rbp
    169f:	48 89 e5             	mov    rbp,rsp
    16a2:	48 83 ec 40          	sub    rsp,0x40
    16a6:	48 89 7d c8          	mov    QWORD PTR [rbp-0x38],rdi
    16aa:	89 f0                	mov    eax,esi
    16ac:	88 45 c4             	mov    BYTE PTR [rbp-0x3c],al
    16af:	64 48 8b 04 25 28 00 	mov    rax,QWORD PTR fs:0x28
    16b6:	00 00 
    16b8:	48 89 45 f8          	mov    QWORD PTR [rbp-0x8],rax
    16bc:	31 c0                	xor    eax,eax
    16be:	48 8b 15 1b 45 22 00 	mov    rdx,QWORD PTR [rip+0x22451b]        # 225be0 <g_global_data+0x20>
    16c5:	48 8b 45 c8          	mov    rax,QWORD PTR [rbp-0x38]
    16c9:	48 01 d0             	add    rax,rdx
    16cc:	48 89 45 e0          	mov    QWORD PTR [rbp-0x20],rax
    16d0:	48 8b 45 e0          	mov    rax,QWORD PTR [rbp-0x20]
    16d4:	48 8b 40 28          	mov    rax,QWORD PTR [rax+0x28]
    16d8:	48 89 45 e8          	mov    QWORD PTR [rbp-0x18],rax
    16dc:	48 8b 45 e0          	mov    rax,QWORD PTR [rbp-0x20]
    16e0:	48 8b 40 30          	mov    rax,QWORD PTR [rax+0x30]
    16e4:	48 89 45 f0          	mov    QWORD PTR [rbp-0x10],rax
    16e8:	48 8b 45 e0          	mov    rax,QWORD PTR [rbp-0x20]
    16ec:	b9 a0 00 00 00       	mov    ecx,0xa0
    16f1:	48 8d 15 e8 44 22 00 	lea    rdx,[rip+0x2244e8]        # 225be0 <g_global_data+0x20>
    16f8:	be 00 10 00 00       	mov    esi,0x1000
    16fd:	48 89 c7             	mov    rdi,rax
    1700:	e8 71 fa ff ff       	call   1176 <memcpy_s>
    1705:	48 8b 45 e0          	mov    rax,QWORD PTR [rbp-0x20]
    1709:	48 8b 50 08          	mov    rdx,QWORD PTR [rax+0x8]
    170d:	48 8b 45 c8          	mov    rax,QWORD PTR [rbp-0x38]
    1711:	48 01 c2             	add    rdx,rax
    1714:	48 8b 45 e0          	mov    rax,QWORD PTR [rbp-0x20]
    1718:	48 89 50 08          	mov    QWORD PTR [rax+0x8],rdx
    171c:	48 8b 45 e0          	mov    rax,QWORD PTR [rbp-0x20]
    1720:	48 8b 10             	mov    rdx,QWORD PTR [rax]
    1723:	48 8b 45 c8          	mov    rax,QWORD PTR [rbp-0x38]
    1727:	48 01 c2             	add    rdx,rax
    172a:	48 8b 45 e0          	mov    rax,QWORD PTR [rbp-0x20]
    172e:	48 89 10             	mov    QWORD PTR [rax],rdx
    1731:	48 8b 45 e0          	mov    rax,QWORD PTR [rbp-0x20]
    1735:	48 8b 50 10          	mov    rdx,QWORD PTR [rax+0x10]
    1739:	48 8b 45 c8          	mov    rax,QWORD PTR [rbp-0x38]
    173d:	48 01 c2             	add    rdx,rax
    1740:	48 8b 45 e0          	mov    rax,QWORD PTR [rbp-0x20]
    1744:	48 89 50 10          	mov    QWORD PTR [rax+0x10],rdx
    1748:	48 8b 45 e0          	mov    rax,QWORD PTR [rbp-0x20]
    174c:	48 8b 50 18          	mov    rdx,QWORD PTR [rax+0x18]
    1750:	48 8b 45 c8          	mov    rax,QWORD PTR [rbp-0x38]
    1754:	48 01 c2             	add    rdx,rax
    1757:	48 8b 45 e0          	mov    rax,QWORD PTR [rbp-0x20]
    175b:	48 89 50 18          	mov    QWORD PTR [rax+0x18],rdx
    175f:	48 8b 45 e0          	mov    rax,QWORD PTR [rbp-0x20]
    1763:	48 8b 50 18          	mov    rdx,QWORD PTR [rax+0x18]
    1767:	48 8b 45 e0          	mov    rax,QWORD PTR [rbp-0x20]
    176b:	48 89 90 98 00 00 00 	mov    QWORD PTR [rax+0x98],rdx
    1772:	48 8b 45 e0          	mov    rax,QWORD PTR [rbp-0x20]
    1776:	48 8b 50 20          	mov    rdx,QWORD PTR [rax+0x20]
    177a:	48 8b 45 c8          	mov    rax,QWORD PTR [rbp-0x38]
    177e:	48 01 c2             	add    rdx,rax
    1781:	48 8b 45 e0          	mov    rax,QWORD PTR [rbp-0x20]
    1785:	48 89 50 20          	mov    QWORD PTR [rax+0x20],rdx
    1789:	48 8b 45 e0          	mov    rax,QWORD PTR [rbp-0x20]
    178d:	48 8b 50 58          	mov    rdx,QWORD PTR [rax+0x58]
    1791:	48 8b 45 c8          	mov    rax,QWORD PTR [rbp-0x38]
    1795:	48 01 c2             	add    rdx,rax
    1798:	48 8b 45 e0          	mov    rax,QWORD PTR [rbp-0x20]
    179c:	48 89 50 58          	mov    QWORD PTR [rax+0x58],rdx
    17a0:	48 8b 45 e0          	mov    rax,QWORD PTR [rbp-0x20]
    17a4:	48 8b 50 50          	mov    rdx,QWORD PTR [rax+0x50]
    17a8:	48 8b 45 c8          	mov    rax,QWORD PTR [rbp-0x38]
    17ac:	48 01 c2             	add    rdx,rax
    17af:	48 8b 45 e0          	mov    rax,QWORD PTR [rbp-0x20]
    17b3:	48 89 50 50          	mov    QWORD PTR [rax+0x50],rdx
    17b7:	48 8b 45 e0          	mov    rax,QWORD PTR [rbp-0x20]
    17bb:	48 8b 40 08          	mov    rax,QWORD PTR [rax+0x8]
    17bf:	48 8d 90 50 fd ff ff 	lea    rdx,[rax-0x2b0]
    17c6:	48 8b 45 e0          	mov    rax,QWORD PTR [rbp-0x20]
    17ca:	48 89 50 08          	mov    QWORD PTR [rax+0x8],rdx
    17ce:	48 8b 45 e0          	mov    rax,QWORD PTR [rbp-0x20]
    17d2:	48 8b 40 10          	mov    rax,QWORD PTR [rax+0x10]
    17d6:	48 8d 90 50 fd ff ff 	lea    rdx,[rax-0x2b0]
    17dd:	48 8b 45 e0          	mov    rax,QWORD PTR [rbp-0x20]
    17e1:	48 89 50 10          	mov    QWORD PTR [rax+0x10],rdx
    17e5:	48 8b 45 e0          	mov    rax,QWORD PTR [rbp-0x20]
    17e9:	48 8b 55 e8          	mov    rdx,QWORD PTR [rbp-0x18]
    17ed:	48 89 50 28          	mov    QWORD PTR [rax+0x28],rdx
    17f1:	48 8b 45 e0          	mov    rax,QWORD PTR [rbp-0x20]
    17f5:	48 8b 55 f0          	mov    rdx,QWORD PTR [rbp-0x10]
    17f9:	48 89 50 30          	mov    QWORD PTR [rax+0x30],rdx
    17fd:	48 8b 45 c8          	mov    rax,QWORD PTR [rbp-0x38]
    1801:	48 89 c7             	mov    rdi,rax
    1804:	e8 6e fe ff ff       	call   1677 <_ZL24init_static_stack_canaryPv>
    1809:	80 7d c4 00          	cmp    BYTE PTR [rbp-0x3c],0x0
    180d:	74 0c                	je     181b <do_init_thread+0x17d>
    180f:	48 8b 45 e0          	mov    rax,QWORD PTR [rbp-0x20]
    1813:	48 c7 40 30 01 00 00 	mov    QWORD PTR [rax+0x30],0x1
    181a:	00 
    181b:	48 c7 45 d0 00 00 00 	mov    QWORD PTR [rbp-0x30],0x0
    1822:	00 
    1823:	48 c7 45 d8 00 00 00 	mov    QWORD PTR [rbp-0x28],0x0
    182a:	00 
    182b:	48 8d 55 d8          	lea    rdx,[rbp-0x28]
    182f:	48 8d 45 d0          	lea    rax,[rbp-0x30]
    1833:	48 89 c6             	mov    rsi,rax
    1836:	48 8d 3d c3 e7 ff ff 	lea    rdi,[rip+0xffffffffffffe7c3]        # 0 <enclave.so>
    183d:	e8 df 27 00 00       	call   4021 <elf_tls_info>
    1842:	85 c0                	test   eax,eax
    1844:	0f 95 c0             	setne  al
    1847:	84 c0                	test   al,al
    1849:	74 0a                	je     1855 <do_init_thread+0x1b7>
    184b:	b8 01 00 00 00       	mov    eax,0x1
    1850:	e9 83 00 00 00       	jmp    18d8 <do_init_thread+0x23a>
    1855:	48 8b 45 d0          	mov    rax,QWORD PTR [rbp-0x30]
    1859:	48 85 c0             	test   rax,rax
    185c:	74 75                	je     18d3 <do_init_thread+0x235>
    185e:	48 8b 45 e0          	mov    rax,QWORD PTR [rbp-0x20]
    1862:	48 8b 10             	mov    rdx,QWORD PTR [rax]
    1865:	48 8b 45 e0          	mov    rax,QWORD PTR [rbp-0x20]
    1869:	48 8b 40 50          	mov    rax,QWORD PTR [rax+0x50]
    186d:	48 29 c2             	sub    rdx,rax
    1870:	48 89 d0             	mov    rax,rdx
    1873:	48 05 ff 0f 00 00    	add    rax,0xfff
    1879:	48 25 00 f0 ff ff    	and    rax,0xfffffffffffff000
    187f:	48 89 c2             	mov    rdx,rax
    1882:	48 8b 45 e0          	mov    rax,QWORD PTR [rbp-0x20]
    1886:	48 8b 40 50          	mov    rax,QWORD PTR [rax+0x50]
    188a:	48 25 00 f0 ff ff    	and    rax,0xfffffffffffff000
    1890:	be 00 00 00 00       	mov    esi,0x0
    1895:	48 89 c7             	mov    rdi,rax
    1898:	e8 a8 8a 00 00       	call   a345 <memset>
    189d:	48 8b 45 d8          	mov    rax,QWORD PTR [rbp-0x28]
    18a1:	48 8b 55 d0          	mov    rdx,QWORD PTR [rbp-0x30]
    18a5:	49 89 d0             	mov    r8,rdx
    18a8:	48 8b 55 e0          	mov    rdx,QWORD PTR [rbp-0x20]
    18ac:	48 8b 0a             	mov    rcx,QWORD PTR [rdx]
    18af:	48 8b 55 e0          	mov    rdx,QWORD PTR [rbp-0x20]
    18b3:	48 8b 52 50          	mov    rdx,QWORD PTR [rdx+0x50]
    18b7:	48 29 d1             	sub    rcx,rdx
    18ba:	48 89 ce             	mov    rsi,rcx
    18bd:	48 8b 55 e0          	mov    rdx,QWORD PTR [rbp-0x20]
    18c1:	48 8b 52 50          	mov    rdx,QWORD PTR [rdx+0x50]
    18c5:	48 89 d7             	mov    rdi,rdx
    18c8:	48 89 c1             	mov    rcx,rax
    18cb:	4c 89 c2             	mov    rdx,r8
    18ce:	e8 a3 f8 ff ff       	call   1176 <memcpy_s>
    18d3:	b8 00 00 00 00       	mov    eax,0x0
    18d8:	48 8b 4d f8          	mov    rcx,QWORD PTR [rbp-0x8]
    18dc:	64 48 33 0c 25 28 00 	xor    rcx,QWORD PTR fs:0x28
    18e3:	00 00 
    18e5:	74 05                	je     18ec <do_init_thread+0x24e>
    18e7:	e8 3a 2d 00 00       	call   4626 <__stack_chk_fail>
    18ec:	c9                   	leave  
    18ed:	c3                   	ret    

00000000000018ee <do_ecall>:
    18ee:	55                   	push   rbp
    18ef:	48 89 e5             	mov    rbp,rsp
    18f2:	48 83 ec 30          	sub    rsp,0x30
    18f6:	89 7d ec             	mov    DWORD PTR [rbp-0x14],edi
    18f9:	48 89 75 e0          	mov    QWORD PTR [rbp-0x20],rsi
    18fd:	48 89 55 d8          	mov    QWORD PTR [rbp-0x28],rdx
    1901:	c7 45 f4 01 00 00 00 	mov    DWORD PTR [rbp-0xc],0x1
    1908:	e8 e3 e4 01 00       	call   1fdf0 <get_enclave_state>
    190d:	83 f8 02             	cmp    eax,0x2
    1910:	0f 95 c0             	setne  al
    1913:	84 c0                	test   al,al
    1915:	74 08                	je     191f <do_ecall+0x31>
    1917:	8b 45 f4             	mov    eax,DWORD PTR [rbp-0xc]
    191a:	e9 ae 00 00 00       	jmp    19cd <do_ecall+0xdf>
    191f:	e8 ff e4 01 00       	call   1fe23 <get_thread_data>
    1924:	48 89 45 f8          	mov    QWORD PTR [rbp-0x8],rax
    1928:	48 83 7d f8 00       	cmp    QWORD PTR [rbp-0x8],0x0
    192d:	74 21                	je     1950 <do_ecall+0x62>
    192f:	48 8b 45 f8          	mov    rax,QWORD PTR [rbp-0x8]
    1933:	48 8b 50 10          	mov    rdx,QWORD PTR [rax+0x10]
    1937:	48 8b 45 f8          	mov    rax,QWORD PTR [rbp-0x8]
    193b:	48 8b 40 08          	mov    rax,QWORD PTR [rax+0x8]
    193f:	48 39 c2             	cmp    rdx,rax
    1942:	75 13                	jne    1957 <do_ecall+0x69>
    1944:	48 8b 05 8d 42 22 00 	mov    rax,QWORD PTR [rip+0x22428d]        # 225bd8 <g_global_data+0x18>
    194b:	48 85 c0             	test   rax,rax
    194e:	74 07                	je     1957 <do_ecall+0x69>
    1950:	b8 01 00 00 00       	mov    eax,0x1
    1955:	eb 05                	jmp    195c <do_ecall+0x6e>
    1957:	b8 00 00 00 00       	mov    eax,0x0
    195c:	84 c0                	test   al,al
    195e:	74 1f                	je     197f <do_ecall+0x91>
    1960:	48 8b 45 d8          	mov    rax,QWORD PTR [rbp-0x28]
    1964:	be 00 00 00 00       	mov    esi,0x0
    1969:	48 89 c7             	mov    rdi,rax
    196c:	e8 2d fd ff ff       	call   169e <do_init_thread>
    1971:	89 45 f4             	mov    DWORD PTR [rbp-0xc],eax
    1974:	83 7d f4 00          	cmp    DWORD PTR [rbp-0xc],0x0
    1978:	74 05                	je     197f <do_ecall+0x91>
    197a:	8b 45 f4             	mov    eax,DWORD PTR [rbp-0xc]
    197d:	eb 4e                	jmp    19cd <do_ecall+0xdf>
    197f:	e8 9f e4 01 00       	call   1fe23 <get_thread_data>
    1984:	48 89 45 f8          	mov    QWORD PTR [rbp-0x8],rax
    1988:	48 8b 45 f8          	mov    rax,QWORD PTR [rbp-0x8]
    198c:	48 8b 50 10          	mov    rdx,QWORD PTR [rax+0x10]
    1990:	48 8b 45 f8          	mov    rax,QWORD PTR [rbp-0x8]
    1994:	48 8b 40 08          	mov    rax,QWORD PTR [rax+0x8]
    1998:	48 39 c2             	cmp    rdx,rax
    199b:	75 19                	jne    19b6 <do_ecall+0xc8>
    199d:	48 8d 55 e0          	lea    rdx,[rbp-0x20]
    19a1:	48 8d 45 ec          	lea    rax,[rbp-0x14]
    19a5:	48 89 c6             	mov    rsi,rax
    19a8:	48 8d 3d e5 fb ff ff 	lea    rdi,[rip+0xfffffffffffffbe5]        # 1594 <_ZL10trts_ecalljPv>
    19af:	e8 ee 01 00 00       	call   1ba2 <_Z20random_stack_advanceILj2048E9_status_tJjPvEJRiRS1_EET0_PFS4_DpT1_EDpOT2_>
    19b4:	eb 11                	jmp    19c7 <do_ecall+0xd9>
    19b6:	48 8b 45 e0          	mov    rax,QWORD PTR [rbp-0x20]
    19ba:	8b 55 ec             	mov    edx,DWORD PTR [rbp-0x14]
    19bd:	48 89 c6             	mov    rsi,rax
    19c0:	89 d7                	mov    edi,edx
    19c2:	e8 cd fb ff ff       	call   1594 <_ZL10trts_ecalljPv>
    19c7:	89 45 f4             	mov    DWORD PTR [rbp-0xc],eax
    19ca:	8b 45 f4             	mov    eax,DWORD PTR [rbp-0xc]
    19cd:	c9                   	leave  
    19ce:	c3                   	ret    

00000000000019cf <do_ecall_add_thread>:
    19cf:	55                   	push   rbp
    19d0:	48 89 e5             	mov    rbp,rsp
    19d3:	48 83 ec 30          	sub    rsp,0x30
    19d7:	48 89 7d d8          	mov    QWORD PTR [rbp-0x28],rdi
    19db:	c7 45 e4 01 00 00 00 	mov    DWORD PTR [rbp-0x1c],0x1
    19e2:	e8 a0 f9 ff ff       	call   1387 <_ZL17is_utility_threadv>
    19e7:	83 f0 01             	xor    eax,0x1
    19ea:	84 c0                	test   al,al
    19ec:	74 08                	je     19f6 <do_ecall_add_thread+0x27>
    19ee:	8b 45 e4             	mov    eax,DWORD PTR [rbp-0x1c]
    19f1:	e9 9b 00 00 00       	jmp    1a91 <do_ecall_add_thread+0xc2>
    19f6:	48 8b 45 d8          	mov    rax,QWORD PTR [rbp-0x28]
    19fa:	48 89 45 f0          	mov    QWORD PTR [rbp-0x10],rax
    19fe:	48 83 7d f0 00       	cmp    QWORD PTR [rbp-0x10],0x0
    1a03:	75 08                	jne    1a0d <do_ecall_add_thread+0x3e>
    1a05:	8b 45 e4             	mov    eax,DWORD PTR [rbp-0x1c]
    1a08:	e9 84 00 00 00       	jmp    1a91 <do_ecall_add_thread+0xc2>
    1a0d:	48 8b 45 f0          	mov    rax,QWORD PTR [rbp-0x10]
    1a11:	be 08 00 00 00       	mov    esi,0x8
    1a16:	48 89 c7             	mov    rdi,rax
    1a19:	e8 4a f3 ff ff       	call   d68 <sgx_is_outside_enclave>
    1a1e:	85 c0                	test   eax,eax
    1a20:	0f 94 c0             	sete   al
    1a23:	84 c0                	test   al,al
    1a25:	74 05                	je     1a2c <do_ecall_add_thread+0x5d>
    1a27:	8b 45 e4             	mov    eax,DWORD PTR [rbp-0x1c]
    1a2a:	eb 65                	jmp    1a91 <do_ecall_add_thread+0xc2>
    1a2c:	48 8b 45 f0          	mov    rax,QWORD PTR [rbp-0x10]
    1a30:	48 8b 00             	mov    rax,QWORD PTR [rax]
    1a33:	48 89 45 e8          	mov    QWORD PTR [rbp-0x18],rax
    1a37:	48 8b 45 e8          	mov    rax,QWORD PTR [rbp-0x18]
    1a3b:	48 89 45 f8          	mov    QWORD PTR [rbp-0x8],rax
    1a3f:	48 83 7d f8 00       	cmp    QWORD PTR [rbp-0x8],0x0
    1a44:	75 05                	jne    1a4b <do_ecall_add_thread+0x7c>
    1a46:	8b 45 e4             	mov    eax,DWORD PTR [rbp-0x1c]
    1a49:	eb 46                	jmp    1a91 <do_ecall_add_thread+0xc2>
    1a4b:	0f ae e8             	lfence 
    1a4e:	48 8b 45 f8          	mov    rax,QWORD PTR [rbp-0x8]
    1a52:	48 89 c7             	mov    rdi,rax
    1a55:	e8 63 f9 ff ff       	call   13bd <_ZL11do_save_tcsPv>
    1a5a:	89 45 e4             	mov    DWORD PTR [rbp-0x1c],eax
    1a5d:	83 7d e4 00          	cmp    DWORD PTR [rbp-0x1c],0x0
    1a61:	74 05                	je     1a68 <do_ecall_add_thread+0x99>
    1a63:	8b 45 e4             	mov    eax,DWORD PTR [rbp-0x1c]
    1a66:	eb 29                	jmp    1a91 <do_ecall_add_thread+0xc2>
    1a68:	48 8b 45 f8          	mov    rax,QWORD PTR [rbp-0x8]
    1a6c:	48 89 c7             	mov    rdi,rax
    1a6f:	e8 6e 10 00 00       	call   2ae2 <do_add_thread>
    1a74:	89 45 e4             	mov    DWORD PTR [rbp-0x1c],eax
    1a77:	83 7d e4 00          	cmp    DWORD PTR [rbp-0x1c],0x0
    1a7b:	74 11                	je     1a8e <do_ecall_add_thread+0xbf>
    1a7d:	48 8b 45 f8          	mov    rax,QWORD PTR [rbp-0x8]
    1a81:	48 89 c7             	mov    rdi,rax
    1a84:	e8 2b fa ff ff       	call   14b4 <_ZL10do_del_tcsPv>
    1a89:	8b 45 e4             	mov    eax,DWORD PTR [rbp-0x1c]
    1a8c:	eb 03                	jmp    1a91 <do_ecall_add_thread+0xc2>
    1a8e:	8b 45 e4             	mov    eax,DWORD PTR [rbp-0x1c]
    1a91:	c9                   	leave  
    1a92:	c3                   	ret    

0000000000001a93 <do_uninit_enclave>:
    1a93:	55                   	push   rbp
    1a94:	48 89 e5             	mov    rbp,rsp
    1a97:	48 83 ec 40          	sub    rsp,0x40
    1a9b:	48 89 7d c8          	mov    QWORD PTR [rbp-0x38],rdi
    1a9f:	48 8b 05 82 49 22 00 	mov    rax,QWORD PTR [rip+0x224982]        # 226428 <_ZL10g_tcs_node>
    1aa6:	48 89 45 d8          	mov    QWORD PTR [rbp-0x28],rax
    1aaa:	48 c7 05 73 49 22 00 	mov    QWORD PTR [rip+0x224973],0x0        # 226428 <_ZL10g_tcs_node>
    1ab1:	00 00 00 00 
    1ab5:	48 83 7d d8 00       	cmp    QWORD PTR [rbp-0x28],0x0
    1aba:	0f 84 a6 00 00 00    	je     1b66 <do_uninit_enclave+0xd3>
    1ac0:	48 8b 45 d8          	mov    rax,QWORD PTR [rbp-0x28]
    1ac4:	48 8b 10             	mov    rdx,QWORD PTR [rax]
    1ac7:	48 8b 05 62 49 22 00 	mov    rax,QWORD PTR [rip+0x224962]        # 226430 <_ZL12g_tcs_cookie>
    1ace:	48 31 d0             	xor    rax,rdx
    1ad1:	48 39 45 c8          	cmp    QWORD PTR [rbp-0x38],rax
    1ad5:	75 22                	jne    1af9 <do_uninit_enclave+0x66>
    1ad7:	48 8b 45 d8          	mov    rax,QWORD PTR [rbp-0x28]
    1adb:	48 89 45 f8          	mov    QWORD PTR [rbp-0x8],rax
    1adf:	48 8b 45 d8          	mov    rax,QWORD PTR [rbp-0x28]
    1ae3:	48 8b 40 08          	mov    rax,QWORD PTR [rax+0x8]
    1ae7:	48 89 45 d8          	mov    QWORD PTR [rbp-0x28],rax
    1aeb:	48 8b 45 f8          	mov    rax,QWORD PTR [rbp-0x8]
    1aef:	48 89 c7             	mov    rdi,rax
    1af2:	e8 20 71 00 00       	call   8c17 <dlfree>
    1af7:	eb 68                	jmp    1b61 <do_uninit_enclave+0xce>
    1af9:	48 8b 45 d8          	mov    rax,QWORD PTR [rbp-0x28]
    1afd:	48 8b 10             	mov    rdx,QWORD PTR [rax]
    1b00:	48 8b 05 29 49 22 00 	mov    rax,QWORD PTR [rip+0x224929]        # 226430 <_ZL12g_tcs_cookie>
    1b07:	48 31 d0             	xor    rax,rdx
    1b0a:	48 89 45 e0          	mov    QWORD PTR [rbp-0x20],rax
    1b0e:	48 8b 45 e0          	mov    rax,QWORD PTR [rbp-0x20]
    1b12:	48 05 00 10 00 00    	add    rax,0x1000
    1b18:	48 89 45 e8          	mov    QWORD PTR [rbp-0x18],rax
    1b1c:	48 8b 55 e8          	mov    rdx,QWORD PTR [rbp-0x18]
    1b20:	48 8b 45 e0          	mov    rax,QWORD PTR [rbp-0x20]
    1b24:	48 89 c6             	mov    rsi,rax
    1b27:	bf 10 04 00 00       	mov    edi,0x410
    1b2c:	e8 61 0f 00 00       	call   2a92 <sgx_accept_forward>
    1b31:	89 45 d4             	mov    DWORD PTR [rbp-0x2c],eax
    1b34:	83 7d d4 00          	cmp    DWORD PTR [rbp-0x2c],0x0
    1b38:	74 07                	je     1b41 <do_uninit_enclave+0xae>
    1b3a:	b8 01 00 00 00       	mov    eax,0x1
    1b3f:	eb 5f                	jmp    1ba0 <do_uninit_enclave+0x10d>
    1b41:	48 8b 45 d8          	mov    rax,QWORD PTR [rbp-0x28]
    1b45:	48 89 45 f0          	mov    QWORD PTR [rbp-0x10],rax
    1b49:	48 8b 45 d8          	mov    rax,QWORD PTR [rbp-0x28]
    1b4d:	48 8b 40 08          	mov    rax,QWORD PTR [rax+0x8]
    1b51:	48 89 45 d8          	mov    QWORD PTR [rbp-0x28],rax
    1b55:	48 8b 45 f0          	mov    rax,QWORD PTR [rbp-0x10]
    1b59:	48 89 c7             	mov    rdi,rax
    1b5c:	e8 b6 70 00 00       	call   8c17 <dlfree>
    1b61:	e9 4f ff ff ff       	jmp    1ab5 <do_uninit_enclave+0x22>
    1b66:	48 8d 3d cb 48 22 00 	lea    rdi,[rip+0x2248cb]        # 226438 <_ZL10g_ife_lock>
    1b6d:	e8 35 8e 00 00       	call   a9a7 <sgx_spin_lock>
    1b72:	0f b6 05 a7 34 22 00 	movzx  eax,BYTE PTR [rip+0x2234a7]        # 225020 <_ZL16g_is_first_ecall>
    1b79:	83 f0 01             	xor    eax,0x1
    1b7c:	84 c0                	test   al,al
    1b7e:	74 05                	je     1b85 <do_uninit_enclave+0xf2>
    1b80:	e8 90 2a 00 00       	call   4615 <uninit_global_object>
    1b85:	48 8d 3d ac 48 22 00 	lea    rdi,[rip+0x2248ac]        # 226438 <_ZL10g_ife_lock>
    1b8c:	e8 7d 8e 00 00       	call   aa0e <sgx_spin_unlock>
    1b91:	bf 03 00 00 00       	mov    edi,0x3
    1b96:	e8 62 e2 01 00       	call   1fdfd <set_enclave_state>
    1b9b:	b8 00 00 00 00       	mov    eax,0x0
    1ba0:	c9                   	leave  
    1ba1:	c3                   	ret    

0000000000001ba2 <_Z20random_stack_advanceILj2048E9_status_tJjPvEJRiRS1_EET0_PFS4_DpT1_EDpOT2_>:
    1ba2:	55                   	push   rbp
    1ba3:	48 89 e5             	mov    rbp,rsp
    1ba6:	41 57                	push   r15
    1ba8:	41 56                	push   r14
    1baa:	41 55                	push   r13
    1bac:	41 54                	push   r12
    1bae:	53                   	push   rbx
    1baf:	48 83 ec 58          	sub    rsp,0x58
    1bb3:	48 89 7d 98          	mov    QWORD PTR [rbp-0x68],rdi
    1bb7:	48 89 75 90          	mov    QWORD PTR [rbp-0x70],rsi
    1bbb:	48 89 55 88          	mov    QWORD PTR [rbp-0x78],rdx
    1bbf:	64 48 8b 04 25 28 00 	mov    rax,QWORD PTR fs:0x28
    1bc6:	00 00 
    1bc8:	48 89 45 c8          	mov    QWORD PTR [rbp-0x38],rax
    1bcc:	31 c0                	xor    eax,eax
    1bce:	48 89 e0             	mov    rax,rsp
    1bd1:	48 89 c3             	mov    rbx,rax
    1bd4:	e8 ce 00 00 00       	call   1ca7 <_Z6rdrandIjET_v>
    1bd9:	25 ff 07 00 00       	and    eax,0x7ff
    1bde:	83 c0 01             	add    eax,0x1
    1be1:	89 45 a4             	mov    DWORD PTR [rbp-0x5c],eax
    1be4:	8b 45 a4             	mov    eax,DWORD PTR [rbp-0x5c]
    1be7:	48 83 e8 01          	sub    rax,0x1
    1beb:	48 89 45 a8          	mov    QWORD PTR [rbp-0x58],rax
    1bef:	48 89 c2             	mov    rdx,rax
    1bf2:	48 83 c2 01          	add    rdx,0x1
    1bf6:	49 89 d6             	mov    r14,rdx
    1bf9:	41 bf 00 00 00 00    	mov    r15d,0x0
    1bff:	48 89 c2             	mov    rdx,rax
    1c02:	48 83 c2 01          	add    rdx,0x1
    1c06:	49 89 d4             	mov    r12,rdx
    1c09:	41 bd 00 00 00 00    	mov    r13d,0x0
    1c0f:	48 8d 50 01          	lea    rdx,[rax+0x1]
    1c13:	b8 10 00 00 00       	mov    eax,0x10
    1c18:	48 83 e8 01          	sub    rax,0x1
    1c1c:	48 01 d0             	add    rax,rdx
    1c1f:	b9 10 00 00 00       	mov    ecx,0x10
    1c24:	ba 00 00 00 00       	mov    edx,0x0
    1c29:	48 f7 f1             	div    rcx
    1c2c:	48 6b c0 10          	imul   rax,rax,0x10
    1c30:	48 29 c4             	sub    rsp,rax
    1c33:	48 89 e0             	mov    rax,rsp
    1c36:	48 83 c0 00          	add    rax,0x0
    1c3a:	48 89 45 b0          	mov    QWORD PTR [rbp-0x50],rax
    1c3e:	8b 05 04 32 22 00    	mov    eax,DWORD PTR [rip+0x223204]        # 224e48 <EDMM_supported>
    1c44:	85 c0                	test   eax,eax
    1c46:	75 12                	jne    1c5a <_Z20random_stack_advanceILj2048E9_status_tJjPvEJRiRS1_EET0_PFS4_DpT1_EDpOT2_+0xb8>
    1c48:	8b 55 a4             	mov    edx,DWORD PTR [rbp-0x5c]
    1c4b:	48 8b 45 b0          	mov    rax,QWORD PTR [rbp-0x50]
    1c4f:	48 89 d6             	mov    rsi,rdx
    1c52:	48 89 c7             	mov    rdi,rax
    1c55:	e8 0d f5 ff ff       	call   1167 <random_stack_notify_gdb>
    1c5a:	48 8b 45 88          	mov    rax,QWORD PTR [rbp-0x78]
    1c5e:	48 89 45 c0          	mov    QWORD PTR [rbp-0x40],rax
    1c62:	48 8b 55 c0          	mov    rdx,QWORD PTR [rbp-0x40]
    1c66:	48 8b 45 90          	mov    rax,QWORD PTR [rbp-0x70]
    1c6a:	48 89 45 b8          	mov    QWORD PTR [rbp-0x48],rax
    1c6e:	48 8b 4d b8          	mov    rcx,QWORD PTR [rbp-0x48]
    1c72:	48 8b 45 98          	mov    rax,QWORD PTR [rbp-0x68]
    1c76:	48 89 ce             	mov    rsi,rcx
    1c79:	48 89 c7             	mov    rdi,rax
    1c7c:	e8 35 00 00 00       	call   1cb6 <_Z30_random_stack_noinline_wrapperI9_status_tJjPvEJRiRS1_EET_PFS4_DpT0_EDpOT1_>
    1c81:	48 89 dc             	mov    rsp,rbx
    1c84:	48 8b 4d c8          	mov    rcx,QWORD PTR [rbp-0x38]
    1c88:	64 48 33 0c 25 28 00 	xor    rcx,QWORD PTR fs:0x28
    1c8f:	00 00 
    1c91:	74 05                	je     1c98 <_Z20random_stack_advanceILj2048E9_status_tJjPvEJRiRS1_EET0_PFS4_DpT1_EDpOT2_+0xf6>
    1c93:	e8 8e 29 00 00       	call   4626 <__stack_chk_fail>
    1c98:	48 8d 65 d8          	lea    rsp,[rbp-0x28]
    1c9c:	5b                   	pop    rbx
    1c9d:	41 5c                	pop    r12
    1c9f:	41 5d                	pop    r13
    1ca1:	41 5e                	pop    r14
    1ca3:	41 5f                	pop    r15
    1ca5:	5d                   	pop    rbp
    1ca6:	c3                   	ret    

0000000000001ca7 <_Z6rdrandIjET_v>:
    1ca7:	55                   	push   rbp
    1ca8:	48 89 e5             	mov    rbp,rsp
    1cab:	0f c7 f0             	rdrand eax
    1cae:	89 45 fc             	mov    DWORD PTR [rbp-0x4],eax
    1cb1:	8b 45 fc             	mov    eax,DWORD PTR [rbp-0x4]
    1cb4:	5d                   	pop    rbp
    1cb5:	c3                   	ret    

0000000000001cb6 <_Z30_random_stack_noinline_wrapperI9_status_tJjPvEJRiRS1_EET_PFS4_DpT0_EDpOT1_>:
    1cb6:	55                   	push   rbp
    1cb7:	48 89 e5             	mov    rbp,rsp
    1cba:	48 83 ec 30          	sub    rsp,0x30
    1cbe:	48 89 7d e8          	mov    QWORD PTR [rbp-0x18],rdi
    1cc2:	48 89 75 e0          	mov    QWORD PTR [rbp-0x20],rsi
    1cc6:	48 89 55 d8          	mov    QWORD PTR [rbp-0x28],rdx
    1cca:	48 8b 45 d8          	mov    rax,QWORD PTR [rbp-0x28]
    1cce:	48 89 45 f8          	mov    QWORD PTR [rbp-0x8],rax
    1cd2:	48 8b 45 f8          	mov    rax,QWORD PTR [rbp-0x8]
    1cd6:	48 8b 10             	mov    rdx,QWORD PTR [rax]
    1cd9:	48 8b 45 e0          	mov    rax,QWORD PTR [rbp-0x20]
    1cdd:	48 89 45 f0          	mov    QWORD PTR [rbp-0x10],rax
    1ce1:	48 8b 45 f0          	mov    rax,QWORD PTR [rbp-0x10]
    1ce5:	8b 00                	mov    eax,DWORD PTR [rax]
    1ce7:	89 c1                	mov    ecx,eax
    1ce9:	48 8b 45 e8          	mov    rax,QWORD PTR [rbp-0x18]
    1ced:	48 89 d6             	mov    rsi,rdx
    1cf0:	89 cf                	mov    edi,ecx
    1cf2:	ff d0                	call   rax
    1cf4:	c9                   	leave  
    1cf5:	c3                   	ret    

0000000000001cf6 <sgx_ocall>:
    1cf6:	55                   	push   rbp
    1cf7:	48 89 e5             	mov    rbp,rsp
    1cfa:	48 83 ec 20          	sub    rsp,0x20
    1cfe:	89 7d ec             	mov    DWORD PTR [rbp-0x14],edi
    1d01:	48 89 75 e0          	mov    QWORD PTR [rbp-0x20],rsi
    1d05:	e8 19 e1 01 00       	call   1fe23 <get_thread_data>
    1d0a:	48 89 45 f8          	mov    QWORD PTR [rbp-0x8],rax
    1d0e:	48 8b 45 f8          	mov    rax,QWORD PTR [rbp-0x8]
    1d12:	48 8b 40 60          	mov    rax,QWORD PTR [rax+0x60]
    1d16:	48 85 c0             	test   rax,rax
    1d19:	74 07                	je     1d22 <sgx_ocall+0x2c>
    1d1b:	b8 08 10 00 00       	mov    eax,0x1008
    1d20:	eb 43                	jmp    1d65 <sgx_ocall+0x6f>
    1d22:	83 7d ec 00          	cmp    DWORD PTR [rbp-0x14],0x0
    1d26:	74 26                	je     1d4e <sgx_ocall+0x58>
    1d28:	8b 45 ec             	mov    eax,DWORD PTR [rbp-0x14]
    1d2b:	83 f8 fb             	cmp    eax,0xfffffffb
    1d2e:	7c 08                	jl     1d38 <sgx_ocall+0x42>
    1d30:	8b 45 ec             	mov    eax,DWORD PTR [rbp-0x14]
    1d33:	83 f8 ff             	cmp    eax,0xffffffff
    1d36:	7c 16                	jl     1d4e <sgx_ocall+0x58>
    1d38:	8b 55 ec             	mov    edx,DWORD PTR [rbp-0x14]
    1d3b:	48 8b 05 be e5 01 00 	mov    rax,QWORD PTR [rip+0x1e5be]        # 20300 <g_dyn_entry_table>
    1d42:	48 39 c2             	cmp    rdx,rax
    1d45:	72 07                	jb     1d4e <sgx_ocall+0x58>
    1d47:	b8 01 10 00 00       	mov    eax,0x1001
    1d4c:	eb 17                	jmp    1d65 <sgx_ocall+0x6f>
    1d4e:	48 8b 55 e0          	mov    rdx,QWORD PTR [rbp-0x20]
    1d52:	8b 45 ec             	mov    eax,DWORD PTR [rbp-0x14]
    1d55:	48 89 d6             	mov    rsi,rdx
    1d58:	89 c7                	mov    edi,eax
    1d5a:	e8 25 e3 01 00       	call   20084 <__morestack>
    1d5f:	89 45 f4             	mov    DWORD PTR [rbp-0xc],eax
    1d62:	8b 45 f4             	mov    eax,DWORD PTR [rbp-0xc]
    1d65:	c9                   	leave  
    1d66:	c3                   	ret    

0000000000001d67 <update_ocall_lastsp>:
    1d67:	55                   	push   rbp
    1d68:	48 89 e5             	mov    rbp,rsp
    1d6b:	48 83 ec 30          	sub    rsp,0x30
    1d6f:	48 89 7d d8          	mov    QWORD PTR [rbp-0x28],rdi
    1d73:	e8 ab e0 01 00       	call   1fe23 <get_thread_data>
    1d78:	48 89 45 e8          	mov    QWORD PTR [rbp-0x18],rax
    1d7c:	48 c7 45 f0 00 00 00 	mov    QWORD PTR [rbp-0x10],0x0
    1d83:	00 
    1d84:	48 8b 45 e8          	mov    rax,QWORD PTR [rbp-0x18]
    1d88:	48 8b 40 08          	mov    rax,QWORD PTR [rax+0x8]
    1d8c:	48 89 45 f0          	mov    QWORD PTR [rbp-0x10],rax
    1d90:	48 8b 45 d8          	mov    rax,QWORD PTR [rbp-0x28]
    1d94:	48 8b 55 f0          	mov    rdx,QWORD PTR [rbp-0x10]
    1d98:	48 89 50 30          	mov    QWORD PTR [rax+0x30],rdx
    1d9c:	48 8b 45 d8          	mov    rax,QWORD PTR [rbp-0x28]
    1da0:	48 8b 50 30          	mov    rdx,QWORD PTR [rax+0x30]
    1da4:	48 8b 45 e8          	mov    rax,QWORD PTR [rbp-0x18]
    1da8:	48 8b 40 10          	mov    rax,QWORD PTR [rax+0x10]
    1dac:	48 39 c2             	cmp    rdx,rax
    1daf:	75 11                	jne    1dc2 <update_ocall_lastsp+0x5b>
    1db1:	48 8b 45 d8          	mov    rax,QWORD PTR [rbp-0x28]
    1db5:	48 c7 80 90 00 00 00 	mov    QWORD PTR [rax+0x90],0x1
    1dbc:	01 00 00 00 
    1dc0:	eb 26                	jmp    1de8 <update_ocall_lastsp+0x81>
    1dc2:	48 8b 45 d8          	mov    rax,QWORD PTR [rbp-0x28]
    1dc6:	48 8b 40 30          	mov    rax,QWORD PTR [rax+0x30]
    1dca:	48 89 45 f8          	mov    QWORD PTR [rbp-0x8],rax
    1dce:	48 8b 45 f8          	mov    rax,QWORD PTR [rbp-0x8]
    1dd2:	48 8b 80 90 00 00 00 	mov    rax,QWORD PTR [rax+0x90]
    1dd9:	48 8d 50 01          	lea    rdx,[rax+0x1]
    1ddd:	48 8b 45 d8          	mov    rax,QWORD PTR [rbp-0x28]
    1de1:	48 89 90 90 00 00 00 	mov    QWORD PTR [rax+0x90],rdx
    1de8:	48 8b 55 d8          	mov    rdx,QWORD PTR [rbp-0x28]
    1dec:	48 8b 45 e8          	mov    rax,QWORD PTR [rbp-0x18]
    1df0:	48 89 50 08          	mov    QWORD PTR [rax+0x8],rdx
    1df4:	48 8b 45 f0          	mov    rax,QWORD PTR [rbp-0x10]
    1df8:	c9                   	leave  
    1df9:	c3                   	ret    

0000000000001dfa <do_oret>:
    1dfa:	55                   	push   rbp
    1dfb:	48 89 e5             	mov    rbp,rsp
    1dfe:	48 83 ec 30          	sub    rsp,0x30
    1e02:	48 89 7d d8          	mov    QWORD PTR [rbp-0x28],rdi
    1e06:	64 48 8b 04 25 28 00 	mov    rax,QWORD PTR fs:0x28
    1e0d:	00 00 
    1e0f:	48 89 45 f8          	mov    QWORD PTR [rbp-0x8],rax
    1e13:	31 c0                	xor    eax,eax
    1e15:	e8 09 e0 01 00       	call   1fe23 <get_thread_data>
    1e1a:	48 89 45 e8          	mov    QWORD PTR [rbp-0x18],rax
    1e1e:	48 8b 45 e8          	mov    rax,QWORD PTR [rbp-0x18]
    1e22:	48 8b 40 08          	mov    rax,QWORD PTR [rax+0x8]
    1e26:	48 89 45 f0          	mov    QWORD PTR [rbp-0x10],rax
    1e2a:	48 8b 45 e8          	mov    rax,QWORD PTR [rbp-0x18]
    1e2e:	48 8b 40 08          	mov    rax,QWORD PTR [rax+0x8]
    1e32:	48 89 45 e0          	mov    QWORD PTR [rbp-0x20],rax
    1e36:	48 83 7d f0 00       	cmp    QWORD PTR [rbp-0x10],0x0
    1e3b:	74 0a                	je     1e47 <do_oret+0x4d>
    1e3d:	48 8d 45 e0          	lea    rax,[rbp-0x20]
    1e41:	48 39 45 f0          	cmp    QWORD PTR [rbp-0x10],rax
    1e45:	77 0a                	ja     1e51 <do_oret+0x57>
    1e47:	b8 01 00 00 00       	mov    eax,0x1
    1e4c:	e9 87 00 00 00       	jmp    1ed8 <do_oret+0xde>
    1e51:	48 8b 45 e8          	mov    rax,QWORD PTR [rbp-0x18]
    1e55:	48 8b 40 10          	mov    rax,QWORD PTR [rax+0x10]
    1e59:	48 2d f0 00 00 00    	sub    rax,0xf0
    1e5f:	48 39 45 f0          	cmp    QWORD PTR [rbp-0x10],rax
    1e63:	76 07                	jbe    1e6c <do_oret+0x72>
    1e65:	b8 01 00 00 00       	mov    eax,0x1
    1e6a:	eb 6c                	jmp    1ed8 <do_oret+0xde>
    1e6c:	48 8b 45 e0          	mov    rax,QWORD PTR [rbp-0x20]
    1e70:	48 8b 40 20          	mov    rax,QWORD PTR [rax+0x20]
    1e74:	48 3d 44 49 43 4f    	cmp    rax,0x4f434944
    1e7a:	74 07                	je     1e83 <do_oret+0x89>
    1e7c:	b8 01 00 00 00       	mov    eax,0x1
    1e81:	eb 55                	jmp    1ed8 <do_oret+0xde>
    1e83:	48 8b 45 e0          	mov    rax,QWORD PTR [rbp-0x20]
    1e87:	48 8b 50 30          	mov    rdx,QWORD PTR [rax+0x30]
    1e8b:	48 8b 45 e8          	mov    rax,QWORD PTR [rbp-0x18]
    1e8f:	48 8b 40 10          	mov    rax,QWORD PTR [rax+0x10]
    1e93:	48 39 c2             	cmp    rdx,rax
    1e96:	77 11                	ja     1ea9 <do_oret+0xaf>
    1e98:	48 8b 45 e0          	mov    rax,QWORD PTR [rbp-0x20]
    1e9c:	48 8b 40 30          	mov    rax,QWORD PTR [rax+0x30]
    1ea0:	48 8b 55 e0          	mov    rdx,QWORD PTR [rbp-0x20]
    1ea4:	48 39 d0             	cmp    rax,rdx
    1ea7:	77 07                	ja     1eb0 <do_oret+0xb6>
    1ea9:	b8 01 00 00 00       	mov    eax,0x1
    1eae:	eb 28                	jmp    1ed8 <do_oret+0xde>
    1eb0:	48 8b 45 e0          	mov    rax,QWORD PTR [rbp-0x20]
    1eb4:	48 8b 50 30          	mov    rdx,QWORD PTR [rax+0x30]
    1eb8:	48 8b 45 e8          	mov    rax,QWORD PTR [rbp-0x18]
    1ebc:	48 89 50 08          	mov    QWORD PTR [rax+0x8],rdx
    1ec0:	48 8b 55 d8          	mov    rdx,QWORD PTR [rbp-0x28]
    1ec4:	48 8b 45 f0          	mov    rax,QWORD PTR [rbp-0x10]
    1ec8:	48 89 d6             	mov    rsi,rdx
    1ecb:	48 89 c7             	mov    rdi,rax
    1ece:	e8 c0 e1 01 00       	call   20093 <asm_oret>
    1ed3:	b8 01 00 00 00       	mov    eax,0x1
    1ed8:	48 8b 4d f8          	mov    rcx,QWORD PTR [rbp-0x8]
    1edc:	64 48 33 0c 25 28 00 	xor    rcx,QWORD PTR fs:0x28
    1ee3:	00 00 
    1ee5:	74 05                	je     1eec <do_oret+0xf2>
    1ee7:	e8 3a 27 00 00       	call   4626 <__stack_chk_fail>
    1eec:	c9                   	leave  
    1eed:	c3                   	ret    

0000000000001eee <get_heap_base>:
    1eee:	55                   	push   rbp
    1eef:	48 89 e5             	mov    rbp,rsp
    1ef2:	48 8b 15 cf 3c 22 00 	mov    rdx,QWORD PTR [rip+0x223ccf]        # 225bc8 <g_global_data+0x8>
    1ef9:	48 8d 05 00 e1 ff ff 	lea    rax,[rip+0xffffffffffffe100]        # 0 <enclave.so>
    1f00:	48 01 d0             	add    rax,rdx
    1f03:	5d                   	pop    rbp
    1f04:	c3                   	ret    

0000000000001f05 <get_heap_size>:
    1f05:	55                   	push   rbp
    1f06:	48 89 e5             	mov    rbp,rsp
    1f09:	48 8b 05 c0 3c 22 00 	mov    rax,QWORD PTR [rip+0x223cc0]        # 225bd0 <g_global_data+0x10>
    1f10:	48 89 45 f8          	mov    QWORD PTR [rbp-0x8],rax
    1f14:	8b 05 2e 2f 22 00    	mov    eax,DWORD PTR [rip+0x222f2e]        # 224e48 <EDMM_supported>
    1f1a:	85 c0                	test   eax,eax
    1f1c:	74 5b                	je     1f79 <get_heap_size+0x74>
    1f1e:	c7 45 f4 00 00 00 00 	mov    DWORD PTR [rbp-0xc],0x0
    1f25:	8b 05 9d 3d 22 00    	mov    eax,DWORD PTR [rip+0x223d9d]        # 225cc8 <g_global_data+0x108>
    1f2b:	39 45 f4             	cmp    DWORD PTR [rbp-0xc],eax
    1f2e:	0f 92 c0             	setb   al
    1f31:	84 c0                	test   al,al
    1f33:	74 44                	je     1f79 <get_heap_size+0x74>
    1f35:	8b 45 f4             	mov    eax,DWORD PTR [rbp-0xc]
    1f38:	48 c1 e0 05          	shl    rax,0x5
    1f3c:	48 89 c2             	mov    rdx,rax
    1f3f:	48 8d 05 8a 3d 22 00 	lea    rax,[rip+0x223d8a]        # 225cd0 <g_global_data+0x110>
    1f46:	0f b7 04 02          	movzx  eax,WORD PTR [rdx+rax*1]
    1f4a:	66 83 f8 03          	cmp    ax,0x3
    1f4e:	0f 94 c0             	sete   al
    1f51:	84 c0                	test   al,al
    1f53:	74 1e                	je     1f73 <get_heap_size+0x6e>
    1f55:	8b 45 f4             	mov    eax,DWORD PTR [rbp-0xc]
    1f58:	48 c1 e0 05          	shl    rax,0x5
    1f5c:	48 89 c2             	mov    rdx,rax
    1f5f:	48 8d 05 6e 3d 22 00 	lea    rax,[rip+0x223d6e]        # 225cd4 <g_global_data+0x114>
    1f66:	8b 04 02             	mov    eax,DWORD PTR [rdx+rax*1]
    1f69:	89 c0                	mov    eax,eax
    1f6b:	48 c1 e0 0c          	shl    rax,0xc
    1f6f:	48 01 45 f8          	add    QWORD PTR [rbp-0x8],rax
    1f73:	83 45 f4 01          	add    DWORD PTR [rbp-0xc],0x1
    1f77:	eb ac                	jmp    1f25 <get_heap_size+0x20>
    1f79:	48 8b 45 f8          	mov    rax,QWORD PTR [rbp-0x8]
    1f7d:	5d                   	pop    rbp
    1f7e:	c3                   	ret    

0000000000001f7f <get_heap_min_size>:
    1f7f:	55                   	push   rbp
    1f80:	48 89 e5             	mov    rbp,rsp
    1f83:	48 c7 45 f8 00 00 00 	mov    QWORD PTR [rbp-0x8],0x0
    1f8a:	00 
    1f8b:	c7 45 f4 00 00 00 00 	mov    DWORD PTR [rbp-0xc],0x0
    1f92:	8b 05 30 3d 22 00    	mov    eax,DWORD PTR [rip+0x223d30]        # 225cc8 <g_global_data+0x108>
    1f98:	39 45 f4             	cmp    DWORD PTR [rbp-0xc],eax
    1f9b:	0f 92 c0             	setb   al
    1f9e:	84 c0                	test   al,al
    1fa0:	74 46                	je     1fe8 <get_heap_min_size+0x69>
    1fa2:	8b 45 f4             	mov    eax,DWORD PTR [rbp-0xc]
    1fa5:	48 c1 e0 05          	shl    rax,0x5
    1fa9:	48 89 c2             	mov    rdx,rax
    1fac:	48 8d 05 1d 3d 22 00 	lea    rax,[rip+0x223d1d]        # 225cd0 <g_global_data+0x110>
    1fb3:	0f b7 04 02          	movzx  eax,WORD PTR [rdx+rax*1]
    1fb7:	66 83 f8 01          	cmp    ax,0x1
    1fbb:	0f 94 c0             	sete   al
    1fbe:	84 c0                	test   al,al
    1fc0:	74 20                	je     1fe2 <get_heap_min_size+0x63>
    1fc2:	8b 45 f4             	mov    eax,DWORD PTR [rbp-0xc]
    1fc5:	48 c1 e0 05          	shl    rax,0x5
    1fc9:	48 89 c2             	mov    rdx,rax
    1fcc:	48 8d 05 01 3d 22 00 	lea    rax,[rip+0x223d01]        # 225cd4 <g_global_data+0x114>
    1fd3:	8b 04 02             	mov    eax,DWORD PTR [rdx+rax*1]
    1fd6:	89 c0                	mov    eax,eax
    1fd8:	48 c1 e0 0c          	shl    rax,0xc
    1fdc:	48 89 45 f8          	mov    QWORD PTR [rbp-0x8],rax
    1fe0:	eb 06                	jmp    1fe8 <get_heap_min_size+0x69>
    1fe2:	83 45 f4 01          	add    DWORD PTR [rbp-0xc],0x1
    1fe6:	eb aa                	jmp    1f92 <get_heap_min_size+0x13>
    1fe8:	48 8b 45 f8          	mov    rax,QWORD PTR [rbp-0x8]
    1fec:	5d                   	pop    rbp
    1fed:	c3                   	ret    

0000000000001fee <get_errno_addr>:
    1fee:	55                   	push   rbp
    1fef:	48 89 e5             	mov    rbp,rsp
    1ff2:	48 83 ec 10          	sub    rsp,0x10
    1ff6:	e8 28 de 01 00       	call   1fe23 <get_thread_data>
    1ffb:	48 89 45 f8          	mov    QWORD PTR [rbp-0x8],rax
    1fff:	48 8b 45 f8          	mov    rax,QWORD PTR [rbp-0x8]
    2003:	48 83 c0 40          	add    rax,0x40
    2007:	c9                   	leave  
    2008:	c3                   	ret    

0000000000002009 <feature_supported>:
    2009:	55                   	push   rbp
    200a:	48 89 e5             	mov    rbp,rsp
    200d:	48 89 7d e8          	mov    QWORD PTR [rbp-0x18],rdi
    2011:	89 75 e4             	mov    DWORD PTR [rbp-0x1c],esi
    2014:	48 8b 45 e8          	mov    rax,QWORD PTR [rbp-0x18]
    2018:	48 89 45 f8          	mov    QWORD PTR [rbp-0x8],rax
    201c:	c7 45 f4 00 00 00 00 	mov    DWORD PTR [rbp-0xc],0x0
    2023:	c7 45 f0 00 00 00 00 	mov    DWORD PTR [rbp-0x10],0x0
    202a:	48 83 7d f8 00       	cmp    QWORD PTR [rbp-0x8],0x0
    202f:	75 07                	jne    2038 <feature_supported+0x2f>
    2031:	b8 00 00 00 00       	mov    eax,0x0
    2036:	eb 79                	jmp    20b1 <feature_supported+0xa8>
    2038:	8b 45 f0             	mov    eax,DWORD PTR [rbp-0x10]
    203b:	83 c0 01             	add    eax,0x1
    203e:	c1 e0 06             	shl    eax,0x6
    2041:	39 45 e4             	cmp    DWORD PTR [rbp-0x1c],eax
    2044:	72 27                	jb     206d <feature_supported+0x64>
    2046:	8b 45 f0             	mov    eax,DWORD PTR [rbp-0x10]
    2049:	48 8d 14 c5 00 00 00 	lea    rdx,[rax*8+0x0]
    2050:	00 
    2051:	48 8b 45 f8          	mov    rax,QWORD PTR [rbp-0x8]
    2055:	48 01 d0             	add    rax,rdx
    2058:	48 8b 00             	mov    rax,QWORD PTR [rax]
    205b:	48 85 c0             	test   rax,rax
    205e:	79 07                	jns    2067 <feature_supported+0x5e>
    2060:	b8 00 00 00 00       	mov    eax,0x0
    2065:	eb 4a                	jmp    20b1 <feature_supported+0xa8>
    2067:	83 45 f0 01          	add    DWORD PTR [rbp-0x10],0x1
    206b:	eb cb                	jmp    2038 <feature_supported+0x2f>
    206d:	8b 45 f0             	mov    eax,DWORD PTR [rbp-0x10]
    2070:	c1 e0 06             	shl    eax,0x6
    2073:	89 c2                	mov    edx,eax
    2075:	8b 45 e4             	mov    eax,DWORD PTR [rbp-0x1c]
    2078:	29 d0                	sub    eax,edx
    207a:	89 45 f4             	mov    DWORD PTR [rbp-0xc],eax
    207d:	8b 45 f0             	mov    eax,DWORD PTR [rbp-0x10]
    2080:	48 8d 14 c5 00 00 00 	lea    rdx,[rax*8+0x0]
    2087:	00 
    2088:	48 8b 45 f8          	mov    rax,QWORD PTR [rbp-0x8]
    208c:	48 01 d0             	add    rax,rdx
    208f:	48 8b 10             	mov    rdx,QWORD PTR [rax]
    2092:	8b 45 f4             	mov    eax,DWORD PTR [rbp-0xc]
    2095:	89 c1                	mov    ecx,eax
    2097:	48 d3 ea             	shr    rdx,cl
    209a:	48 89 d0             	mov    rax,rdx
    209d:	83 e0 01             	and    eax,0x1
    20a0:	48 85 c0             	test   rax,rax
    20a3:	74 07                	je     20ac <feature_supported+0xa3>
    20a5:	b8 01 00 00 00       	mov    eax,0x1
    20aa:	eb 05                	jmp    20b1 <feature_supported+0xa8>
    20ac:	b8 00 00 00 00       	mov    eax,0x0
    20b1:	5d                   	pop    rbp
    20b2:	c3                   	ret    

00000000000020b3 <is_stack_addr>:
    20b3:	55                   	push   rbp
    20b4:	48 89 e5             	mov    rbp,rsp
    20b7:	48 83 ec 30          	sub    rsp,0x30
    20bb:	48 89 7d d8          	mov    QWORD PTR [rbp-0x28],rdi
    20bf:	48 89 75 d0          	mov    QWORD PTR [rbp-0x30],rsi
    20c3:	e8 5b dd 01 00       	call   1fe23 <get_thread_data>
    20c8:	48 89 45 e0          	mov    QWORD PTR [rbp-0x20],rax
    20cc:	48 8b 45 e0          	mov    rax,QWORD PTR [rbp-0x20]
    20d0:	48 8b 40 10          	mov    rax,QWORD PTR [rax+0x10]
    20d4:	48 89 45 e8          	mov    QWORD PTR [rbp-0x18],rax
    20d8:	48 8b 45 e0          	mov    rax,QWORD PTR [rbp-0x20]
    20dc:	48 8b 40 18          	mov    rax,QWORD PTR [rax+0x18]
    20e0:	48 89 45 f0          	mov    QWORD PTR [rbp-0x10],rax
    20e4:	48 8b 45 d8          	mov    rax,QWORD PTR [rbp-0x28]
    20e8:	48 89 45 f8          	mov    QWORD PTR [rbp-0x8],rax
    20ec:	48 8b 55 f8          	mov    rdx,QWORD PTR [rbp-0x8]
    20f0:	48 8b 45 d0          	mov    rax,QWORD PTR [rbp-0x30]
    20f4:	48 01 d0             	add    rax,rdx
    20f7:	48 39 45 f8          	cmp    QWORD PTR [rbp-0x8],rax
    20fb:	77 22                	ja     211f <is_stack_addr+0x6c>
    20fd:	48 8b 55 f8          	mov    rdx,QWORD PTR [rbp-0x8]
    2101:	48 8b 45 d0          	mov    rax,QWORD PTR [rbp-0x30]
    2105:	48 01 d0             	add    rax,rdx
    2108:	48 39 45 e8          	cmp    QWORD PTR [rbp-0x18],rax
    210c:	72 11                	jb     211f <is_stack_addr+0x6c>
    210e:	48 8b 45 f0          	mov    rax,QWORD PTR [rbp-0x10]
    2112:	48 3b 45 f8          	cmp    rax,QWORD PTR [rbp-0x8]
    2116:	77 07                	ja     211f <is_stack_addr+0x6c>
    2118:	b8 01 00 00 00       	mov    eax,0x1
    211d:	eb 05                	jmp    2124 <is_stack_addr+0x71>
    211f:	b8 00 00 00 00       	mov    eax,0x0
    2124:	c9                   	leave  
    2125:	c3                   	ret    

0000000000002126 <is_valid_sp>:
    2126:	55                   	push   rbp
    2127:	48 89 e5             	mov    rbp,rsp
    212a:	48 83 ec 10          	sub    rsp,0x10
    212e:	48 89 7d f8          	mov    QWORD PTR [rbp-0x8],rdi
    2132:	48 8b 45 f8          	mov    rax,QWORD PTR [rbp-0x8]
    2136:	83 e0 07             	and    eax,0x7
    2139:	48 85 c0             	test   rax,rax
    213c:	75 1c                	jne    215a <is_valid_sp+0x34>
    213e:	48 8b 45 f8          	mov    rax,QWORD PTR [rbp-0x8]
    2142:	be 00 00 00 00       	mov    esi,0x0
    2147:	48 89 c7             	mov    rdi,rax
    214a:	e8 64 ff ff ff       	call   20b3 <is_stack_addr>
    214f:	84 c0                	test   al,al
    2151:	74 07                	je     215a <is_valid_sp+0x34>
    2153:	b8 01 00 00 00       	mov    eax,0x1
    2158:	eb 05                	jmp    215f <is_valid_sp+0x39>
    215a:	b8 00 00 00 00       	mov    eax,0x0
    215f:	c9                   	leave  
    2160:	c3                   	ret    

0000000000002161 <internal_handle_exception>:
    2161:	55                   	push   rbp
    2162:	48 89 e5             	mov    rbp,rsp
    2165:	48 83 ec 50          	sub    rsp,0x50
    2169:	48 89 7d b8          	mov    QWORD PTR [rbp-0x48],rdi
    216d:	c7 45 c4 00 00 00 00 	mov    DWORD PTR [rbp-0x3c],0x0
    2174:	48 c7 45 c8 00 00 00 	mov    QWORD PTR [rbp-0x38],0x0
    217b:	00 
    217c:	e8 a2 dc 01 00       	call   1fe23 <get_thread_data>
    2181:	48 89 45 e0          	mov    QWORD PTR [rbp-0x20],rax
    2185:	48 c7 45 d0 00 00 00 	mov    QWORD PTR [rbp-0x30],0x0
    218c:	00 
    218d:	48 c7 45 e8 00 00 00 	mov    QWORD PTR [rbp-0x18],0x0
    2194:	00 
    2195:	48 c7 45 d8 00 00 00 	mov    QWORD PTR [rbp-0x28],0x0
    219c:	00 
    219d:	48 c7 45 f0 00 00 00 	mov    QWORD PTR [rbp-0x10],0x0
    21a4:	00 
    21a5:	48 8b 45 e0          	mov    rax,QWORD PTR [rbp-0x20]
    21a9:	48 8b 40 60          	mov    rax,QWORD PTR [rax+0x60]
    21ad:	48 85 c0             	test   rax,rax
    21b0:	0f 88 8c 01 00 00    	js     2342 <internal_handle_exception+0x1e1>
    21b6:	48 8b 45 e0          	mov    rax,QWORD PTR [rbp-0x20]
    21ba:	48 8b 40 60          	mov    rax,QWORD PTR [rax+0x60]
    21be:	48 8d 50 01          	lea    rdx,[rax+0x1]
    21c2:	48 8b 45 e0          	mov    rax,QWORD PTR [rbp-0x20]
    21c6:	48 89 50 60          	mov    QWORD PTR [rax+0x60],rdx
    21ca:	48 8d 3d 77 42 22 00 	lea    rdi,[rip+0x224277]        # 226448 <_ZL14g_handler_lock>
    21d1:	e8 d1 87 00 00       	call   a9a7 <sgx_spin_lock>
    21d6:	48 8b 05 63 42 22 00 	mov    rax,QWORD PTR [rip+0x224263]        # 226440 <_ZL12g_first_node>
    21dd:	48 89 45 c8          	mov    QWORD PTR [rbp-0x38],rax
    21e1:	48 83 7d c8 00       	cmp    QWORD PTR [rbp-0x38],0x0
    21e6:	74 13                	je     21fb <internal_handle_exception+0x9a>
    21e8:	48 83 45 d0 08       	add    QWORD PTR [rbp-0x30],0x8
    21ed:	48 8b 45 c8          	mov    rax,QWORD PTR [rbp-0x38]
    21f1:	48 8b 40 08          	mov    rax,QWORD PTR [rax+0x8]
    21f5:	48 89 45 c8          	mov    QWORD PTR [rbp-0x38],rax
    21f9:	eb e6                	jmp    21e1 <internal_handle_exception+0x80>
    21fb:	48 83 7d d0 00       	cmp    QWORD PTR [rbp-0x30],0x0
    2200:	75 24                	jne    2226 <internal_handle_exception+0xc5>
    2202:	48 8d 3d 3f 42 22 00 	lea    rdi,[rip+0x22423f]        # 226448 <_ZL14g_handler_lock>
    2209:	e8 00 88 00 00       	call   aa0e <sgx_spin_unlock>
    220e:	48 8b 45 e0          	mov    rax,QWORD PTR [rbp-0x20]
    2212:	48 c7 40 60 ff ff ff 	mov    QWORD PTR [rax+0x60],0xffffffffffffffff
    2219:	ff 
    221a:	48 8b 45 b8          	mov    rax,QWORD PTR [rbp-0x48]
    221e:	48 89 c7             	mov    rdi,rax
    2221:	e8 dc df 01 00       	call   20202 <continue_execution>
    2226:	48 8b 45 d0          	mov    rax,QWORD PTR [rbp-0x30]
    222a:	48 89 c7             	mov    rdi,rax
    222d:	e8 ee 5e 00 00       	call   8120 <dlmalloc>
    2232:	48 89 45 e8          	mov    QWORD PTR [rbp-0x18],rax
    2236:	48 83 7d e8 00       	cmp    QWORD PTR [rbp-0x18],0x0
    223b:	0f 94 c0             	sete   al
    223e:	84 c0                	test   al,al
    2240:	74 11                	je     2253 <internal_handle_exception+0xf2>
    2242:	48 8d 3d ff 41 22 00 	lea    rdi,[rip+0x2241ff]        # 226448 <_ZL14g_handler_lock>
    2249:	e8 c0 87 00 00       	call   aa0e <sgx_spin_unlock>
    224e:	e9 f3 00 00 00       	jmp    2346 <internal_handle_exception+0x1e5>
    2253:	48 8b 45 e8          	mov    rax,QWORD PTR [rbp-0x18]
    2257:	48 89 45 d8          	mov    QWORD PTR [rbp-0x28],rax
    225b:	48 8b 05 de 41 22 00 	mov    rax,QWORD PTR [rip+0x2241de]        # 226440 <_ZL12g_first_node>
    2262:	48 89 45 c8          	mov    QWORD PTR [rbp-0x38],rax
    2266:	48 83 7d c8 00       	cmp    QWORD PTR [rbp-0x38],0x0
    226b:	74 21                	je     228e <internal_handle_exception+0x12d>
    226d:	48 8b 45 c8          	mov    rax,QWORD PTR [rbp-0x38]
    2271:	48 8b 10             	mov    rdx,QWORD PTR [rax]
    2274:	48 8b 45 d8          	mov    rax,QWORD PTR [rbp-0x28]
    2278:	48 89 10             	mov    QWORD PTR [rax],rdx
    227b:	48 83 45 d8 08       	add    QWORD PTR [rbp-0x28],0x8
    2280:	48 8b 45 c8          	mov    rax,QWORD PTR [rbp-0x38]
    2284:	48 8b 40 08          	mov    rax,QWORD PTR [rax+0x8]
    2288:	48 89 45 c8          	mov    QWORD PTR [rbp-0x38],rax
    228c:	eb d8                	jmp    2266 <internal_handle_exception+0x105>
    228e:	48 8d 3d b3 41 22 00 	lea    rdi,[rip+0x2241b3]        # 226448 <_ZL14g_handler_lock>
    2295:	e8 74 87 00 00       	call   aa0e <sgx_spin_unlock>
    229a:	48 8b 45 e8          	mov    rax,QWORD PTR [rbp-0x18]
    229e:	48 89 45 d8          	mov    QWORD PTR [rbp-0x28],rax
    22a2:	48 83 7d d0 00       	cmp    QWORD PTR [rbp-0x30],0x0
    22a7:	74 38                	je     22e1 <internal_handle_exception+0x180>
    22a9:	48 8b 45 d8          	mov    rax,QWORD PTR [rbp-0x28]
    22ad:	48 8b 10             	mov    rdx,QWORD PTR [rax]
    22b0:	48 8b 05 99 41 22 00 	mov    rax,QWORD PTR [rip+0x224199]        # 226450 <_ZL12g_veh_cookie>
    22b7:	48 31 d0             	xor    rax,rdx
    22ba:	48 89 45 f8          	mov    QWORD PTR [rbp-0x8],rax
    22be:	48 8b 55 b8          	mov    rdx,QWORD PTR [rbp-0x48]
    22c2:	48 8b 45 f8          	mov    rax,QWORD PTR [rbp-0x8]
    22c6:	48 89 d7             	mov    rdi,rdx
    22c9:	ff d0                	call   rax
    22cb:	89 45 c4             	mov    DWORD PTR [rbp-0x3c],eax
    22ce:	83 7d c4 ff          	cmp    DWORD PTR [rbp-0x3c],0xffffffff
    22d2:	74 0c                	je     22e0 <internal_handle_exception+0x17f>
    22d4:	48 83 45 d8 08       	add    QWORD PTR [rbp-0x28],0x8
    22d9:	48 83 6d d0 08       	sub    QWORD PTR [rbp-0x30],0x8
    22de:	eb c2                	jmp    22a2 <internal_handle_exception+0x141>
    22e0:	90                   	nop
    22e1:	48 8b 45 e8          	mov    rax,QWORD PTR [rbp-0x18]
    22e5:	48 89 c7             	mov    rdi,rax
    22e8:	e8 2a 69 00 00       	call   8c17 <dlfree>
    22ed:	48 8b 45 b8          	mov    rax,QWORD PTR [rbp-0x48]
    22f1:	48 8b 40 20          	mov    rax,QWORD PTR [rax+0x20]
    22f5:	48 89 45 f0          	mov    QWORD PTR [rbp-0x10],rax
    22f9:	48 8b 45 f0          	mov    rax,QWORD PTR [rbp-0x10]
    22fd:	48 89 c7             	mov    rdi,rax
    2300:	e8 21 fe ff ff       	call   2126 <is_valid_sp>
    2305:	83 f0 01             	xor    eax,0x1
    2308:	84 c0                	test   al,al
    230a:	75 39                	jne    2345 <internal_handle_exception+0x1e4>
    230c:	83 7d c4 ff          	cmp    DWORD PTR [rbp-0x3c],0xffffffff
    2310:	75 16                	jne    2328 <internal_handle_exception+0x1c7>
    2312:	48 8b 45 e0          	mov    rax,QWORD PTR [rbp-0x20]
    2316:	48 8b 40 60          	mov    rax,QWORD PTR [rax+0x60]
    231a:	48 8d 50 ff          	lea    rdx,[rax-0x1]
    231e:	48 8b 45 e0          	mov    rax,QWORD PTR [rbp-0x20]
    2322:	48 89 50 60          	mov    QWORD PTR [rax+0x60],rdx
    2326:	eb 0c                	jmp    2334 <internal_handle_exception+0x1d3>
    2328:	48 8b 45 e0          	mov    rax,QWORD PTR [rbp-0x20]
    232c:	48 c7 40 60 ff ff ff 	mov    QWORD PTR [rax+0x60],0xffffffffffffffff
    2333:	ff 
    2334:	48 8b 45 b8          	mov    rax,QWORD PTR [rbp-0x48]
    2338:	48 89 c7             	mov    rdi,rax
    233b:	e8 c2 de 01 00       	call   20202 <continue_execution>
    2340:	eb 04                	jmp    2346 <internal_handle_exception+0x1e5>
    2342:	90                   	nop
    2343:	eb 01                	jmp    2346 <internal_handle_exception+0x1e5>
    2345:	90                   	nop
    2346:	48 8b 45 e0          	mov    rax,QWORD PTR [rbp-0x20]
    234a:	48 c7 40 60 ff ff ff 	mov    QWORD PTR [rax+0x60],0xffffffffffffffff
    2351:	ff 
    2352:	e8 9c de 01 00       	call   201f3 <abort>

0000000000002357 <_ZL21expand_stack_by_pagesPvm>:
    2357:	55                   	push   rbp
    2358:	48 89 e5             	mov    rbp,rsp
    235b:	48 83 ec 20          	sub    rsp,0x20
    235f:	48 89 7d e8          	mov    QWORD PTR [rbp-0x18],rdi
    2363:	48 89 75 e0          	mov    QWORD PTR [rbp-0x20],rsi
    2367:	c7 45 fc ff ff ff ff 	mov    DWORD PTR [rbp-0x4],0xffffffff
    236e:	48 83 7d e8 00       	cmp    QWORD PTR [rbp-0x18],0x0
    2373:	74 07                	je     237c <_ZL21expand_stack_by_pagesPvm+0x25>
    2375:	48 83 7d e0 00       	cmp    QWORD PTR [rbp-0x20],0x0
    237a:	75 07                	jne    2383 <_ZL21expand_stack_by_pagesPvm+0x2c>
    237c:	b8 ff ff ff ff       	mov    eax,0xffffffff
    2381:	eb 19                	jmp    239c <_ZL21expand_stack_by_pagesPvm+0x45>
    2383:	48 8b 55 e0          	mov    rdx,QWORD PTR [rbp-0x20]
    2387:	48 8b 45 e8          	mov    rax,QWORD PTR [rbp-0x18]
    238b:	48 89 d6             	mov    rsi,rdx
    238e:	48 89 c7             	mov    rdi,rax
    2391:	e8 13 07 00 00       	call   2aa9 <apply_pages_within_exception>
    2396:	89 45 fc             	mov    DWORD PTR [rbp-0x4],eax
    2399:	8b 45 fc             	mov    eax,DWORD PTR [rbp-0x4]
    239c:	c9                   	leave  
    239d:	c3                   	ret    

000000000000239e <trts_handle_exception>:
    239e:	55                   	push   rbp
    239f:	48 89 e5             	mov    rbp,rsp
    23a2:	48 83 ec 50          	sub    rsp,0x50
    23a6:	48 89 7d b8          	mov    QWORD PTR [rbp-0x48],rdi
    23aa:	e8 74 da 01 00       	call   1fe23 <get_thread_data>
    23af:	48 89 45 c8          	mov    QWORD PTR [rbp-0x38],rax
    23b3:	48 c7 45 d0 00 00 00 	mov    QWORD PTR [rbp-0x30],0x0
    23ba:	00 
    23bb:	48 c7 45 d8 00 00 00 	mov    QWORD PTR [rbp-0x28],0x0
    23c2:	00 
    23c3:	48 c7 45 e0 00 00 00 	mov    QWORD PTR [rbp-0x20],0x0
    23ca:	00 
    23cb:	48 c7 45 e8 00 00 00 	mov    QWORD PTR [rbp-0x18],0x0
    23d2:	00 
    23d3:	48 83 7d c8 00       	cmp    QWORD PTR [rbp-0x38],0x0
    23d8:	0f 84 7a 04 00 00    	je     2858 <trts_handle_exception+0x4ba>
    23de:	48 83 7d b8 00       	cmp    QWORD PTR [rbp-0x48],0x0
    23e3:	0f 84 6f 04 00 00    	je     2858 <trts_handle_exception+0x4ba>
    23e9:	48 8b 45 b8          	mov    rax,QWORD PTR [rbp-0x48]
    23ed:	48 89 c7             	mov    rdi,rax
    23f0:	e8 3b ed ff ff       	call   1130 <check_static_stack_canary>
    23f5:	85 c0                	test   eax,eax
    23f7:	0f 95 c0             	setne  al
    23fa:	84 c0                	test   al,al
    23fc:	0f 85 59 04 00 00    	jne    285b <trts_handle_exception+0x4bd>
    2402:	e8 e9 d9 01 00       	call   1fdf0 <get_enclave_state>
    2407:	83 f8 02             	cmp    eax,0x2
    240a:	0f 95 c0             	setne  al
    240d:	84 c0                	test   al,al
    240f:	0f 85 49 04 00 00    	jne    285e <trts_handle_exception+0x4c0>
    2415:	48 8b 45 c8          	mov    rax,QWORD PTR [rbp-0x38]
    2419:	48 8b 40 60          	mov    rax,QWORD PTR [rax+0x60]
    241d:	48 83 f8 ff          	cmp    rax,0xffffffffffffffff
    2421:	0f 84 3a 04 00 00    	je     2861 <trts_handle_exception+0x4c3>
    2427:	48 8b 45 c8          	mov    rax,QWORD PTR [rbp-0x38]
    242b:	48 8b 40 10          	mov    rax,QWORD PTR [rax+0x10]
    242f:	48 05 b0 02 01 00    	add    rax,0x102b0
    2435:	48 39 45 b8          	cmp    QWORD PTR [rbp-0x48],rax
    2439:	0f 85 19 04 00 00    	jne    2858 <trts_handle_exception+0x4ba>
    243f:	48 8b 45 c8          	mov    rax,QWORD PTR [rbp-0x38]
    2443:	48 8b 40 20          	mov    rax,QWORD PTR [rax+0x20]
    2447:	48 25 00 f0 ff ff    	and    rax,0xfffffffffffff000
    244d:	48 8d 90 00 f0 ff ff 	lea    rdx,[rax-0x1000]
    2454:	48 8b 45 b8          	mov    rax,QWORD PTR [rbp-0x48]
    2458:	48 39 c2             	cmp    rdx,rax
    245b:	0f 85 f7 03 00 00    	jne    2858 <trts_handle_exception+0x4ba>
    2461:	48 8b 45 c8          	mov    rax,QWORD PTR [rbp-0x38]
    2465:	48 8b 40 20          	mov    rax,QWORD PTR [rax+0x20]
    2469:	48 89 45 d0          	mov    QWORD PTR [rbp-0x30],rax
    246d:	48 8b 45 d0          	mov    rax,QWORD PTR [rbp-0x30]
    2471:	48 8b 40 20          	mov    rax,QWORD PTR [rax+0x20]
    2475:	48 89 45 f0          	mov    QWORD PTR [rbp-0x10],rax
    2479:	48 8b 45 f0          	mov    rax,QWORD PTR [rbp-0x10]
    247d:	be 00 00 00 00       	mov    esi,0x0
    2482:	48 89 c7             	mov    rdi,rax
    2485:	e8 29 fc ff ff       	call   20b3 <is_stack_addr>
    248a:	83 f0 01             	xor    eax,0x1
    248d:	84 c0                	test   al,al
    248f:	74 14                	je     24a5 <trts_handle_exception+0x107>
    2491:	c7 05 65 3f 22 00 03 	mov    DWORD PTR [rip+0x223f65],0x3        # 226400 <g_enclave_state>
    2498:	00 00 00 
    249b:	b8 09 10 00 00       	mov    eax,0x1009
    24a0:	e9 cf 03 00 00       	jmp    2874 <trts_handle_exception+0x4d6>
    24a5:	48 c7 45 e8 00 00 00 	mov    QWORD PTR [rbp-0x18],0x0
    24ac:	00 
    24ad:	48 83 6d e8 80       	sub    QWORD PTR [rbp-0x18],0xffffffffffffff80
    24b2:	48 81 45 e8 98 00 00 	add    QWORD PTR [rbp-0x18],0x98
    24b9:	00 
    24ba:	48 8b 45 e8          	mov    rax,QWORD PTR [rbp-0x18]
    24be:	48 29 45 f0          	sub    QWORD PTR [rbp-0x10],rax
    24c2:	48 83 65 f0 f0       	and    QWORD PTR [rbp-0x10],0xfffffffffffffff0
    24c7:	48 8b 45 f0          	mov    rax,QWORD PTR [rbp-0x10]
    24cb:	48 8b 55 e8          	mov    rdx,QWORD PTR [rbp-0x18]
    24cf:	48 89 d6             	mov    rsi,rdx
    24d2:	48 89 c7             	mov    rdi,rax
    24d5:	e8 d9 fb ff ff       	call   20b3 <is_stack_addr>
    24da:	83 f0 01             	xor    eax,0x1
    24dd:	84 c0                	test   al,al
    24df:	74 14                	je     24f5 <trts_handle_exception+0x157>
    24e1:	c7 05 15 3f 22 00 03 	mov    DWORD PTR [rip+0x223f15],0x3        # 226400 <g_enclave_state>
    24e8:	00 00 00 
    24eb:	b8 09 10 00 00       	mov    eax,0x1009
    24f0:	e9 7f 03 00 00       	jmp    2874 <trts_handle_exception+0x4d6>
    24f5:	48 8b 45 f0          	mov    rax,QWORD PTR [rbp-0x10]
    24f9:	48 89 45 d8          	mov    QWORD PTR [rbp-0x28],rax
    24fd:	48 c7 45 e8 08 00 00 	mov    QWORD PTR [rbp-0x18],0x8
    2504:	00 
    2505:	48 8b 45 e8          	mov    rax,QWORD PTR [rbp-0x18]
    2509:	48 29 45 f0          	sub    QWORD PTR [rbp-0x10],rax
    250d:	48 8b 45 f0          	mov    rax,QWORD PTR [rbp-0x10]
    2511:	48 8b 55 e8          	mov    rdx,QWORD PTR [rbp-0x18]
    2515:	48 89 d6             	mov    rsi,rdx
    2518:	48 89 c7             	mov    rdi,rax
    251b:	e8 93 fb ff ff       	call   20b3 <is_stack_addr>
    2520:	83 f0 01             	xor    eax,0x1
    2523:	84 c0                	test   al,al
    2525:	74 14                	je     253b <trts_handle_exception+0x19d>
    2527:	c7 05 cf 3e 22 00 03 	mov    DWORD PTR [rip+0x223ecf],0x3        # 226400 <g_enclave_state>
    252e:	00 00 00 
    2531:	b8 09 10 00 00       	mov    eax,0x1009
    2536:	e9 39 03 00 00       	jmp    2874 <trts_handle_exception+0x4d6>
    253b:	48 8b 45 c8          	mov    rax,QWORD PTR [rbp-0x38]
    253f:	48 8b 80 98 00 00 00 	mov    rax,QWORD PTR [rax+0x98]
    2546:	48 39 45 f0          	cmp    QWORD PTR [rbp-0x10],rax
    254a:	0f 83 c7 00 00 00    	jae    2617 <trts_handle_exception+0x279>
    2550:	c7 45 c4 ff ff ff ff 	mov    DWORD PTR [rbp-0x3c],0xffffffff
    2557:	48 c7 45 f8 00 00 00 	mov    QWORD PTR [rbp-0x8],0x0
    255e:	00 
    255f:	48 8b 45 c8          	mov    rax,QWORD PTR [rbp-0x38]
    2563:	48 8b 80 98 00 00 00 	mov    rax,QWORD PTR [rax+0x98]
    256a:	48 2b 45 f0          	sub    rax,QWORD PTR [rbp-0x10]
    256e:	48 05 ff 0f 00 00    	add    rax,0xfff
    2574:	48 25 00 f0 ff ff    	and    rax,0xfffffffffffff000
    257a:	48 89 45 f8          	mov    QWORD PTR [rbp-0x8],rax
    257e:	48 8b 45 c8          	mov    rax,QWORD PTR [rbp-0x38]
    2582:	48 8b 80 98 00 00 00 	mov    rax,QWORD PTR [rax+0x98]
    2589:	48 39 45 f8          	cmp    QWORD PTR [rbp-0x8],rax
    258d:	73 47                	jae    25d6 <trts_handle_exception+0x238>
    258f:	48 8b 45 c8          	mov    rax,QWORD PTR [rbp-0x38]
    2593:	48 8b 80 98 00 00 00 	mov    rax,QWORD PTR [rax+0x98]
    259a:	48 2b 45 f8          	sub    rax,QWORD PTR [rbp-0x8]
    259e:	48 89 c2             	mov    rdx,rax
    25a1:	48 8b 45 c8          	mov    rax,QWORD PTR [rbp-0x38]
    25a5:	48 8b 40 18          	mov    rax,QWORD PTR [rax+0x18]
    25a9:	48 39 c2             	cmp    rdx,rax
    25ac:	72 28                	jb     25d6 <trts_handle_exception+0x238>
    25ae:	48 8b 45 f8          	mov    rax,QWORD PTR [rbp-0x8]
    25b2:	48 c1 e8 0c          	shr    rax,0xc
    25b6:	48 89 c2             	mov    rdx,rax
    25b9:	48 8b 45 c8          	mov    rax,QWORD PTR [rbp-0x38]
    25bd:	48 8b 80 98 00 00 00 	mov    rax,QWORD PTR [rax+0x98]
    25c4:	48 2b 45 f8          	sub    rax,QWORD PTR [rbp-0x8]
    25c8:	48 89 d6             	mov    rsi,rdx
    25cb:	48 89 c7             	mov    rdi,rax
    25ce:	e8 84 fd ff ff       	call   2357 <_ZL21expand_stack_by_pagesPvm>
    25d3:	89 45 c4             	mov    DWORD PTR [rbp-0x3c],eax
    25d6:	83 7d c4 00          	cmp    DWORD PTR [rbp-0x3c],0x0
    25da:	75 27                	jne    2603 <trts_handle_exception+0x265>
    25dc:	48 8b 45 c8          	mov    rax,QWORD PTR [rbp-0x38]
    25e0:	48 8b 80 98 00 00 00 	mov    rax,QWORD PTR [rax+0x98]
    25e7:	48 2b 45 f8          	sub    rax,QWORD PTR [rbp-0x8]
    25eb:	48 89 c2             	mov    rdx,rax
    25ee:	48 8b 45 c8          	mov    rax,QWORD PTR [rbp-0x38]
    25f2:	48 89 90 98 00 00 00 	mov    QWORD PTR [rax+0x98],rdx
    25f9:	b8 00 00 00 00       	mov    eax,0x0
    25fe:	e9 71 02 00 00       	jmp    2874 <trts_handle_exception+0x4d6>
    2603:	c7 05 f3 3d 22 00 03 	mov    DWORD PTR [rip+0x223df3],0x3        # 226400 <g_enclave_state>
    260a:	00 00 00 
    260d:	b8 09 10 00 00       	mov    eax,0x1009
    2612:	e9 5d 02 00 00       	jmp    2874 <trts_handle_exception+0x4d6>
    2617:	48 8b 45 d0          	mov    rax,QWORD PTR [rbp-0x30]
    261b:	48 8b 90 88 00 00 00 	mov    rdx,QWORD PTR [rax+0x88]
    2622:	48 8d 05 1e db 01 00 	lea    rax,[rip+0x1db1e]        # 20147 <Lereport_inst>
    2629:	48 39 c2             	cmp    rdx,rax
    262c:	75 4d                	jne    267b <trts_handle_exception+0x2dd>
    262e:	48 8b 45 d0          	mov    rax,QWORD PTR [rbp-0x30]
    2632:	48 8b 00             	mov    rax,QWORD PTR [rax]
    2635:	48 85 c0             	test   rax,rax
    2638:	75 41                	jne    267b <trts_handle_exception+0x2dd>
    263a:	48 8b 45 d0          	mov    rax,QWORD PTR [rbp-0x30]
    263e:	48 8b 80 88 00 00 00 	mov    rax,QWORD PTR [rax+0x88]
    2645:	48 8d 50 03          	lea    rdx,[rax+0x3]
    2649:	48 8b 45 d0          	mov    rax,QWORD PTR [rbp-0x30]
    264d:	48 89 90 88 00 00 00 	mov    QWORD PTR [rax+0x88],rdx
    2654:	48 8b 45 d0          	mov    rax,QWORD PTR [rbp-0x30]
    2658:	48 8b 80 80 00 00 00 	mov    rax,QWORD PTR [rax+0x80]
    265f:	48 83 c8 01          	or     rax,0x1
    2663:	48 89 c2             	mov    rdx,rax
    2666:	48 8b 45 d0          	mov    rax,QWORD PTR [rbp-0x30]
    266a:	48 89 90 80 00 00 00 	mov    QWORD PTR [rax+0x80],rdx
    2671:	b8 00 00 00 00       	mov    eax,0x0
    2676:	e9 f9 01 00 00       	jmp    2874 <trts_handle_exception+0x4d6>
    267b:	48 8b 45 d0          	mov    rax,QWORD PTR [rbp-0x30]
    267f:	0f b6 80 a3 00 00 00 	movzx  eax,BYTE PTR [rax+0xa3]
    2686:	83 e0 80             	and    eax,0xffffff80
    2689:	84 c0                	test   al,al
    268b:	0f 84 d3 01 00 00    	je     2864 <trts_handle_exception+0x4c6>
    2691:	48 8b 45 d0          	mov    rax,QWORD PTR [rbp-0x30]
    2695:	0f b6 80 a0 00 00 00 	movzx  eax,BYTE PTR [rax+0xa0]
    269c:	0f b6 d0             	movzx  edx,al
    269f:	48 8b 45 d8          	mov    rax,QWORD PTR [rbp-0x28]
    26a3:	89 90 90 00 00 00    	mov    DWORD PTR [rax+0x90],edx
    26a9:	48 8b 45 d0          	mov    rax,QWORD PTR [rbp-0x30]
    26ad:	0f b6 80 a1 00 00 00 	movzx  eax,BYTE PTR [rax+0xa1]
    26b4:	83 e0 07             	and    eax,0x7
    26b7:	0f b6 d0             	movzx  edx,al
    26ba:	48 8b 45 d8          	mov    rax,QWORD PTR [rbp-0x28]
    26be:	89 90 94 00 00 00    	mov    DWORD PTR [rax+0x94],edx
    26c4:	48 8b 45 d0          	mov    rax,QWORD PTR [rbp-0x30]
    26c8:	48 8b 10             	mov    rdx,QWORD PTR [rax]
    26cb:	48 8b 45 d8          	mov    rax,QWORD PTR [rbp-0x28]
    26cf:	48 89 10             	mov    QWORD PTR [rax],rdx
    26d2:	48 8b 45 d0          	mov    rax,QWORD PTR [rbp-0x30]
    26d6:	48 8b 50 08          	mov    rdx,QWORD PTR [rax+0x8]
    26da:	48 8b 45 d8          	mov    rax,QWORD PTR [rbp-0x28]
    26de:	48 89 50 08          	mov    QWORD PTR [rax+0x8],rdx
    26e2:	48 8b 45 d0          	mov    rax,QWORD PTR [rbp-0x30]
    26e6:	48 8b 50 10          	mov    rdx,QWORD PTR [rax+0x10]
    26ea:	48 8b 45 d8          	mov    rax,QWORD PTR [rbp-0x28]
    26ee:	48 89 50 10          	mov    QWORD PTR [rax+0x10],rdx
    26f2:	48 8b 45 d0          	mov    rax,QWORD PTR [rbp-0x30]
    26f6:	48 8b 50 18          	mov    rdx,QWORD PTR [rax+0x18]
    26fa:	48 8b 45 d8          	mov    rax,QWORD PTR [rbp-0x28]
    26fe:	48 89 50 18          	mov    QWORD PTR [rax+0x18],rdx
    2702:	48 8b 45 d0          	mov    rax,QWORD PTR [rbp-0x30]
    2706:	48 8b 50 20          	mov    rdx,QWORD PTR [rax+0x20]
    270a:	48 8b 45 d8          	mov    rax,QWORD PTR [rbp-0x28]
    270e:	48 89 50 20          	mov    QWORD PTR [rax+0x20],rdx
    2712:	48 8b 45 d0          	mov    rax,QWORD PTR [rbp-0x30]
    2716:	48 8b 50 28          	mov    rdx,QWORD PTR [rax+0x28]
    271a:	48 8b 45 d8          	mov    rax,QWORD PTR [rbp-0x28]
    271e:	48 89 50 28          	mov    QWORD PTR [rax+0x28],rdx
    2722:	48 8b 45 d0          	mov    rax,QWORD PTR [rbp-0x30]
    2726:	48 8b 50 30          	mov    rdx,QWORD PTR [rax+0x30]
    272a:	48 8b 45 d8          	mov    rax,QWORD PTR [rbp-0x28]
    272e:	48 89 50 30          	mov    QWORD PTR [rax+0x30],rdx
    2732:	48 8b 45 d0          	mov    rax,QWORD PTR [rbp-0x30]
    2736:	48 8b 50 38          	mov    rdx,QWORD PTR [rax+0x38]
    273a:	48 8b 45 d8          	mov    rax,QWORD PTR [rbp-0x28]
    273e:	48 89 50 38          	mov    QWORD PTR [rax+0x38],rdx
    2742:	48 8b 45 d0          	mov    rax,QWORD PTR [rbp-0x30]
    2746:	48 8b 90 80 00 00 00 	mov    rdx,QWORD PTR [rax+0x80]
    274d:	48 8b 45 d8          	mov    rax,QWORD PTR [rbp-0x28]
    2751:	48 89 90 80 00 00 00 	mov    QWORD PTR [rax+0x80],rdx
    2758:	48 8b 45 d0          	mov    rax,QWORD PTR [rbp-0x30]
    275c:	48 8b 90 88 00 00 00 	mov    rdx,QWORD PTR [rax+0x88]
    2763:	48 8b 45 d8          	mov    rax,QWORD PTR [rbp-0x28]
    2767:	48 89 90 88 00 00 00 	mov    QWORD PTR [rax+0x88],rdx
    276e:	48 8b 45 d0          	mov    rax,QWORD PTR [rbp-0x30]
    2772:	48 8b 50 40          	mov    rdx,QWORD PTR [rax+0x40]
    2776:	48 8b 45 d8          	mov    rax,QWORD PTR [rbp-0x28]
    277a:	48 89 50 40          	mov    QWORD PTR [rax+0x40],rdx
    277e:	48 8b 45 d0          	mov    rax,QWORD PTR [rbp-0x30]
    2782:	48 8b 50 48          	mov    rdx,QWORD PTR [rax+0x48]
    2786:	48 8b 45 d8          	mov    rax,QWORD PTR [rbp-0x28]
    278a:	48 89 50 48          	mov    QWORD PTR [rax+0x48],rdx
    278e:	48 8b 45 d0          	mov    rax,QWORD PTR [rbp-0x30]
    2792:	48 8b 50 50          	mov    rdx,QWORD PTR [rax+0x50]
    2796:	48 8b 45 d8          	mov    rax,QWORD PTR [rbp-0x28]
    279a:	48 89 50 50          	mov    QWORD PTR [rax+0x50],rdx
    279e:	48 8b 45 d0          	mov    rax,QWORD PTR [rbp-0x30]
    27a2:	48 8b 50 58          	mov    rdx,QWORD PTR [rax+0x58]
    27a6:	48 8b 45 d8          	mov    rax,QWORD PTR [rbp-0x28]
    27aa:	48 89 50 58          	mov    QWORD PTR [rax+0x58],rdx
    27ae:	48 8b 45 d0          	mov    rax,QWORD PTR [rbp-0x30]
    27b2:	48 8b 50 60          	mov    rdx,QWORD PTR [rax+0x60]
    27b6:	48 8b 45 d8          	mov    rax,QWORD PTR [rbp-0x28]
    27ba:	48 89 50 60          	mov    QWORD PTR [rax+0x60],rdx
    27be:	48 8b 45 d0          	mov    rax,QWORD PTR [rbp-0x30]
    27c2:	48 8b 50 68          	mov    rdx,QWORD PTR [rax+0x68]
    27c6:	48 8b 45 d8          	mov    rax,QWORD PTR [rbp-0x28]
    27ca:	48 89 50 68          	mov    QWORD PTR [rax+0x68],rdx
    27ce:	48 8b 45 d0          	mov    rax,QWORD PTR [rbp-0x30]
    27d2:	48 8b 50 70          	mov    rdx,QWORD PTR [rax+0x70]
    27d6:	48 8b 45 d8          	mov    rax,QWORD PTR [rbp-0x28]
    27da:	48 89 50 70          	mov    QWORD PTR [rax+0x70],rdx
    27de:	48 8b 45 d0          	mov    rax,QWORD PTR [rbp-0x30]
    27e2:	48 8b 50 78          	mov    rdx,QWORD PTR [rax+0x78]
    27e6:	48 8b 45 d8          	mov    rax,QWORD PTR [rbp-0x28]
    27ea:	48 89 50 78          	mov    QWORD PTR [rax+0x78],rdx
    27ee:	48 8b 45 f0          	mov    rax,QWORD PTR [rbp-0x10]
    27f2:	48 89 45 e0          	mov    QWORD PTR [rbp-0x20],rax
    27f6:	48 8d 15 64 f9 ff ff 	lea    rdx,[rip+0xfffffffffffff964]        # 2161 <internal_handle_exception>
    27fd:	48 8b 45 d0          	mov    rax,QWORD PTR [rbp-0x30]
    2801:	48 89 90 88 00 00 00 	mov    QWORD PTR [rax+0x88],rdx
    2808:	48 8b 55 e0          	mov    rdx,QWORD PTR [rbp-0x20]
    280c:	48 8b 45 d0          	mov    rax,QWORD PTR [rbp-0x30]
    2810:	48 89 50 20          	mov    QWORD PTR [rax+0x20],rdx
    2814:	48 8b 55 d8          	mov    rdx,QWORD PTR [rbp-0x28]
    2818:	48 8b 45 d0          	mov    rax,QWORD PTR [rbp-0x30]
    281c:	48 89 10             	mov    QWORD PTR [rax],rdx
    281f:	48 8b 55 d8          	mov    rdx,QWORD PTR [rbp-0x28]
    2823:	48 8b 45 d0          	mov    rax,QWORD PTR [rbp-0x30]
    2827:	48 89 50 38          	mov    QWORD PTR [rax+0x38],rdx
    282b:	48 8b 45 d8          	mov    rax,QWORD PTR [rbp-0x28]
    282f:	48 8b 90 88 00 00 00 	mov    rdx,QWORD PTR [rax+0x88]
    2836:	48 8b 45 e0          	mov    rax,QWORD PTR [rbp-0x20]
    283a:	48 89 10             	mov    QWORD PTR [rax],rdx
    283d:	48 8b 45 d0          	mov    rax,QWORD PTR [rbp-0x30]
    2841:	0f b6 90 a3 00 00 00 	movzx  edx,BYTE PTR [rax+0xa3]
    2848:	83 e2 7f             	and    edx,0x7f
    284b:	88 90 a3 00 00 00    	mov    BYTE PTR [rax+0xa3],dl
    2851:	b8 00 00 00 00       	mov    eax,0x0
    2856:	eb 1c                	jmp    2874 <trts_handle_exception+0x4d6>
    2858:	90                   	nop
    2859:	eb 0a                	jmp    2865 <trts_handle_exception+0x4c7>
    285b:	90                   	nop
    285c:	eb 07                	jmp    2865 <trts_handle_exception+0x4c7>
    285e:	90                   	nop
    285f:	eb 04                	jmp    2865 <trts_handle_exception+0x4c7>
    2861:	90                   	nop
    2862:	eb 01                	jmp    2865 <trts_handle_exception+0x4c7>
    2864:	90                   	nop
    2865:	c7 05 91 3b 22 00 03 	mov    DWORD PTR [rip+0x223b91],0x3        # 226400 <g_enclave_state>
    286c:	00 00 00 
    286f:	b8 06 10 00 00       	mov    eax,0x1006
    2874:	c9                   	leave  
    2875:	c3                   	ret    

0000000000002876 <get_xfeature_state>:
    2876:	55                   	push   rbp
    2877:	48 89 e5             	mov    rbp,rsp
    287a:	48 83 ec 10          	sub    rsp,0x10
    287e:	e8 c6 cd 01 00       	call   1f649 <sgx_self_report>
    2883:	48 89 45 f0          	mov    QWORD PTR [rbp-0x10],rax
    2887:	48 8b 45 f0          	mov    rax,QWORD PTR [rbp-0x10]
    288b:	48 8b 40 38          	mov    rax,QWORD PTR [rax+0x38]
    288f:	48 83 f8 03          	cmp    rax,0x3
    2893:	0f 95 c0             	setne  al
    2896:	0f b6 c0             	movzx  eax,al
    2899:	89 05 65 3b 22 00    	mov    DWORD PTR [rip+0x223b65],eax        # 226404 <g_xsave_enabled>
    289f:	48 8b 45 f0          	mov    rax,QWORD PTR [rbp-0x10]
    28a3:	48 8b 40 38          	mov    rax,QWORD PTR [rax+0x38]
    28a7:	48 89 45 f8          	mov    QWORD PTR [rbp-0x8],rax
    28ab:	48 8b 45 f8          	mov    rax,QWORD PTR [rbp-0x8]
    28af:	48 c1 e8 20          	shr    rax,0x20
    28b3:	89 05 4f 3b 22 00    	mov    DWORD PTR [rip+0x223b4f],eax        # 226408 <g_xsave_mask_high>
    28b9:	48 8b 45 f8          	mov    rax,QWORD PTR [rbp-0x8]
    28bd:	89 05 49 3b 22 00    	mov    DWORD PTR [rip+0x223b49],eax        # 22640c <g_xsave_mask_low>
    28c3:	48 8b 45 f8          	mov    rax,QWORD PTR [rbp-0x8]
    28c7:	c9                   	leave  
    28c8:	c3                   	ret    

00000000000028c9 <_ZL28set_global_feature_indicatormm>:
    28c9:	55                   	push   rbp
    28ca:	48 89 e5             	mov    rbp,rsp
    28cd:	48 89 7d f8          	mov    QWORD PTR [rbp-0x8],rdi
    28d1:	48 89 75 f0          	mov    QWORD PTR [rbp-0x10],rsi
    28d5:	48 8b 45 f8          	mov    rax,QWORD PTR [rbp-0x8]
    28d9:	48 25 00 00 00 e1    	and    rax,0xffffffffe1000000
    28df:	48 85 c0             	test   rax,rax
    28e2:	74 08                	je     28ec <_ZL28set_global_feature_indicatormm+0x23>
    28e4:	48 81 65 f8 ff ff ff 	and    QWORD PTR [rbp-0x8],0x1effffff
    28eb:	1e 
    28ec:	48 8b 45 f8          	mov    rax,QWORD PTR [rbp-0x8]
    28f0:	48 25 00 fe ff ff    	and    rax,0xfffffffffffffe00
    28f6:	48 85 c0             	test   rax,rax
    28f9:	75 0a                	jne    2905 <_ZL28set_global_feature_indicatormm+0x3c>
    28fb:	b8 ff ff ff ff       	mov    eax,0xffffffff
    2900:	e9 d8 00 00 00       	jmp    29dd <_ZL28set_global_feature_indicatormm+0x114>
    2905:	48 8b 45 f8          	mov    rax,QWORD PTR [rbp-0x8]
    2909:	83 e0 20             	and    eax,0x20
    290c:	48 85 c0             	test   rax,rax
    290f:	74 11                	je     2922 <_ZL28set_global_feature_indicatormm+0x59>
    2911:	48 8b 45 f8          	mov    rax,QWORD PTR [rbp-0x8]
    2915:	83 e0 1f             	and    eax,0x1f
    2918:	48 83 f8 1f          	cmp    rax,0x1f
    291c:	0f 85 8f 00 00 00    	jne    29b1 <_ZL28set_global_feature_indicatormm+0xe8>
    2922:	48 8b 45 f8          	mov    rax,QWORD PTR [rbp-0x8]
    2926:	83 e0 40             	and    eax,0x40
    2929:	48 85 c0             	test   rax,rax
    292c:	74 0d                	je     293b <_ZL28set_global_feature_indicatormm+0x72>
    292e:	48 8b 45 f8          	mov    rax,QWORD PTR [rbp-0x8]
    2932:	83 e0 3f             	and    eax,0x3f
    2935:	48 83 f8 3f          	cmp    rax,0x3f
    2939:	75 76                	jne    29b1 <_ZL28set_global_feature_indicatormm+0xe8>
    293b:	48 8b 45 f8          	mov    rax,QWORD PTR [rbp-0x8]
    293f:	25 80 00 00 00       	and    eax,0x80
    2944:	48 85 c0             	test   rax,rax
    2947:	74 0d                	je     2956 <_ZL28set_global_feature_indicatormm+0x8d>
    2949:	48 8b 45 f8          	mov    rax,QWORD PTR [rbp-0x8]
    294d:	83 e0 7f             	and    eax,0x7f
    2950:	48 83 f8 7f          	cmp    rax,0x7f
    2954:	75 5b                	jne    29b1 <_ZL28set_global_feature_indicatormm+0xe8>
    2956:	48 8b 45 f8          	mov    rax,QWORD PTR [rbp-0x8]
    295a:	25 00 01 00 00       	and    eax,0x100
    295f:	48 85 c0             	test   rax,rax
    2962:	74 0f                	je     2973 <_ZL28set_global_feature_indicatormm+0xaa>
    2964:	48 8b 45 f8          	mov    rax,QWORD PTR [rbp-0x8]
    2968:	0f b6 c0             	movzx  eax,al
    296b:	48 3d ff 00 00 00    	cmp    rax,0xff
    2971:	75 3e                	jne    29b1 <_ZL28set_global_feature_indicatormm+0xe8>
    2973:	48 8b 45 f8          	mov    rax,QWORD PTR [rbp-0x8]
    2977:	25 00 02 00 00       	and    eax,0x200
    297c:	48 85 c0             	test   rax,rax
    297f:	74 11                	je     2992 <_ZL28set_global_feature_indicatormm+0xc9>
    2981:	48 8b 45 f8          	mov    rax,QWORD PTR [rbp-0x8]
    2985:	25 ff 01 00 00       	and    eax,0x1ff
    298a:	48 3d ff 01 00 00    	cmp    rax,0x1ff
    2990:	75 1f                	jne    29b1 <_ZL28set_global_feature_indicatormm+0xe8>
    2992:	48 8b 45 f8          	mov    rax,QWORD PTR [rbp-0x8]
    2996:	25 00 04 00 00       	and    eax,0x400
    299b:	48 85 c0             	test   rax,rax
    299e:	74 18                	je     29b8 <_ZL28set_global_feature_indicatormm+0xef>
    29a0:	48 8b 45 f8          	mov    rax,QWORD PTR [rbp-0x8]
    29a4:	25 ff 03 00 00       	and    eax,0x3ff
    29a9:	48 3d ff 03 00 00    	cmp    rax,0x3ff
    29af:	74 07                	je     29b8 <_ZL28set_global_feature_indicatormm+0xef>
    29b1:	b8 ff ff ff ff       	mov    eax,0xffffffff
    29b6:	eb 25                	jmp    29dd <_ZL28set_global_feature_indicatormm+0x114>
    29b8:	48 8b 45 f0          	mov    rax,QWORD PTR [rbp-0x10]
    29bc:	83 e0 06             	and    eax,0x6
    29bf:	48 83 f8 06          	cmp    rax,0x6
    29c3:	74 08                	je     29cd <_ZL28set_global_feature_indicatormm+0x104>
    29c5:	48 81 65 f8 ff 7f 12 	and    QWORD PTR [rbp-0x8],0xfffffffff1127fff
    29cc:	f1 
    29cd:	48 8b 45 f8          	mov    rax,QWORD PTR [rbp-0x8]
    29d1:	48 89 05 68 24 22 00 	mov    QWORD PTR [rip+0x222468],rax        # 224e40 <g_cpu_feature_indicator>
    29d8:	b8 00 00 00 00       	mov    eax,0x0
    29dd:	5d                   	pop    rbp
    29de:	c3                   	ret    

00000000000029df <init_optimized_libs>:
    29df:	55                   	push   rbp
    29e0:	48 89 e5             	mov    rbp,rsp
    29e3:	48 83 ec 20          	sub    rsp,0x20
    29e7:	48 89 7d f8          	mov    QWORD PTR [rbp-0x8],rdi
    29eb:	48 89 75 f0          	mov    QWORD PTR [rbp-0x10],rsi
    29ef:	48 89 55 e8          	mov    QWORD PTR [rbp-0x18],rdx
    29f3:	8b 05 07 3a 22 00    	mov    eax,DWORD PTR [rip+0x223a07]        # 226400 <g_enclave_state>
    29f9:	83 f8 01             	cmp    eax,0x1
    29fc:	74 07                	je     2a05 <init_optimized_libs+0x26>
    29fe:	b8 ff ff ff ff       	mov    eax,0xffffffff
    2a03:	eb 6d                	jmp    2a72 <init_optimized_libs+0x93>
    2a05:	48 8b 55 e8          	mov    rdx,QWORD PTR [rbp-0x18]
    2a09:	48 8b 45 f8          	mov    rax,QWORD PTR [rbp-0x8]
    2a0d:	48 89 d6             	mov    rsi,rdx
    2a10:	48 89 c7             	mov    rdi,rax
    2a13:	e8 b1 fe ff ff       	call   28c9 <_ZL28set_global_feature_indicatormm>
    2a18:	85 c0                	test   eax,eax
    2a1a:	0f 95 c0             	setne  al
    2a1d:	84 c0                	test   al,al
    2a1f:	74 07                	je     2a28 <init_optimized_libs+0x49>
    2a21:	b8 ff ff ff ff       	mov    eax,0xffffffff
    2a26:	eb 4a                	jmp    2a72 <init_optimized_libs+0x93>
    2a28:	48 8b 05 11 24 22 00 	mov    rax,QWORD PTR [rip+0x222411]        # 224e40 <g_cpu_feature_indicator>
    2a2f:	48 89 c7             	mov    rdi,rax
    2a32:	e8 12 7f 00 00       	call   a949 <sgx_init_string_lib>
    2a37:	85 c0                	test   eax,eax
    2a39:	0f 95 c0             	setne  al
    2a3c:	84 c0                	test   al,al
    2a3e:	74 07                	je     2a47 <init_optimized_libs+0x68>
    2a40:	b8 ff ff ff ff       	mov    eax,0xffffffff
    2a45:	eb 2b                	jmp    2a72 <init_optimized_libs+0x93>
    2a47:	48 8b 05 f2 23 22 00 	mov    rax,QWORD PTR [rip+0x2223f2]        # 224e40 <g_cpu_feature_indicator>
    2a4e:	48 8b 55 f0          	mov    rdx,QWORD PTR [rbp-0x10]
    2a52:	48 89 d6             	mov    rsi,rdx
    2a55:	48 89 c7             	mov    rdi,rax
    2a58:	e8 17 4e 01 00       	call   17874 <sgx_init_crypto_lib>
    2a5d:	85 c0                	test   eax,eax
    2a5f:	0f 95 c0             	setne  al
    2a62:	84 c0                	test   al,al
    2a64:	74 07                	je     2a6d <init_optimized_libs+0x8e>
    2a66:	b8 ff ff ff ff       	mov    eax,0xffffffff
    2a6b:	eb 05                	jmp    2a72 <init_optimized_libs+0x93>
    2a6d:	b8 00 00 00 00       	mov    eax,0x0
    2a72:	c9                   	leave  
    2a73:	c3                   	ret    

0000000000002a74 <do_init_switchless>:
    2a74:	55                   	push   rbp
    2a75:	48 89 e5             	mov    rbp,rsp
    2a78:	48 89 7d f8          	mov    QWORD PTR [rbp-0x8],rdi
    2a7c:	b8 01 00 00 00       	mov    eax,0x1
    2a81:	5d                   	pop    rbp
    2a82:	c3                   	ret    

0000000000002a83 <do_run_switchless_tworker>:
    2a83:	55                   	push   rbp
    2a84:	48 89 e5             	mov    rbp,rsp
    2a87:	48 89 7d f8          	mov    QWORD PTR [rbp-0x8],rdi
    2a8b:	b8 01 00 00 00       	mov    eax,0x1
    2a90:	5d                   	pop    rbp
    2a91:	c3                   	ret    

0000000000002a92 <sgx_accept_forward>:
    2a92:	55                   	push   rbp
    2a93:	48 89 e5             	mov    rbp,rsp
    2a96:	48 89 7d f8          	mov    QWORD PTR [rbp-0x8],rdi
    2a9a:	48 89 75 f0          	mov    QWORD PTR [rbp-0x10],rsi
    2a9e:	48 89 55 e8          	mov    QWORD PTR [rbp-0x18],rdx
    2aa2:	b8 00 00 00 00       	mov    eax,0x0
    2aa7:	5d                   	pop    rbp
    2aa8:	c3                   	ret    

0000000000002aa9 <apply_pages_within_exception>:
    2aa9:	55                   	push   rbp
    2aaa:	48 89 e5             	mov    rbp,rsp
    2aad:	48 89 7d f8          	mov    QWORD PTR [rbp-0x8],rdi
    2ab1:	48 89 75 f0          	mov    QWORD PTR [rbp-0x10],rsi
    2ab5:	b8 00 00 00 00       	mov    eax,0x0
    2aba:	5d                   	pop    rbp
    2abb:	c3                   	ret    

0000000000002abc <apply_EPC_pages>:
    2abc:	55                   	push   rbp
    2abd:	48 89 e5             	mov    rbp,rsp
    2ac0:	48 89 7d f8          	mov    QWORD PTR [rbp-0x8],rdi
    2ac4:	48 89 75 f0          	mov    QWORD PTR [rbp-0x10],rsi
    2ac8:	b8 00 00 00 00       	mov    eax,0x0
    2acd:	5d                   	pop    rbp
    2ace:	c3                   	ret    

0000000000002acf <trim_EPC_pages>:
    2acf:	55                   	push   rbp
    2ad0:	48 89 e5             	mov    rbp,rsp
    2ad3:	48 89 7d f8          	mov    QWORD PTR [rbp-0x8],rdi
    2ad7:	48 89 75 f0          	mov    QWORD PTR [rbp-0x10],rsi
    2adb:	b8 00 00 00 00       	mov    eax,0x0
    2ae0:	5d                   	pop    rbp
    2ae1:	c3                   	ret    

0000000000002ae2 <do_add_thread>:
    2ae2:	55                   	push   rbp
    2ae3:	48 89 e5             	mov    rbp,rsp
    2ae6:	48 89 7d f8          	mov    QWORD PTR [rbp-0x8],rdi
    2aea:	b8 00 00 00 00       	mov    eax,0x0
    2aef:	5d                   	pop    rbp
    2af0:	c3                   	ret    

0000000000002af1 <_ZL16init_stack_guardPv>:
    2af1:	55                   	push   rbp
    2af2:	48 89 e5             	mov    rbp,rsp
    2af5:	48 83 ec 20          	sub    rsp,0x20
    2af9:	48 89 7d e8          	mov    QWORD PTR [rbp-0x18],rdi
    2afd:	e8 21 d3 01 00       	call   1fe23 <get_thread_data>
    2b02:	48 89 45 f8          	mov    QWORD PTR [rbp-0x8],rax
    2b06:	48 83 7d f8 00       	cmp    QWORD PTR [rbp-0x8],0x0
    2b0b:	74 21                	je     2b2e <_ZL16init_stack_guardPv+0x3d>
    2b0d:	48 8b 45 f8          	mov    rax,QWORD PTR [rbp-0x8]
    2b11:	48 8b 50 10          	mov    rdx,QWORD PTR [rax+0x10]
    2b15:	48 8b 45 f8          	mov    rax,QWORD PTR [rbp-0x8]
    2b19:	48 8b 40 08          	mov    rax,QWORD PTR [rax+0x8]
    2b1d:	48 39 c2             	cmp    rdx,rax
    2b20:	75 13                	jne    2b35 <_ZL16init_stack_guardPv+0x44>
    2b22:	48 8b 05 af 30 22 00 	mov    rax,QWORD PTR [rip+0x2230af]        # 225bd8 <g_global_data+0x18>
    2b29:	48 85 c0             	test   rax,rax
    2b2c:	74 07                	je     2b35 <_ZL16init_stack_guardPv+0x44>
    2b2e:	b8 01 00 00 00       	mov    eax,0x1
    2b33:	eb 05                	jmp    2b3a <_ZL16init_stack_guardPv+0x49>
    2b35:	b8 00 00 00 00       	mov    eax,0x0
    2b3a:	84 c0                	test   al,al
    2b3c:	74 6d                	je     2bab <_ZL16init_stack_guardPv+0xba>
    2b3e:	48 8b 15 9b 30 22 00 	mov    rdx,QWORD PTR [rip+0x22309b]        # 225be0 <g_global_data+0x20>
    2b45:	48 8b 45 e8          	mov    rax,QWORD PTR [rbp-0x18]
    2b49:	48 01 d0             	add    rax,rdx
    2b4c:	48 89 45 f8          	mov    QWORD PTR [rbp-0x8],rax
    2b50:	48 83 7d f8 00       	cmp    QWORD PTR [rbp-0x8],0x0
    2b55:	75 1f                	jne    2b76 <_ZL16init_stack_guardPv+0x85>
    2b57:	48 8d 0d ba d7 01 00 	lea    rcx,[rip+0x1d7ba]        # 20318 <g_dyn_entry_table+0x18>
    2b5e:	48 8d 15 0b d8 01 00 	lea    rdx,[rip+0x1d80b]        # 20370 <_ZZL16init_stack_guardPvE8__func__>
    2b65:	be 3f 00 00 00       	mov    esi,0x3f
    2b6a:	48 8d 3d bf d7 01 00 	lea    rdi,[rip+0x1d7bf]        # 20330 <g_dyn_entry_table+0x30>
    2b71:	e8 da 1a 00 00       	call   4650 <__assert>
    2b76:	48 c7 45 f0 00 00 00 	mov    QWORD PTR [rbp-0x10],0x0
    2b7d:	00 
    2b7e:	48 8d 45 f0          	lea    rax,[rbp-0x10]
    2b82:	be 08 00 00 00       	mov    esi,0x8
    2b87:	48 89 c7             	mov    rdi,rax
    2b8a:	e8 88 e4 ff ff       	call   1017 <sgx_read_rand>
    2b8f:	85 c0                	test   eax,eax
    2b91:	0f 95 c0             	setne  al
    2b94:	84 c0                	test   al,al
    2b96:	74 05                	je     2b9d <_ZL16init_stack_guardPv+0xac>
    2b98:	e8 56 d6 01 00       	call   201f3 <abort>
    2b9d:	48 8b 55 f0          	mov    rdx,QWORD PTR [rbp-0x10]
    2ba1:	48 8b 45 f8          	mov    rax,QWORD PTR [rbp-0x8]
    2ba5:	48 89 50 28          	mov    QWORD PTR [rax+0x28],rdx
    2ba9:	eb 01                	jmp    2bac <_ZL16init_stack_guardPv+0xbb>
    2bab:	90                   	nop
    2bac:	c9                   	leave  
    2bad:	c3                   	ret    

0000000000002bae <_ZL8_EGETKEYP14_key_request_tPh>:
    2bae:	55                   	push   rbp
    2baf:	48 89 e5             	mov    rbp,rsp
    2bb2:	48 81 ec 00 01 00 00 	sub    rsp,0x100
    2bb9:	48 89 bd 08 ff ff ff 	mov    QWORD PTR [rbp-0xf8],rdi
    2bc0:	48 89 b5 00 ff ff ff 	mov    QWORD PTR [rbp-0x100],rsi
    2bc7:	64 48 8b 04 25 28 00 	mov    rax,QWORD PTR fs:0x28
    2bce:	00 00 
    2bd0:	48 89 45 f8          	mov    QWORD PTR [rbp-0x8],rax
    2bd4:	31 c0                	xor    eax,eax
    2bd6:	48 8b 85 08 ff ff ff 	mov    rax,QWORD PTR [rbp-0xf8]
    2bdd:	25 ff 01 00 00       	and    eax,0x1ff
    2be2:	48 85 c0             	test   rax,rax
    2be5:	0f 95 c0             	setne  al
    2be8:	0f b6 c0             	movzx  eax,al
    2beb:	48 85 c0             	test   rax,rax
    2bee:	74 05                	je     2bf5 <_ZL8_EGETKEYP14_key_request_tPh+0x47>
    2bf0:	e8 fe d5 01 00       	call   201f3 <abort>
    2bf5:	48 8b 85 08 ff ff ff 	mov    rax,QWORD PTR [rbp-0xf8]
    2bfc:	be 00 02 00 00       	mov    esi,0x200
    2c01:	48 89 c7             	mov    rdi,rax
    2c04:	e8 d2 e0 ff ff       	call   cdb <sgx_is_within_enclave>
    2c09:	85 c0                	test   eax,eax
    2c0b:	0f 94 c0             	sete   al
    2c0e:	0f b6 c0             	movzx  eax,al
    2c11:	48 85 c0             	test   rax,rax
    2c14:	0f 95 c0             	setne  al
    2c17:	84 c0                	test   al,al
    2c19:	74 05                	je     2c20 <_ZL8_EGETKEYP14_key_request_tPh+0x72>
    2c1b:	e8 d3 d5 01 00       	call   201f3 <abort>
    2c20:	48 8b 85 00 ff ff ff 	mov    rax,QWORD PTR [rbp-0x100]
    2c27:	83 e0 0f             	and    eax,0xf
    2c2a:	48 85 c0             	test   rax,rax
    2c2d:	0f 95 c0             	setne  al
    2c30:	0f b6 c0             	movzx  eax,al
    2c33:	48 85 c0             	test   rax,rax
    2c36:	74 05                	je     2c3d <_ZL8_EGETKEYP14_key_request_tPh+0x8f>
    2c38:	e8 b6 d5 01 00       	call   201f3 <abort>
    2c3d:	48 8b 85 00 ff ff ff 	mov    rax,QWORD PTR [rbp-0x100]
    2c44:	be 10 00 00 00       	mov    esi,0x10
    2c49:	48 89 c7             	mov    rdi,rax
    2c4c:	e8 8a e0 ff ff       	call   cdb <sgx_is_within_enclave>
    2c51:	85 c0                	test   eax,eax
    2c53:	0f 94 c0             	sete   al
    2c56:	0f b6 c0             	movzx  eax,al
    2c59:	48 85 c0             	test   rax,rax
    2c5c:	0f 95 c0             	setne  al
    2c5f:	84 c0                	test   al,al
    2c61:	74 05                	je     2c68 <_ZL8_EGETKEYP14_key_request_tPh+0xba>
    2c63:	e8 8b d5 01 00       	call   201f3 <abort>
    2c68:	48 8b 85 08 ff ff ff 	mov    rax,QWORD PTR [rbp-0xf8]
    2c6f:	0f b7 40 02          	movzx  eax,WORD PTR [rax+0x2]
    2c73:	0f b7 c0             	movzx  eax,ax
    2c76:	83 e0 fc             	and    eax,0xfffffffc
    2c79:	85 c0                	test   eax,eax
    2c7b:	0f 95 c0             	setne  al
    2c7e:	0f b6 c0             	movzx  eax,al
    2c81:	48 85 c0             	test   rax,rax
    2c84:	74 05                	je     2c8b <_ZL8_EGETKEYP14_key_request_tPh+0xdd>
    2c86:	e8 68 d5 01 00       	call   201f3 <abort>
    2c8b:	48 8b 85 08 ff ff ff 	mov    rax,QWORD PTR [rbp-0xf8]
    2c92:	48 83 c0 06          	add    rax,0x6
    2c96:	48 89 85 20 ff ff ff 	mov    QWORD PTR [rbp-0xe0],rax
    2c9d:	c7 85 18 ff ff ff 00 	mov    DWORD PTR [rbp-0xe8],0x0
    2ca4:	00 00 00 
    2ca7:	83 bd 18 ff ff ff 01 	cmp    DWORD PTR [rbp-0xe8],0x1
    2cae:	77 2e                	ja     2cde <_ZL8_EGETKEYP14_key_request_tPh+0x130>
    2cb0:	8b 95 18 ff ff ff    	mov    edx,DWORD PTR [rbp-0xe8]
    2cb6:	48 8b 85 20 ff ff ff 	mov    rax,QWORD PTR [rbp-0xe0]
    2cbd:	48 01 d0             	add    rax,rdx
    2cc0:	0f b6 00             	movzx  eax,BYTE PTR [rax]
    2cc3:	84 c0                	test   al,al
    2cc5:	0f 95 c0             	setne  al
    2cc8:	0f b6 c0             	movzx  eax,al
    2ccb:	48 85 c0             	test   rax,rax
    2cce:	74 05                	je     2cd5 <_ZL8_EGETKEYP14_key_request_tPh+0x127>
    2cd0:	e8 1e d5 01 00       	call   201f3 <abort>
    2cd5:	83 85 18 ff ff ff 01 	add    DWORD PTR [rbp-0xe8],0x1
    2cdc:	eb c9                	jmp    2ca7 <_ZL8_EGETKEYP14_key_request_tPh+0xf9>
    2cde:	48 8b 85 08 ff ff ff 	mov    rax,QWORD PTR [rbp-0xf8]
    2ce5:	48 83 c0 4e          	add    rax,0x4e
    2ce9:	48 89 85 20 ff ff ff 	mov    QWORD PTR [rbp-0xe0],rax
    2cf0:	c7 85 1c ff ff ff 00 	mov    DWORD PTR [rbp-0xe4],0x0
    2cf7:	00 00 00 
    2cfa:	81 bd 1c ff ff ff b1 	cmp    DWORD PTR [rbp-0xe4],0x1b1
    2d01:	01 00 00 
    2d04:	77 2e                	ja     2d34 <_ZL8_EGETKEYP14_key_request_tPh+0x186>
    2d06:	8b 95 1c ff ff ff    	mov    edx,DWORD PTR [rbp-0xe4]
    2d0c:	48 8b 85 20 ff ff ff 	mov    rax,QWORD PTR [rbp-0xe0]
    2d13:	48 01 d0             	add    rax,rdx
    2d16:	0f b6 00             	movzx  eax,BYTE PTR [rax]
    2d19:	84 c0                	test   al,al
    2d1b:	0f 95 c0             	setne  al
    2d1e:	0f b6 c0             	movzx  eax,al
    2d21:	48 85 c0             	test   rax,rax
    2d24:	74 05                	je     2d2b <_ZL8_EGETKEYP14_key_request_tPh+0x17d>
    2d26:	e8 c8 d4 01 00       	call   201f3 <abort>
    2d2b:	83 85 1c ff ff ff 01 	add    DWORD PTR [rbp-0xe4],0x1
    2d32:	eb c6                	jmp    2cfa <_ZL8_EGETKEYP14_key_request_tPh+0x14c>
    2d34:	48 8b 05 25 37 22 00 	mov    rax,QWORD PTR [rip+0x223725]        # 226460 <g_global_data_sim>
    2d3b:	48 89 85 28 ff ff ff 	mov    QWORD PTR [rbp-0xd8],rax
    2d42:	48 8d 85 40 ff ff ff 	lea    rax,[rbp-0xc0]
    2d49:	ba b8 00 00 00       	mov    edx,0xb8
    2d4e:	be 00 00 00 00       	mov    esi,0x0
    2d53:	48 89 c7             	mov    rdi,rax
    2d56:	e8 ea 75 00 00       	call   a345 <memset>
    2d5b:	48 8b 85 08 ff ff ff 	mov    rax,QWORD PTR [rbp-0xf8]
    2d62:	0f b7 00             	movzx  eax,WORD PTR [rax]
    2d65:	66 89 85 48 ff ff ff 	mov    WORD PTR [rbp-0xb8],ax
    2d6c:	48 8d 85 30 ff ff ff 	lea    rax,[rbp-0xd0]
    2d73:	ba 10 00 00 00       	mov    edx,0x10
    2d78:	be 00 00 00 00       	mov    esi,0x0
    2d7d:	48 89 c7             	mov    rdi,rax
    2d80:	e8 c0 75 00 00       	call   a345 <memset>
    2d85:	48 8b 85 08 ff ff ff 	mov    rax,QWORD PTR [rbp-0xf8]
    2d8c:	48 8b 40 18          	mov    rax,QWORD PTR [rax+0x18]
    2d90:	48 83 c8 03          	or     rax,0x3
    2d94:	48 89 85 30 ff ff ff 	mov    QWORD PTR [rbp-0xd0],rax
    2d9b:	48 8b 95 30 ff ff ff 	mov    rdx,QWORD PTR [rbp-0xd0]
    2da2:	48 8b 85 28 ff ff ff 	mov    rax,QWORD PTR [rbp-0xd8]
    2da9:	48 8b 40 30          	mov    rax,QWORD PTR [rax+0x30]
    2dad:	48 21 d0             	and    rax,rdx
    2db0:	48 89 85 30 ff ff ff 	mov    QWORD PTR [rbp-0xd0],rax
    2db7:	48 8b 85 08 ff ff ff 	mov    rax,QWORD PTR [rbp-0xf8]
    2dbe:	48 8b 50 20          	mov    rdx,QWORD PTR [rax+0x20]
    2dc2:	48 8b 85 28 ff ff ff 	mov    rax,QWORD PTR [rbp-0xd8]
    2dc9:	48 8b 40 38          	mov    rax,QWORD PTR [rax+0x38]
    2dcd:	48 21 d0             	and    rax,rdx
    2dd0:	48 89 85 38 ff ff ff 	mov    QWORD PTR [rbp-0xc8],rax
    2dd7:	48 8b 85 08 ff ff ff 	mov    rax,QWORD PTR [rbp-0xf8]
    2dde:	48 83 c0 08          	add    rax,0x8
    2de2:	48 8d 95 40 ff ff ff 	lea    rdx,[rbp-0xc0]
    2de9:	48 8d 4a 30          	lea    rcx,[rdx+0x30]
    2ded:	ba 10 00 00 00       	mov    edx,0x10
    2df2:	48 89 ce             	mov    rsi,rcx
    2df5:	48 89 c7             	mov    rdi,rax
    2df8:	e8 3c 73 00 00       	call   a139 <memcmp>
    2dfd:	85 c0                	test   eax,eax
    2dff:	0f 94 c0             	sete   al
    2e02:	84 c0                	test   al,al
    2e04:	74 1f                	je     2e25 <_ZL8_EGETKEYP14_key_request_tPh+0x277>
    2e06:	48 8b 85 08 ff ff ff 	mov    rax,QWORD PTR [rbp-0xf8]
    2e0d:	48 83 c0 08          	add    rax,0x8
    2e11:	ba 10 00 00 00       	mov    edx,0x10
    2e16:	48 8d 35 73 d5 01 00 	lea    rsi,[rip+0x1d573]        # 20390 <_ZL14DEFAULT_CPUSVN>
    2e1d:	48 89 c7             	mov    rdi,rax
    2e20:	e8 b2 74 00 00       	call   a2d7 <memcpy>
    2e25:	48 8b 85 08 ff ff ff 	mov    rax,QWORD PTR [rbp-0xf8]
    2e2c:	0f b7 00             	movzx  eax,WORD PTR [rax]
    2e2f:	0f b7 c0             	movzx  eax,ax
    2e32:	83 f8 04             	cmp    eax,0x4
    2e35:	0f 87 c8 07 00 00    	ja     3603 <_ZL8_EGETKEYP14_key_request_tPh+0xa55>
    2e3b:	89 c0                	mov    eax,eax
    2e3d:	48 8d 14 85 00 00 00 	lea    rdx,[rax*4+0x0]
    2e44:	00 
    2e45:	48 8d 05 84 d5 01 00 	lea    rax,[rip+0x1d584]        # 203d0 <_ZL20SIMU_OWNER_EPOCH_MSR+0x10>
    2e4c:	8b 04 02             	mov    eax,DWORD PTR [rdx+rax*1]
    2e4f:	48 63 d0             	movsxd rdx,eax
    2e52:	48 8d 05 77 d5 01 00 	lea    rax,[rip+0x1d577]        # 203d0 <_ZL20SIMU_OWNER_EPOCH_MSR+0x10>
    2e59:	48 01 d0             	add    rax,rdx
    2e5c:	ff e0                	jmp    rax
    2e5e:	48 8b 85 08 ff ff ff 	mov    rax,QWORD PTR [rbp-0xf8]
    2e65:	0f b7 50 04          	movzx  edx,WORD PTR [rax+0x4]
    2e69:	48 8b 85 28 ff ff ff 	mov    rax,QWORD PTR [rbp-0xd8]
    2e70:	0f b7 80 02 01 00 00 	movzx  eax,WORD PTR [rax+0x102]
    2e77:	66 39 c2             	cmp    dx,ax
    2e7a:	76 0a                	jbe    2e86 <_ZL8_EGETKEYP14_key_request_tPh+0x2d8>
    2e7c:	b8 40 00 00 00       	mov    eax,0x40
    2e81:	e9 a2 07 00 00       	jmp    3628 <_ZL8_EGETKEYP14_key_request_tPh+0xa7a>
    2e86:	48 8b 85 08 ff ff ff 	mov    rax,QWORD PTR [rbp-0xf8]
    2e8d:	48 83 c0 08          	add    rax,0x8
    2e91:	ba 10 00 00 00       	mov    edx,0x10
    2e96:	48 8d 35 03 d5 01 00 	lea    rsi,[rip+0x1d503]        # 203a0 <_ZL15UPGRADED_CPUSVN>
    2e9d:	48 89 c7             	mov    rdi,rax
    2ea0:	e8 94 72 00 00       	call   a139 <memcmp>
    2ea5:	85 c0                	test   eax,eax
    2ea7:	74 4d                	je     2ef6 <_ZL8_EGETKEYP14_key_request_tPh+0x348>
    2ea9:	48 8b 85 08 ff ff ff 	mov    rax,QWORD PTR [rbp-0xf8]
    2eb0:	48 83 c0 08          	add    rax,0x8
    2eb4:	ba 10 00 00 00       	mov    edx,0x10
    2eb9:	48 8d 35 d0 d4 01 00 	lea    rsi,[rip+0x1d4d0]        # 20390 <_ZL14DEFAULT_CPUSVN>
    2ec0:	48 89 c7             	mov    rdi,rax
    2ec3:	e8 71 72 00 00       	call   a139 <memcmp>
    2ec8:	85 c0                	test   eax,eax
    2eca:	74 2a                	je     2ef6 <_ZL8_EGETKEYP14_key_request_tPh+0x348>
    2ecc:	48 8b 85 08 ff ff ff 	mov    rax,QWORD PTR [rbp-0xf8]
    2ed3:	48 83 c0 08          	add    rax,0x8
    2ed7:	ba 10 00 00 00       	mov    edx,0x10
    2edc:	48 8d 35 cd d4 01 00 	lea    rsi,[rip+0x1d4cd]        # 203b0 <_ZL17DOWNGRADED_CPUSVN>
    2ee3:	48 89 c7             	mov    rdi,rax
    2ee6:	e8 4e 72 00 00       	call   a139 <memcmp>
    2eeb:	85 c0                	test   eax,eax
    2eed:	74 07                	je     2ef6 <_ZL8_EGETKEYP14_key_request_tPh+0x348>
    2eef:	b8 01 00 00 00       	mov    eax,0x1
    2ef4:	eb 05                	jmp    2efb <_ZL8_EGETKEYP14_key_request_tPh+0x34d>
    2ef6:	b8 00 00 00 00       	mov    eax,0x0
    2efb:	84 c0                	test   al,al
    2efd:	74 0a                	je     2f09 <_ZL8_EGETKEYP14_key_request_tPh+0x35b>
    2eff:	b8 20 00 00 00       	mov    eax,0x20
    2f04:	e9 1f 07 00 00       	jmp    3628 <_ZL8_EGETKEYP14_key_request_tPh+0xa7a>
    2f09:	ba 10 00 00 00       	mov    edx,0x10
    2f0e:	48 8d 35 7b d4 01 00 	lea    rsi,[rip+0x1d47b]        # 20390 <_ZL14DEFAULT_CPUSVN>
    2f15:	48 8d 3d 4c 35 22 00 	lea    rdi,[rip+0x22354c]        # 226468 <g_global_data_sim+0x8>
    2f1c:	e8 18 72 00 00       	call   a139 <memcmp>
    2f21:	85 c0                	test   eax,eax
    2f23:	75 23                	jne    2f48 <_ZL8_EGETKEYP14_key_request_tPh+0x39a>
    2f25:	48 8b 85 08 ff ff ff 	mov    rax,QWORD PTR [rbp-0xf8]
    2f2c:	48 83 c0 08          	add    rax,0x8
    2f30:	ba 10 00 00 00       	mov    edx,0x10
    2f35:	48 8d 35 64 d4 01 00 	lea    rsi,[rip+0x1d464]        # 203a0 <_ZL15UPGRADED_CPUSVN>
    2f3c:	48 89 c7             	mov    rdi,rax
    2f3f:	e8 f5 71 00 00       	call   a139 <memcmp>
    2f44:	85 c0                	test   eax,eax
    2f46:	74 3f                	je     2f87 <_ZL8_EGETKEYP14_key_request_tPh+0x3d9>
    2f48:	ba 10 00 00 00       	mov    edx,0x10
    2f4d:	48 8d 35 5c d4 01 00 	lea    rsi,[rip+0x1d45c]        # 203b0 <_ZL17DOWNGRADED_CPUSVN>
    2f54:	48 8d 3d 0d 35 22 00 	lea    rdi,[rip+0x22350d]        # 226468 <g_global_data_sim+0x8>
    2f5b:	e8 d9 71 00 00       	call   a139 <memcmp>
    2f60:	85 c0                	test   eax,eax
    2f62:	75 2a                	jne    2f8e <_ZL8_EGETKEYP14_key_request_tPh+0x3e0>
    2f64:	48 8b 85 08 ff ff ff 	mov    rax,QWORD PTR [rbp-0xf8]
    2f6b:	48 83 c0 08          	add    rax,0x8
    2f6f:	ba 10 00 00 00       	mov    edx,0x10
    2f74:	48 8d 35 35 d4 01 00 	lea    rsi,[rip+0x1d435]        # 203b0 <_ZL17DOWNGRADED_CPUSVN>
    2f7b:	48 89 c7             	mov    rdi,rax
    2f7e:	e8 b6 71 00 00       	call   a139 <memcmp>
    2f83:	85 c0                	test   eax,eax
    2f85:	74 07                	je     2f8e <_ZL8_EGETKEYP14_key_request_tPh+0x3e0>
    2f87:	b8 01 00 00 00       	mov    eax,0x1
    2f8c:	eb 05                	jmp    2f93 <_ZL8_EGETKEYP14_key_request_tPh+0x3e5>
    2f8e:	b8 00 00 00 00       	mov    eax,0x0
    2f93:	84 c0                	test   al,al
    2f95:	74 0a                	je     2fa1 <_ZL8_EGETKEYP14_key_request_tPh+0x3f3>
    2f97:	b8 20 00 00 00       	mov    eax,0x20
    2f9c:	e9 87 06 00 00       	jmp    3628 <_ZL8_EGETKEYP14_key_request_tPh+0xa7a>
    2fa1:	c7 85 40 ff ff ff b0 	mov    DWORD PTR [rbp-0xc0],0xb0
    2fa8:	00 00 00 
    2fab:	48 8b 85 08 ff ff ff 	mov    rax,QWORD PTR [rbp-0xf8]
    2fb2:	0f b7 40 02          	movzx  eax,WORD PTR [rax+0x2]
    2fb6:	0f b7 c0             	movzx  eax,ax
    2fb9:	83 e0 01             	and    eax,0x1
    2fbc:	85 c0                	test   eax,eax
    2fbe:	74 26                	je     2fe6 <_ZL8_EGETKEYP14_key_request_tPh+0x438>
    2fc0:	48 8b 85 28 ff ff ff 	mov    rax,QWORD PTR [rbp-0xd8]
    2fc7:	48 8d 48 40          	lea    rcx,[rax+0x40]
    2fcb:	48 8d 85 40 ff ff ff 	lea    rax,[rbp-0xc0]
    2fd2:	48 83 c0 54          	add    rax,0x54
    2fd6:	ba 20 00 00 00       	mov    edx,0x20
    2fdb:	48 89 ce             	mov    rsi,rcx
    2fde:	48 89 c7             	mov    rdi,rax
    2fe1:	e8 f1 72 00 00       	call   a2d7 <memcpy>
    2fe6:	48 8b 85 08 ff ff ff 	mov    rax,QWORD PTR [rbp-0xf8]
    2fed:	0f b7 40 02          	movzx  eax,WORD PTR [rax+0x2]
    2ff1:	0f b7 c0             	movzx  eax,ax
    2ff4:	83 e0 02             	and    eax,0x2
    2ff7:	85 c0                	test   eax,eax
    2ff9:	74 29                	je     3024 <_ZL8_EGETKEYP14_key_request_tPh+0x476>
    2ffb:	48 8b 85 28 ff ff ff 	mov    rax,QWORD PTR [rbp-0xd8]
    3002:	48 8d 88 80 00 00 00 	lea    rcx,[rax+0x80]
    3009:	48 8d 85 40 ff ff ff 	lea    rax,[rbp-0xc0]
    3010:	48 83 c0 74          	add    rax,0x74
    3014:	ba 20 00 00 00       	mov    edx,0x20
    3019:	48 89 ce             	mov    rsi,rcx
    301c:	48 89 c7             	mov    rdi,rax
    301f:	e8 b3 72 00 00       	call   a2d7 <memcpy>
    3024:	48 8d 85 30 ff ff ff 	lea    rax,[rbp-0xd0]
    302b:	48 8d 95 40 ff ff ff 	lea    rdx,[rbp-0xc0]
    3032:	48 8d 4a 10          	lea    rcx,[rdx+0x10]
    3036:	ba 10 00 00 00       	mov    edx,0x10
    303b:	48 89 c6             	mov    rsi,rax
    303e:	48 89 cf             	mov    rdi,rcx
    3041:	e8 91 72 00 00       	call   a2d7 <memcpy>
    3046:	48 8b 85 08 ff ff ff 	mov    rax,QWORD PTR [rbp-0xf8]
    304d:	48 8d 48 18          	lea    rcx,[rax+0x18]
    3051:	48 8d 85 40 ff ff ff 	lea    rax,[rbp-0xc0]
    3058:	48 83 c0 20          	add    rax,0x20
    305c:	ba 10 00 00 00       	mov    edx,0x10
    3061:	48 89 ce             	mov    rsi,rcx
    3064:	48 89 c7             	mov    rdi,rax
    3067:	e8 6b 72 00 00       	call   a2d7 <memcpy>
    306c:	48 8d 85 40 ff ff ff 	lea    rax,[rbp-0xc0]
    3073:	48 83 c0 30          	add    rax,0x30
    3077:	ba 10 00 00 00       	mov    edx,0x10
    307c:	48 8d 35 3d d3 01 00 	lea    rsi,[rip+0x1d33d]        # 203c0 <_ZL20SIMU_OWNER_EPOCH_MSR>
    3083:	48 89 c7             	mov    rdi,rax
    3086:	e8 4c 72 00 00       	call   a2d7 <memcpy>
    308b:	48 8b 85 08 ff ff ff 	mov    rax,QWORD PTR [rbp-0xf8]
    3092:	48 8d 48 08          	lea    rcx,[rax+0x8]
    3096:	48 8d 85 40 ff ff ff 	lea    rax,[rbp-0xc0]
    309d:	48 83 c0 40          	add    rax,0x40
    30a1:	ba 10 00 00 00       	mov    edx,0x10
    30a6:	48 89 ce             	mov    rsi,rcx
    30a9:	48 89 c7             	mov    rdi,rax
    30ac:	e8 26 72 00 00       	call   a2d7 <memcpy>
    30b1:	48 8b 85 08 ff ff ff 	mov    rax,QWORD PTR [rbp-0xf8]
    30b8:	0f b7 40 04          	movzx  eax,WORD PTR [rax+0x4]
    30bc:	66 89 45 90          	mov    WORD PTR [rbp-0x70],ax
    30c0:	48 8b 85 28 ff ff ff 	mov    rax,QWORD PTR [rbp-0xd8]
    30c7:	0f b7 80 00 01 00 00 	movzx  eax,WORD PTR [rax+0x100]
    30ce:	66 89 45 92          	mov    WORD PTR [rbp-0x6e],ax
    30d2:	48 8b 85 08 ff ff ff 	mov    rax,QWORD PTR [rbp-0xf8]
    30d9:	48 8d 48 28          	lea    rcx,[rax+0x28]
    30dd:	48 8d 85 40 ff ff ff 	lea    rax,[rbp-0xc0]
    30e4:	48 05 94 00 00 00    	add    rax,0x94
    30ea:	ba 20 00 00 00       	mov    edx,0x20
    30ef:	48 89 ce             	mov    rsi,rcx
    30f2:	48 89 c7             	mov    rdi,rax
    30f5:	e8 dd 71 00 00       	call   a2d7 <memcpy>
    30fa:	e9 0b 05 00 00       	jmp    360a <_ZL8_EGETKEYP14_key_request_tPh+0xa5c>
    30ff:	c7 85 40 ff ff ff 78 	mov    DWORD PTR [rbp-0xc0],0x78
    3106:	00 00 00 
    3109:	48 8b 85 28 ff ff ff 	mov    rax,QWORD PTR [rbp-0xd8]
    3110:	48 8d 48 30          	lea    rcx,[rax+0x30]
    3114:	48 8d 85 40 ff ff ff 	lea    rax,[rbp-0xc0]
    311b:	48 83 c0 10          	add    rax,0x10
    311f:	ba 10 00 00 00       	mov    edx,0x10
    3124:	48 89 ce             	mov    rsi,rcx
    3127:	48 89 c7             	mov    rdi,rax
    312a:	e8 a8 71 00 00       	call   a2d7 <memcpy>
    312f:	48 8d 85 40 ff ff ff 	lea    rax,[rbp-0xc0]
    3136:	48 83 c0 20          	add    rax,0x20
    313a:	ba 10 00 00 00       	mov    edx,0x10
    313f:	48 8d 35 7a d2 01 00 	lea    rsi,[rip+0x1d27a]        # 203c0 <_ZL20SIMU_OWNER_EPOCH_MSR>
    3146:	48 89 c7             	mov    rdi,rax
    3149:	e8 89 71 00 00       	call   a2d7 <memcpy>
    314e:	48 8d 85 40 ff ff ff 	lea    rax,[rbp-0xc0]
    3155:	48 83 c0 50          	add    rax,0x50
    3159:	ba 10 00 00 00       	mov    edx,0x10
    315e:	48 8d 35 03 33 22 00 	lea    rsi,[rip+0x223303]        # 226468 <g_global_data_sim+0x8>
    3165:	48 89 c7             	mov    rdi,rax
    3168:	e8 6a 71 00 00       	call   a2d7 <memcpy>
    316d:	48 8b 85 28 ff ff ff 	mov    rax,QWORD PTR [rbp-0xd8]
    3174:	48 8d 48 40          	lea    rcx,[rax+0x40]
    3178:	48 8d 85 40 ff ff ff 	lea    rax,[rbp-0xc0]
    317f:	48 83 c0 30          	add    rax,0x30
    3183:	ba 20 00 00 00       	mov    edx,0x20
    3188:	48 89 ce             	mov    rsi,rcx
    318b:	48 89 c7             	mov    rdi,rax
    318e:	e8 44 71 00 00       	call   a2d7 <memcpy>
    3193:	48 8b 85 08 ff ff ff 	mov    rax,QWORD PTR [rbp-0xf8]
    319a:	48 8d 48 28          	lea    rcx,[rax+0x28]
    319e:	48 8d 85 40 ff ff ff 	lea    rax,[rbp-0xc0]
    31a5:	48 83 c0 60          	add    rax,0x60
    31a9:	ba 20 00 00 00       	mov    edx,0x20
    31ae:	48 89 ce             	mov    rsi,rcx
    31b1:	48 89 c7             	mov    rdi,rax
    31b4:	e8 1e 71 00 00       	call   a2d7 <memcpy>
    31b9:	e9 4c 04 00 00       	jmp    360a <_ZL8_EGETKEYP14_key_request_tPh+0xa5c>
    31be:	48 8b 85 28 ff ff ff 	mov    rax,QWORD PTR [rbp-0xd8]
    31c5:	48 8b 40 30          	mov    rax,QWORD PTR [rax+0x30]
    31c9:	83 e0 20             	and    eax,0x20
    31cc:	48 85 c0             	test   rax,rax
    31cf:	75 0a                	jne    31db <_ZL8_EGETKEYP14_key_request_tPh+0x62d>
    31d1:	b8 02 00 00 00       	mov    eax,0x2
    31d6:	e9 4d 04 00 00       	jmp    3628 <_ZL8_EGETKEYP14_key_request_tPh+0xa7a>
    31db:	48 8b 85 08 ff ff ff 	mov    rax,QWORD PTR [rbp-0xf8]
    31e2:	0f b7 50 04          	movzx  edx,WORD PTR [rax+0x4]
    31e6:	48 8b 85 28 ff ff ff 	mov    rax,QWORD PTR [rbp-0xd8]
    31ed:	0f b7 80 02 01 00 00 	movzx  eax,WORD PTR [rax+0x102]
    31f4:	66 39 c2             	cmp    dx,ax
    31f7:	76 0a                	jbe    3203 <_ZL8_EGETKEYP14_key_request_tPh+0x655>
    31f9:	b8 40 00 00 00       	mov    eax,0x40
    31fe:	e9 25 04 00 00       	jmp    3628 <_ZL8_EGETKEYP14_key_request_tPh+0xa7a>
    3203:	48 8b 85 08 ff ff ff 	mov    rax,QWORD PTR [rbp-0xf8]
    320a:	48 83 c0 08          	add    rax,0x8
    320e:	ba 10 00 00 00       	mov    edx,0x10
    3213:	48 8d 35 86 d1 01 00 	lea    rsi,[rip+0x1d186]        # 203a0 <_ZL15UPGRADED_CPUSVN>
    321a:	48 89 c7             	mov    rdi,rax
    321d:	e8 17 6f 00 00       	call   a139 <memcmp>
    3222:	85 c0                	test   eax,eax
    3224:	74 4d                	je     3273 <_ZL8_EGETKEYP14_key_request_tPh+0x6c5>
    3226:	48 8b 85 08 ff ff ff 	mov    rax,QWORD PTR [rbp-0xf8]
    322d:	48 83 c0 08          	add    rax,0x8
    3231:	ba 10 00 00 00       	mov    edx,0x10
    3236:	48 8d 35 53 d1 01 00 	lea    rsi,[rip+0x1d153]        # 20390 <_ZL14DEFAULT_CPUSVN>
    323d:	48 89 c7             	mov    rdi,rax
    3240:	e8 f4 6e 00 00       	call   a139 <memcmp>
    3245:	85 c0                	test   eax,eax
    3247:	74 2a                	je     3273 <_ZL8_EGETKEYP14_key_request_tPh+0x6c5>
    3249:	48 8b 85 08 ff ff ff 	mov    rax,QWORD PTR [rbp-0xf8]
    3250:	48 83 c0 08          	add    rax,0x8
    3254:	ba 10 00 00 00       	mov    edx,0x10
    3259:	48 8d 35 50 d1 01 00 	lea    rsi,[rip+0x1d150]        # 203b0 <_ZL17DOWNGRADED_CPUSVN>
    3260:	48 89 c7             	mov    rdi,rax
    3263:	e8 d1 6e 00 00       	call   a139 <memcmp>
    3268:	85 c0                	test   eax,eax
    326a:	74 07                	je     3273 <_ZL8_EGETKEYP14_key_request_tPh+0x6c5>
    326c:	b8 01 00 00 00       	mov    eax,0x1
    3271:	eb 05                	jmp    3278 <_ZL8_EGETKEYP14_key_request_tPh+0x6ca>
    3273:	b8 00 00 00 00       	mov    eax,0x0
    3278:	84 c0                	test   al,al
    327a:	74 0a                	je     3286 <_ZL8_EGETKEYP14_key_request_tPh+0x6d8>
    327c:	b8 20 00 00 00       	mov    eax,0x20
    3281:	e9 a2 03 00 00       	jmp    3628 <_ZL8_EGETKEYP14_key_request_tPh+0xa7a>
    3286:	ba 10 00 00 00       	mov    edx,0x10
    328b:	48 8d 35 fe d0 01 00 	lea    rsi,[rip+0x1d0fe]        # 20390 <_ZL14DEFAULT_CPUSVN>
    3292:	48 8d 3d cf 31 22 00 	lea    rdi,[rip+0x2231cf]        # 226468 <g_global_data_sim+0x8>
    3299:	e8 9b 6e 00 00       	call   a139 <memcmp>
    329e:	85 c0                	test   eax,eax
    32a0:	75 23                	jne    32c5 <_ZL8_EGETKEYP14_key_request_tPh+0x717>
    32a2:	48 8b 85 08 ff ff ff 	mov    rax,QWORD PTR [rbp-0xf8]
    32a9:	48 83 c0 08          	add    rax,0x8
    32ad:	ba 10 00 00 00       	mov    edx,0x10
    32b2:	48 8d 35 e7 d0 01 00 	lea    rsi,[rip+0x1d0e7]        # 203a0 <_ZL15UPGRADED_CPUSVN>
    32b9:	48 89 c7             	mov    rdi,rax
    32bc:	e8 78 6e 00 00       	call   a139 <memcmp>
    32c1:	85 c0                	test   eax,eax
    32c3:	74 3f                	je     3304 <_ZL8_EGETKEYP14_key_request_tPh+0x756>
    32c5:	ba 10 00 00 00       	mov    edx,0x10
    32ca:	48 8d 35 df d0 01 00 	lea    rsi,[rip+0x1d0df]        # 203b0 <_ZL17DOWNGRADED_CPUSVN>
    32d1:	48 8d 3d 90 31 22 00 	lea    rdi,[rip+0x223190]        # 226468 <g_global_data_sim+0x8>
    32d8:	e8 5c 6e 00 00       	call   a139 <memcmp>
    32dd:	85 c0                	test   eax,eax
    32df:	75 2a                	jne    330b <_ZL8_EGETKEYP14_key_request_tPh+0x75d>
    32e1:	48 8b 85 08 ff ff ff 	mov    rax,QWORD PTR [rbp-0xf8]
    32e8:	48 83 c0 08          	add    rax,0x8
    32ec:	ba 10 00 00 00       	mov    edx,0x10
    32f1:	48 8d 35 b8 d0 01 00 	lea    rsi,[rip+0x1d0b8]        # 203b0 <_ZL17DOWNGRADED_CPUSVN>
    32f8:	48 89 c7             	mov    rdi,rax
    32fb:	e8 39 6e 00 00       	call   a139 <memcmp>
    3300:	85 c0                	test   eax,eax
    3302:	74 07                	je     330b <_ZL8_EGETKEYP14_key_request_tPh+0x75d>
    3304:	b8 01 00 00 00       	mov    eax,0x1
    3309:	eb 05                	jmp    3310 <_ZL8_EGETKEYP14_key_request_tPh+0x762>
    330b:	b8 00 00 00 00       	mov    eax,0x0
    3310:	84 c0                	test   al,al
    3312:	74 0a                	je     331e <_ZL8_EGETKEYP14_key_request_tPh+0x770>
    3314:	b8 20 00 00 00       	mov    eax,0x20
    3319:	e9 0a 03 00 00       	jmp    3628 <_ZL8_EGETKEYP14_key_request_tPh+0xa7a>
    331e:	c7 85 40 ff ff ff 60 	mov    DWORD PTR [rbp-0xc0],0x60
    3325:	00 00 00 
    3328:	48 8b 85 28 ff ff ff 	mov    rax,QWORD PTR [rbp-0xd8]
    332f:	48 8d 48 30          	lea    rcx,[rax+0x30]
    3333:	48 8d 85 40 ff ff ff 	lea    rax,[rbp-0xc0]
    333a:	48 83 c0 10          	add    rax,0x10
    333e:	ba 10 00 00 00       	mov    edx,0x10
    3343:	48 89 ce             	mov    rsi,rcx
    3346:	48 89 c7             	mov    rdi,rax
    3349:	e8 89 6f 00 00       	call   a2d7 <memcpy>
    334e:	48 8d 85 40 ff ff ff 	lea    rax,[rbp-0xc0]
    3355:	48 83 c0 20          	add    rax,0x20
    3359:	ba 10 00 00 00       	mov    edx,0x10
    335e:	48 8d 35 5b d0 01 00 	lea    rsi,[rip+0x1d05b]        # 203c0 <_ZL20SIMU_OWNER_EPOCH_MSR>
    3365:	48 89 c7             	mov    rdi,rax
    3368:	e8 6a 6f 00 00       	call   a2d7 <memcpy>
    336d:	48 8b 85 08 ff ff ff 	mov    rax,QWORD PTR [rbp-0xf8]
    3374:	48 8d 48 08          	lea    rcx,[rax+0x8]
    3378:	48 8d 85 40 ff ff ff 	lea    rax,[rbp-0xc0]
    337f:	48 83 c0 30          	add    rax,0x30
    3383:	ba 10 00 00 00       	mov    edx,0x10
    3388:	48 89 ce             	mov    rsi,rcx
    338b:	48 89 c7             	mov    rdi,rax
    338e:	e8 44 6f 00 00       	call   a2d7 <memcpy>
    3393:	48 8b 85 08 ff ff ff 	mov    rax,QWORD PTR [rbp-0xf8]
    339a:	0f b7 40 04          	movzx  eax,WORD PTR [rax+0x4]
    339e:	66 89 45 80          	mov    WORD PTR [rbp-0x80],ax
    33a2:	48 8b 85 28 ff ff ff 	mov    rax,QWORD PTR [rbp-0xd8]
    33a9:	0f b7 80 00 01 00 00 	movzx  eax,WORD PTR [rax+0x100]
    33b0:	66 89 45 82          	mov    WORD PTR [rbp-0x7e],ax
    33b4:	48 8b 85 08 ff ff ff 	mov    rax,QWORD PTR [rbp-0xf8]
    33bb:	48 8d 48 28          	lea    rcx,[rax+0x28]
    33bf:	48 8d 85 40 ff ff ff 	lea    rax,[rbp-0xc0]
    33c6:	48 83 c0 44          	add    rax,0x44
    33ca:	ba 20 00 00 00       	mov    edx,0x20
    33cf:	48 89 ce             	mov    rsi,rcx
    33d2:	48 89 c7             	mov    rdi,rax
    33d5:	e8 fd 6e 00 00       	call   a2d7 <memcpy>
    33da:	e9 2b 02 00 00       	jmp    360a <_ZL8_EGETKEYP14_key_request_tPh+0xa5c>
    33df:	48 8b 85 28 ff ff ff 	mov    rax,QWORD PTR [rbp-0xd8]
    33e6:	48 8b 40 30          	mov    rax,QWORD PTR [rax+0x30]
    33ea:	83 e0 10             	and    eax,0x10
    33ed:	48 85 c0             	test   rax,rax
    33f0:	75 0a                	jne    33fc <_ZL8_EGETKEYP14_key_request_tPh+0x84e>
    33f2:	b8 02 00 00 00       	mov    eax,0x2
    33f7:	e9 2c 02 00 00       	jmp    3628 <_ZL8_EGETKEYP14_key_request_tPh+0xa7a>
    33fc:	48 8b 85 08 ff ff ff 	mov    rax,QWORD PTR [rbp-0xf8]
    3403:	0f b7 50 04          	movzx  edx,WORD PTR [rax+0x4]
    3407:	48 8b 85 28 ff ff ff 	mov    rax,QWORD PTR [rbp-0xd8]
    340e:	0f b7 80 02 01 00 00 	movzx  eax,WORD PTR [rax+0x102]
    3415:	66 39 c2             	cmp    dx,ax
    3418:	76 0a                	jbe    3424 <_ZL8_EGETKEYP14_key_request_tPh+0x876>
    341a:	b8 40 00 00 00       	mov    eax,0x40
    341f:	e9 04 02 00 00       	jmp    3628 <_ZL8_EGETKEYP14_key_request_tPh+0xa7a>
    3424:	48 8b 85 08 ff ff ff 	mov    rax,QWORD PTR [rbp-0xf8]
    342b:	48 83 c0 08          	add    rax,0x8
    342f:	ba 10 00 00 00       	mov    edx,0x10
    3434:	48 8d 35 65 cf 01 00 	lea    rsi,[rip+0x1cf65]        # 203a0 <_ZL15UPGRADED_CPUSVN>
    343b:	48 89 c7             	mov    rdi,rax
    343e:	e8 f6 6c 00 00       	call   a139 <memcmp>
    3443:	85 c0                	test   eax,eax
    3445:	74 4d                	je     3494 <_ZL8_EGETKEYP14_key_request_tPh+0x8e6>
    3447:	48 8b 85 08 ff ff ff 	mov    rax,QWORD PTR [rbp-0xf8]
    344e:	48 83 c0 08          	add    rax,0x8
    3452:	ba 10 00 00 00       	mov    edx,0x10
    3457:	48 8d 35 32 cf 01 00 	lea    rsi,[rip+0x1cf32]        # 20390 <_ZL14DEFAULT_CPUSVN>
    345e:	48 89 c7             	mov    rdi,rax
    3461:	e8 d3 6c 00 00       	call   a139 <memcmp>
    3466:	85 c0                	test   eax,eax
    3468:	74 2a                	je     3494 <_ZL8_EGETKEYP14_key_request_tPh+0x8e6>
    346a:	48 8b 85 08 ff ff ff 	mov    rax,QWORD PTR [rbp-0xf8]
    3471:	48 83 c0 08          	add    rax,0x8
    3475:	ba 10 00 00 00       	mov    edx,0x10
    347a:	48 8d 35 2f cf 01 00 	lea    rsi,[rip+0x1cf2f]        # 203b0 <_ZL17DOWNGRADED_CPUSVN>
    3481:	48 89 c7             	mov    rdi,rax
    3484:	e8 b0 6c 00 00       	call   a139 <memcmp>
    3489:	85 c0                	test   eax,eax
    348b:	74 07                	je     3494 <_ZL8_EGETKEYP14_key_request_tPh+0x8e6>
    348d:	b8 01 00 00 00       	mov    eax,0x1
    3492:	eb 05                	jmp    3499 <_ZL8_EGETKEYP14_key_request_tPh+0x8eb>
    3494:	b8 00 00 00 00       	mov    eax,0x0
    3499:	84 c0                	test   al,al
    349b:	74 0a                	je     34a7 <_ZL8_EGETKEYP14_key_request_tPh+0x8f9>
    349d:	b8 20 00 00 00       	mov    eax,0x20
    34a2:	e9 81 01 00 00       	jmp    3628 <_ZL8_EGETKEYP14_key_request_tPh+0xa7a>
    34a7:	ba 10 00 00 00       	mov    edx,0x10
    34ac:	48 8d 35 dd ce 01 00 	lea    rsi,[rip+0x1cedd]        # 20390 <_ZL14DEFAULT_CPUSVN>
    34b3:	48 8d 3d ae 2f 22 00 	lea    rdi,[rip+0x222fae]        # 226468 <g_global_data_sim+0x8>
    34ba:	e8 7a 6c 00 00       	call   a139 <memcmp>
    34bf:	85 c0                	test   eax,eax
    34c1:	75 23                	jne    34e6 <_ZL8_EGETKEYP14_key_request_tPh+0x938>
    34c3:	48 8b 85 08 ff ff ff 	mov    rax,QWORD PTR [rbp-0xf8]
    34ca:	48 83 c0 08          	add    rax,0x8
    34ce:	ba 10 00 00 00       	mov    edx,0x10
    34d3:	48 8d 35 c6 ce 01 00 	lea    rsi,[rip+0x1cec6]        # 203a0 <_ZL15UPGRADED_CPUSVN>
    34da:	48 89 c7             	mov    rdi,rax
    34dd:	e8 57 6c 00 00       	call   a139 <memcmp>
    34e2:	85 c0                	test   eax,eax
    34e4:	74 3f                	je     3525 <_ZL8_EGETKEYP14_key_request_tPh+0x977>
    34e6:	ba 10 00 00 00       	mov    edx,0x10
    34eb:	48 8d 35 be ce 01 00 	lea    rsi,[rip+0x1cebe]        # 203b0 <_ZL17DOWNGRADED_CPUSVN>
    34f2:	48 8d 3d 6f 2f 22 00 	lea    rdi,[rip+0x222f6f]        # 226468 <g_global_data_sim+0x8>
    34f9:	e8 3b 6c 00 00       	call   a139 <memcmp>
    34fe:	85 c0                	test   eax,eax
    3500:	75 2a                	jne    352c <_ZL8_EGETKEYP14_key_request_tPh+0x97e>
    3502:	48 8b 85 08 ff ff ff 	mov    rax,QWORD PTR [rbp-0xf8]
    3509:	48 83 c0 08          	add    rax,0x8
    350d:	ba 10 00 00 00       	mov    edx,0x10
    3512:	48 8d 35 97 ce 01 00 	lea    rsi,[rip+0x1ce97]        # 203b0 <_ZL17DOWNGRADED_CPUSVN>
    3519:	48 89 c7             	mov    rdi,rax
    351c:	e8 18 6c 00 00       	call   a139 <memcmp>
    3521:	85 c0                	test   eax,eax
    3523:	74 07                	je     352c <_ZL8_EGETKEYP14_key_request_tPh+0x97e>
    3525:	b8 01 00 00 00       	mov    eax,0x1
    352a:	eb 05                	jmp    3531 <_ZL8_EGETKEYP14_key_request_tPh+0x983>
    352c:	b8 00 00 00 00       	mov    eax,0x0
    3531:	84 c0                	test   al,al
    3533:	74 0a                	je     353f <_ZL8_EGETKEYP14_key_request_tPh+0x991>
    3535:	b8 20 00 00 00       	mov    eax,0x20
    353a:	e9 e9 00 00 00       	jmp    3628 <_ZL8_EGETKEYP14_key_request_tPh+0xa7a>
    353f:	c7 85 40 ff ff ff 60 	mov    DWORD PTR [rbp-0xc0],0x60
    3546:	00 00 00 
    3549:	48 8d 85 30 ff ff ff 	lea    rax,[rbp-0xd0]
    3550:	48 8d 95 40 ff ff ff 	lea    rdx,[rbp-0xc0]
    3557:	48 8d 4a 10          	lea    rcx,[rdx+0x10]
    355b:	ba 10 00 00 00       	mov    edx,0x10
    3560:	48 89 c6             	mov    rsi,rax
    3563:	48 89 cf             	mov    rdi,rcx
    3566:	e8 6c 6d 00 00       	call   a2d7 <memcpy>
    356b:	48 8b 85 08 ff ff ff 	mov    rax,QWORD PTR [rbp-0xf8]
    3572:	48 8d 48 18          	lea    rcx,[rax+0x18]
    3576:	48 8d 85 40 ff ff ff 	lea    rax,[rbp-0xc0]
    357d:	48 83 c0 20          	add    rax,0x20
    3581:	ba 10 00 00 00       	mov    edx,0x10
    3586:	48 89 ce             	mov    rsi,rcx
    3589:	48 89 c7             	mov    rdi,rax
    358c:	e8 46 6d 00 00       	call   a2d7 <memcpy>
    3591:	48 8b 85 08 ff ff ff 	mov    rax,QWORD PTR [rbp-0xf8]
    3598:	48 8d 48 08          	lea    rcx,[rax+0x8]
    359c:	48 8d 85 40 ff ff ff 	lea    rax,[rbp-0xc0]
    35a3:	48 83 c0 30          	add    rax,0x30
    35a7:	ba 10 00 00 00       	mov    edx,0x10
    35ac:	48 89 ce             	mov    rsi,rcx
    35af:	48 89 c7             	mov    rdi,rax
    35b2:	e8 20 6d 00 00       	call   a2d7 <memcpy>
    35b7:	48 8b 85 08 ff ff ff 	mov    rax,QWORD PTR [rbp-0xf8]
    35be:	0f b7 40 04          	movzx  eax,WORD PTR [rax+0x4]
    35c2:	66 89 45 80          	mov    WORD PTR [rbp-0x80],ax
    35c6:	48 8b 85 28 ff ff ff 	mov    rax,QWORD PTR [rbp-0xd8]
    35cd:	0f b7 80 00 01 00 00 	movzx  eax,WORD PTR [rax+0x100]
    35d4:	66 89 45 82          	mov    WORD PTR [rbp-0x7e],ax
    35d8:	48 8b 85 28 ff ff ff 	mov    rax,QWORD PTR [rbp-0xd8]
    35df:	48 8d 88 80 00 00 00 	lea    rcx,[rax+0x80]
    35e6:	48 8d 85 40 ff ff ff 	lea    rax,[rbp-0xc0]
    35ed:	48 83 c0 44          	add    rax,0x44
    35f1:	ba 20 00 00 00       	mov    edx,0x20
    35f6:	48 89 ce             	mov    rsi,rcx
    35f9:	48 89 c7             	mov    rdi,rax
    35fc:	e8 d6 6c 00 00       	call   a2d7 <memcpy>
    3601:	eb 07                	jmp    360a <_ZL8_EGETKEYP14_key_request_tPh+0xa5c>
    3603:	b8 00 01 00 00       	mov    eax,0x100
    3608:	eb 1e                	jmp    3628 <_ZL8_EGETKEYP14_key_request_tPh+0xa7a>
    360a:	48 8b 95 00 ff ff ff 	mov    rdx,QWORD PTR [rbp-0x100]
    3611:	48 8d 85 40 ff ff ff 	lea    rax,[rbp-0xc0]
    3618:	48 89 d6             	mov    rsi,rdx
    361b:	48 89 c7             	mov    rdi,rax
    361e:	e8 53 04 00 00       	call   3a76 <derive_key>
    3623:	b8 00 00 00 00       	mov    eax,0x0
    3628:	48 8b 4d f8          	mov    rcx,QWORD PTR [rbp-0x8]
    362c:	64 48 33 0c 25 28 00 	xor    rcx,QWORD PTR fs:0x28
    3633:	00 00 
    3635:	74 05                	je     363c <_ZL8_EGETKEYP14_key_request_tPh+0xa8e>
    3637:	e8 ea 0f 00 00       	call   4626 <__stack_chk_fail>
    363c:	c9                   	leave  
    363d:	c3                   	ret    

000000000000363e <_ZL8_EREPORTPK14_target_info_tPK18_sgx_report_data_tP9_report_t>:
    363e:	4c 8d 54 24 08       	lea    r10,[rsp+0x8]
    3643:	48 81 e4 00 fe ff ff 	and    rsp,0xfffffffffffffe00
    364a:	41 ff 72 f8          	push   QWORD PTR [r10-0x8]
    364e:	55                   	push   rbp
    364f:	48 89 e5             	mov    rbp,rsp
    3652:	41 52                	push   r10
    3654:	48 81 ec e8 05 00 00 	sub    rsp,0x5e8
    365b:	48 89 bd 38 fb ff ff 	mov    QWORD PTR [rbp-0x4c8],rdi
    3662:	48 89 b5 30 fb ff ff 	mov    QWORD PTR [rbp-0x4d0],rsi
    3669:	48 89 95 28 fb ff ff 	mov    QWORD PTR [rbp-0x4d8],rdx
    3670:	64 48 8b 04 25 28 00 	mov    rax,QWORD PTR fs:0x28
    3677:	00 00 
    3679:	48 89 85 08 fe ff ff 	mov    QWORD PTR [rbp-0x1f8],rax
    3680:	31 c0                	xor    eax,eax
    3682:	48 8b 85 38 fb ff ff 	mov    rax,QWORD PTR [rbp-0x4c8]
    3689:	25 ff 01 00 00       	and    eax,0x1ff
    368e:	48 85 c0             	test   rax,rax
    3691:	0f 95 c0             	setne  al
    3694:	0f b6 c0             	movzx  eax,al
    3697:	48 85 c0             	test   rax,rax
    369a:	74 05                	je     36a1 <_ZL8_EREPORTPK14_target_info_tPK18_sgx_report_data_tP9_report_t+0x63>
    369c:	e8 52 cb 01 00       	call   201f3 <abort>
    36a1:	48 8b 85 38 fb ff ff 	mov    rax,QWORD PTR [rbp-0x4c8]
    36a8:	be 00 02 00 00       	mov    esi,0x200
    36ad:	48 89 c7             	mov    rdi,rax
    36b0:	e8 26 d6 ff ff       	call   cdb <sgx_is_within_enclave>
    36b5:	85 c0                	test   eax,eax
    36b7:	0f 94 c0             	sete   al
    36ba:	0f b6 c0             	movzx  eax,al
    36bd:	48 85 c0             	test   rax,rax
    36c0:	0f 95 c0             	setne  al
    36c3:	84 c0                	test   al,al
    36c5:	74 05                	je     36cc <_ZL8_EREPORTPK14_target_info_tPK18_sgx_report_data_tP9_report_t+0x8e>
    36c7:	e8 27 cb 01 00       	call   201f3 <abort>
    36cc:	48 8b 85 30 fb ff ff 	mov    rax,QWORD PTR [rbp-0x4d0]
    36d3:	83 e0 7f             	and    eax,0x7f
    36d6:	48 85 c0             	test   rax,rax
    36d9:	0f 95 c0             	setne  al
    36dc:	0f b6 c0             	movzx  eax,al
    36df:	48 85 c0             	test   rax,rax
    36e2:	74 05                	je     36e9 <_ZL8_EREPORTPK14_target_info_tPK18_sgx_report_data_tP9_report_t+0xab>
    36e4:	e8 0a cb 01 00       	call   201f3 <abort>
    36e9:	48 8b 85 30 fb ff ff 	mov    rax,QWORD PTR [rbp-0x4d0]
    36f0:	be 40 00 00 00       	mov    esi,0x40
    36f5:	48 89 c7             	mov    rdi,rax
    36f8:	e8 de d5 ff ff       	call   cdb <sgx_is_within_enclave>
    36fd:	85 c0                	test   eax,eax
    36ff:	0f 94 c0             	sete   al
    3702:	0f b6 c0             	movzx  eax,al
    3705:	48 85 c0             	test   rax,rax
    3708:	0f 95 c0             	setne  al
    370b:	84 c0                	test   al,al
    370d:	74 05                	je     3714 <_ZL8_EREPORTPK14_target_info_tPK18_sgx_report_data_tP9_report_t+0xd6>
    370f:	e8 df ca 01 00       	call   201f3 <abort>
    3714:	48 8b 85 28 fb ff ff 	mov    rax,QWORD PTR [rbp-0x4d8]
    371b:	25 ff 01 00 00       	and    eax,0x1ff
    3720:	48 85 c0             	test   rax,rax
    3723:	0f 95 c0             	setne  al
    3726:	0f b6 c0             	movzx  eax,al
    3729:	48 85 c0             	test   rax,rax
    372c:	74 05                	je     3733 <_ZL8_EREPORTPK14_target_info_tPK18_sgx_report_data_tP9_report_t+0xf5>
    372e:	e8 c0 ca 01 00       	call   201f3 <abort>
    3733:	48 8b 85 28 fb ff ff 	mov    rax,QWORD PTR [rbp-0x4d8]
    373a:	be b0 01 00 00       	mov    esi,0x1b0
    373f:	48 89 c7             	mov    rdi,rax
    3742:	e8 94 d5 ff ff       	call   cdb <sgx_is_within_enclave>
    3747:	85 c0                	test   eax,eax
    3749:	0f 94 c0             	sete   al
    374c:	0f b6 c0             	movzx  eax,al
    374f:	48 85 c0             	test   rax,rax
    3752:	0f 95 c0             	setne  al
    3755:	84 c0                	test   al,al
    3757:	74 05                	je     375e <_ZL8_EREPORTPK14_target_info_tPK18_sgx_report_data_tP9_report_t+0x120>
    3759:	e8 95 ca 01 00       	call   201f3 <abort>
    375e:	48 8b 05 fb 2c 22 00 	mov    rax,QWORD PTR [rip+0x222cfb]        # 226460 <g_global_data_sim>
    3765:	48 89 85 48 fb ff ff 	mov    QWORD PTR [rbp-0x4b8],rax
    376c:	48 8d 85 10 fc ff ff 	lea    rax,[rbp-0x3f0]
    3773:	ba b0 01 00 00       	mov    edx,0x1b0
    3778:	be 00 00 00 00       	mov    esi,0x0
    377d:	48 89 c7             	mov    rdi,rax
    3780:	e8 c0 6b 00 00       	call   a345 <memset>
    3785:	48 8d 85 10 fc ff ff 	lea    rax,[rbp-0x3f0]
    378c:	ba 10 00 00 00       	mov    edx,0x10
    3791:	48 8d 35 d0 2c 22 00 	lea    rsi,[rip+0x222cd0]        # 226468 <g_global_data_sim+0x8>
    3798:	48 89 c7             	mov    rdi,rax
    379b:	e8 37 6b 00 00       	call   a2d7 <memcpy>
    37a0:	48 8b 85 48 fb ff ff 	mov    rax,QWORD PTR [rbp-0x4b8]
    37a7:	0f b7 80 00 01 00 00 	movzx  eax,WORD PTR [rax+0x100]
    37ae:	66 89 85 10 fd ff ff 	mov    WORD PTR [rbp-0x2f0],ax
    37b5:	48 8b 85 48 fb ff ff 	mov    rax,QWORD PTR [rbp-0x4b8]
    37bc:	0f b7 80 02 01 00 00 	movzx  eax,WORD PTR [rax+0x102]
    37c3:	66 89 85 12 fd ff ff 	mov    WORD PTR [rbp-0x2ee],ax
    37ca:	48 8b 85 48 fb ff ff 	mov    rax,QWORD PTR [rbp-0x4b8]
    37d1:	48 8d 48 30          	lea    rcx,[rax+0x30]
    37d5:	48 8d 85 10 fc ff ff 	lea    rax,[rbp-0x3f0]
    37dc:	48 83 c0 30          	add    rax,0x30
    37e0:	ba 10 00 00 00       	mov    edx,0x10
    37e5:	48 89 ce             	mov    rsi,rcx
    37e8:	48 89 c7             	mov    rdi,rax
    37eb:	e8 e7 6a 00 00       	call   a2d7 <memcpy>
    37f0:	48 8b 85 30 fb ff ff 	mov    rax,QWORD PTR [rbp-0x4d0]
    37f7:	48 8d 95 10 fc ff ff 	lea    rdx,[rbp-0x3f0]
    37fe:	48 8d 8a 40 01 00 00 	lea    rcx,[rdx+0x140]
    3805:	ba 40 00 00 00       	mov    edx,0x40
    380a:	48 89 c6             	mov    rsi,rax
    380d:	48 89 cf             	mov    rdi,rcx
    3810:	e8 c2 6a 00 00       	call   a2d7 <memcpy>
    3815:	48 8b 85 48 fb ff ff 	mov    rax,QWORD PTR [rbp-0x4b8]
    381c:	48 8d 48 40          	lea    rcx,[rax+0x40]
    3820:	48 8d 85 10 fc ff ff 	lea    rax,[rbp-0x3f0]
    3827:	48 83 c0 40          	add    rax,0x40
    382b:	ba 20 00 00 00       	mov    edx,0x20
    3830:	48 89 ce             	mov    rsi,rcx
    3833:	48 89 c7             	mov    rdi,rax
    3836:	e8 9c 6a 00 00       	call   a2d7 <memcpy>
    383b:	48 8b 85 48 fb ff ff 	mov    rax,QWORD PTR [rbp-0x4b8]
    3842:	48 8d 88 80 00 00 00 	lea    rcx,[rax+0x80]
    3849:	48 8d 85 10 fc ff ff 	lea    rax,[rbp-0x3f0]
    3850:	48 83 e8 80          	sub    rax,0xffffffffffffff80
    3854:	ba 20 00 00 00       	mov    edx,0x20
    3859:	48 89 ce             	mov    rsi,rcx
    385c:	48 89 c7             	mov    rdi,rax
    385f:	e8 73 6a 00 00       	call   a2d7 <memcpy>
    3864:	bf 03 00 00 00       	mov    edi,0x3
    3869:	e8 9e 01 00 00       	call   3a0c <get_base_key>
    386e:	48 89 c1             	mov    rcx,rax
    3871:	48 8d 85 10 fc ff ff 	lea    rax,[rbp-0x3f0]
    3878:	48 05 80 01 00 00    	add    rax,0x180
    387e:	ba 10 00 00 00       	mov    edx,0x10
    3883:	48 89 ce             	mov    rsi,rcx
    3886:	48 89 c7             	mov    rdi,rax
    3889:	e8 49 6a 00 00       	call   a2d7 <memcpy>
    388e:	48 8d 85 50 fb ff ff 	lea    rax,[rbp-0x4b0]
    3895:	ba b8 00 00 00       	mov    edx,0xb8
    389a:	be 00 00 00 00       	mov    esi,0x0
    389f:	48 89 c7             	mov    rdi,rax
    38a2:	e8 9e 6a 00 00       	call   a345 <memset>
    38a7:	c7 85 50 fb ff ff 78 	mov    DWORD PTR [rbp-0x4b0],0x78
    38ae:	00 00 00 
    38b1:	66 c7 85 58 fb ff ff 	mov    WORD PTR [rbp-0x4a8],0x3
    38b8:	03 00 
    38ba:	48 8b 85 38 fb ff ff 	mov    rax,QWORD PTR [rbp-0x4c8]
    38c1:	48 8d 95 50 fb ff ff 	lea    rdx,[rbp-0x4b0]
    38c8:	48 8d 4a 30          	lea    rcx,[rdx+0x30]
    38cc:	ba 20 00 00 00       	mov    edx,0x20
    38d1:	48 89 c6             	mov    rsi,rax
    38d4:	48 89 cf             	mov    rdi,rcx
    38d7:	e8 fb 69 00 00       	call   a2d7 <memcpy>
    38dc:	48 8b 85 38 fb ff ff 	mov    rax,QWORD PTR [rbp-0x4c8]
    38e3:	48 8d 48 20          	lea    rcx,[rax+0x20]
    38e7:	48 8d 85 50 fb ff ff 	lea    rax,[rbp-0x4b0]
    38ee:	48 83 c0 10          	add    rax,0x10
    38f2:	ba 10 00 00 00       	mov    edx,0x10
    38f7:	48 89 ce             	mov    rsi,rcx
    38fa:	48 89 c7             	mov    rdi,rax
    38fd:	e8 d5 69 00 00       	call   a2d7 <memcpy>
    3902:	48 8d 85 50 fb ff ff 	lea    rax,[rbp-0x4b0]
    3909:	48 83 c0 20          	add    rax,0x20
    390d:	ba 10 00 00 00       	mov    edx,0x10
    3912:	48 8d 35 a7 ca 01 00 	lea    rsi,[rip+0x1caa7]        # 203c0 <_ZL20SIMU_OWNER_EPOCH_MSR>
    3919:	48 89 c7             	mov    rdi,rax
    391c:	e8 b6 69 00 00       	call   a2d7 <memcpy>
    3921:	48 8d 85 50 fb ff ff 	lea    rax,[rbp-0x4b0]
    3928:	48 83 c0 50          	add    rax,0x50
    392c:	ba 10 00 00 00       	mov    edx,0x10
    3931:	48 8d 35 30 2b 22 00 	lea    rsi,[rip+0x222b30]        # 226468 <g_global_data_sim+0x8>
    3938:	48 89 c7             	mov    rdi,rax
    393b:	e8 97 69 00 00       	call   a2d7 <memcpy>
    3940:	48 8d 85 10 fc ff ff 	lea    rax,[rbp-0x3f0]
    3947:	48 8d 88 80 01 00 00 	lea    rcx,[rax+0x180]
    394e:	48 8d 85 50 fb ff ff 	lea    rax,[rbp-0x4b0]
    3955:	48 83 c0 60          	add    rax,0x60
    3959:	ba 20 00 00 00       	mov    edx,0x20
    395e:	48 89 ce             	mov    rsi,rcx
    3961:	48 89 c7             	mov    rdi,rax
    3964:	e8 6e 69 00 00       	call   a2d7 <memcpy>
    3969:	48 8d 85 f0 fd ff ff 	lea    rax,[rbp-0x210]
    3970:	ba 10 00 00 00       	mov    edx,0x10
    3975:	be 00 00 00 00       	mov    esi,0x0
    397a:	48 89 c7             	mov    rdi,rax
    397d:	e8 c3 69 00 00       	call   a345 <memset>
    3982:	48 8d 95 f0 fd ff ff 	lea    rdx,[rbp-0x210]
    3989:	48 8d 85 50 fb ff ff 	lea    rax,[rbp-0x4b0]
    3990:	48 89 d6             	mov    rsi,rdx
    3993:	48 89 c7             	mov    rdi,rax
    3996:	e8 db 00 00 00       	call   3a76 <derive_key>
    399b:	48 8d 85 10 fc ff ff 	lea    rax,[rbp-0x3f0]
    39a2:	48 8d 90 a0 01 00 00 	lea    rdx,[rax+0x1a0]
    39a9:	48 8d b5 10 fc ff ff 	lea    rsi,[rbp-0x3f0]
    39b0:	48 8d 85 f0 fd ff ff 	lea    rax,[rbp-0x210]
    39b7:	48 89 d1             	mov    rcx,rdx
    39ba:	ba 80 01 00 00       	mov    edx,0x180
    39bf:	48 89 c7             	mov    rdi,rax
    39c2:	e8 04 01 00 00       	call   3acb <cmac>
    39c7:	48 8d 8d 10 fc ff ff 	lea    rcx,[rbp-0x3f0]
    39ce:	48 8b 85 28 fb ff ff 	mov    rax,QWORD PTR [rbp-0x4d8]
    39d5:	ba b0 01 00 00       	mov    edx,0x1b0
    39da:	48 89 ce             	mov    rsi,rcx
    39dd:	48 89 c7             	mov    rdi,rax
    39e0:	e8 f2 68 00 00       	call   a2d7 <memcpy>
    39e5:	90                   	nop
    39e6:	48 8b 85 08 fe ff ff 	mov    rax,QWORD PTR [rbp-0x1f8]
    39ed:	64 48 33 04 25 28 00 	xor    rax,QWORD PTR fs:0x28
    39f4:	00 00 
    39f6:	74 05                	je     39fd <_ZL8_EREPORTPK14_target_info_tPK18_sgx_report_data_tP9_report_t+0x3bf>
    39f8:	e8 29 0c 00 00       	call   4626 <__stack_chk_fail>
    39fd:	48 81 c4 e8 05 00 00 	add    rsp,0x5e8
    3a04:	41 5a                	pop    r10
    3a06:	5d                   	pop    rbp
    3a07:	49 8d 62 f8          	lea    rsp,[r10-0x8]
    3a0b:	c3                   	ret    

0000000000003a0c <get_base_key>:
    3a0c:	55                   	push   rbp
    3a0d:	48 89 e5             	mov    rbp,rsp
    3a10:	89 f8                	mov    eax,edi
    3a12:	66 89 45 fc          	mov    WORD PTR [rbp-0x4],ax
    3a16:	0f b7 45 fc          	movzx  eax,WORD PTR [rbp-0x4]
    3a1a:	83 f8 04             	cmp    eax,0x4
    3a1d:	77 50                	ja     3a6f <get_base_key+0x63>
    3a1f:	89 c0                	mov    eax,eax
    3a21:	48 8d 14 85 00 00 00 	lea    rdx,[rax*4+0x0]
    3a28:	00 
    3a29:	48 8d 05 10 ca 01 00 	lea    rax,[rip+0x1ca10]        # 20440 <_ZL18BASE_PROV_SEAL_KEY+0x10>
    3a30:	8b 04 02             	mov    eax,DWORD PTR [rdx+rax*1]
    3a33:	48 63 d0             	movsxd rdx,eax
    3a36:	48 8d 05 03 ca 01 00 	lea    rax,[rip+0x1ca03]        # 20440 <_ZL18BASE_PROV_SEAL_KEY+0x10>
    3a3d:	48 01 d0             	add    rax,rdx
    3a40:	ff e0                	jmp    rax
    3a42:	48 8d 05 a7 c9 01 00 	lea    rax,[rip+0x1c9a7]        # 203f0 <_ZL13BASE_SEAL_KEY>
    3a49:	eb 29                	jmp    3a74 <get_base_key+0x68>
    3a4b:	48 8d 05 ae c9 01 00 	lea    rax,[rip+0x1c9ae]        # 20400 <_ZL15BASE_REPORT_KEY>
    3a52:	eb 20                	jmp    3a74 <get_base_key+0x68>
    3a54:	48 8d 05 b5 c9 01 00 	lea    rax,[rip+0x1c9b5]        # 20410 <_ZL19BASE_EINITTOKEN_KEY>
    3a5b:	eb 17                	jmp    3a74 <get_base_key+0x68>
    3a5d:	48 8d 05 bc c9 01 00 	lea    rax,[rip+0x1c9bc]        # 20420 <_ZL18BASE_PROVISION_KEY>
    3a64:	eb 0e                	jmp    3a74 <get_base_key+0x68>
    3a66:	48 8d 05 c3 c9 01 00 	lea    rax,[rip+0x1c9c3]        # 20430 <_ZL18BASE_PROV_SEAL_KEY>
    3a6d:	eb 05                	jmp    3a74 <get_base_key+0x68>
    3a6f:	b8 00 00 00 00       	mov    eax,0x0
    3a74:	5d                   	pop    rbp
    3a75:	c3                   	ret    

0000000000003a76 <derive_key>:
    3a76:	55                   	push   rbp
    3a77:	48 89 e5             	mov    rbp,rsp
    3a7a:	41 54                	push   r12
    3a7c:	53                   	push   rbx
    3a7d:	48 83 ec 10          	sub    rsp,0x10
    3a81:	48 89 7d e8          	mov    QWORD PTR [rbp-0x18],rdi
    3a85:	48 89 75 e0          	mov    QWORD PTR [rbp-0x20],rsi
    3a89:	48 8b 45 e8          	mov    rax,QWORD PTR [rbp-0x18]
    3a8d:	8b 00                	mov    eax,DWORD PTR [rax]
    3a8f:	41 89 c4             	mov    r12d,eax
    3a92:	48 8b 45 e8          	mov    rax,QWORD PTR [rbp-0x18]
    3a96:	48 8d 58 08          	lea    rbx,[rax+0x8]
    3a9a:	48 8b 45 e8          	mov    rax,QWORD PTR [rbp-0x18]
    3a9e:	0f b7 40 08          	movzx  eax,WORD PTR [rax+0x8]
    3aa2:	0f b7 c0             	movzx  eax,ax
    3aa5:	89 c7                	mov    edi,eax
    3aa7:	e8 60 ff ff ff       	call   3a0c <get_base_key>
    3aac:	48 89 c7             	mov    rdi,rax
    3aaf:	48 8b 45 e0          	mov    rax,QWORD PTR [rbp-0x20]
    3ab3:	48 89 c1             	mov    rcx,rax
    3ab6:	44 89 e2             	mov    edx,r12d
    3ab9:	48 89 de             	mov    rsi,rbx
    3abc:	e8 d1 3d 01 00       	call   17892 <sgx_rijndael128_cmac_msg>
    3ac1:	90                   	nop
    3ac2:	48 83 c4 10          	add    rsp,0x10
    3ac6:	5b                   	pop    rbx
    3ac7:	41 5c                	pop    r12
    3ac9:	5d                   	pop    rbp
    3aca:	c3                   	ret    

0000000000003acb <cmac>:
    3acb:	55                   	push   rbp
    3acc:	48 89 e5             	mov    rbp,rsp
    3acf:	48 83 ec 20          	sub    rsp,0x20
    3ad3:	48 89 7d f8          	mov    QWORD PTR [rbp-0x8],rdi
    3ad7:	48 89 75 f0          	mov    QWORD PTR [rbp-0x10],rsi
    3adb:	89 55 ec             	mov    DWORD PTR [rbp-0x14],edx
    3ade:	48 89 4d e0          	mov    QWORD PTR [rbp-0x20],rcx
    3ae2:	8b 55 ec             	mov    edx,DWORD PTR [rbp-0x14]
    3ae5:	48 8b 4d e0          	mov    rcx,QWORD PTR [rbp-0x20]
    3ae9:	48 8b 75 f0          	mov    rsi,QWORD PTR [rbp-0x10]
    3aed:	48 8b 45 f8          	mov    rax,QWORD PTR [rbp-0x8]
    3af1:	48 89 c7             	mov    rdi,rax
    3af4:	e8 99 3d 01 00       	call   17892 <sgx_rijndael128_cmac_msg>
    3af9:	90                   	nop
    3afa:	c9                   	leave  
    3afb:	c3                   	ret    

0000000000003afc <get_phdr>:
    3afc:	55                   	push   rbp
    3afd:	48 89 e5             	mov    rbp,rsp
    3b00:	48 89 7d f8          	mov    QWORD PTR [rbp-0x8],rdi
    3b04:	48 83 7d f8 00       	cmp    QWORD PTR [rbp-0x8],0x0
    3b09:	75 07                	jne    3b12 <get_phdr+0x16>
    3b0b:	b8 00 00 00 00       	mov    eax,0x0
    3b10:	eb 5a                	jmp    3b6c <get_phdr+0x70>
    3b12:	48 8b 45 f8          	mov    rax,QWORD PTR [rbp-0x8]
    3b16:	0f b6 00             	movzx  eax,BYTE PTR [rax]
    3b19:	3c 7f                	cmp    al,0x7f
    3b1b:	75 24                	jne    3b41 <get_phdr+0x45>
    3b1d:	48 8b 45 f8          	mov    rax,QWORD PTR [rbp-0x8]
    3b21:	0f b6 40 01          	movzx  eax,BYTE PTR [rax+0x1]
    3b25:	3c 45                	cmp    al,0x45
    3b27:	75 18                	jne    3b41 <get_phdr+0x45>
    3b29:	48 8b 45 f8          	mov    rax,QWORD PTR [rbp-0x8]
    3b2d:	0f b6 40 02          	movzx  eax,BYTE PTR [rax+0x2]
    3b31:	3c 4c                	cmp    al,0x4c
    3b33:	75 0c                	jne    3b41 <get_phdr+0x45>
    3b35:	48 8b 45 f8          	mov    rax,QWORD PTR [rbp-0x8]
    3b39:	0f b6 40 03          	movzx  eax,BYTE PTR [rax+0x3]
    3b3d:	3c 46                	cmp    al,0x46
    3b3f:	74 07                	je     3b48 <get_phdr+0x4c>
    3b41:	b8 00 00 00 00       	mov    eax,0x0
    3b46:	eb 24                	jmp    3b6c <get_phdr+0x70>
    3b48:	48 8b 45 f8          	mov    rax,QWORD PTR [rbp-0x8]
    3b4c:	0f b7 40 10          	movzx  eax,WORD PTR [rax+0x10]
    3b50:	66 83 f8 03          	cmp    ax,0x3
    3b54:	74 07                	je     3b5d <get_phdr+0x61>
    3b56:	b8 00 00 00 00       	mov    eax,0x0
    3b5b:	eb 0f                	jmp    3b6c <get_phdr+0x70>
    3b5d:	48 8b 45 f8          	mov    rax,QWORD PTR [rbp-0x8]
    3b61:	48 8b 50 20          	mov    rdx,QWORD PTR [rax+0x20]
    3b65:	48 8b 45 f8          	mov    rax,QWORD PTR [rbp-0x8]
    3b69:	48 01 d0             	add    rax,rdx
    3b6c:	5d                   	pop    rbp
    3b6d:	c3                   	ret    

0000000000003b6e <get_sym>:
    3b6e:	55                   	push   rbp
    3b6f:	48 89 e5             	mov    rbp,rsp
    3b72:	48 89 7d f8          	mov    QWORD PTR [rbp-0x8],rdi
    3b76:	48 89 75 f0          	mov    QWORD PTR [rbp-0x10],rsi
    3b7a:	48 8b 55 f0          	mov    rdx,QWORD PTR [rbp-0x10]
    3b7e:	48 89 d0             	mov    rax,rdx
    3b81:	48 01 c0             	add    rax,rax
    3b84:	48 01 d0             	add    rax,rdx
    3b87:	48 c1 e0 03          	shl    rax,0x3
    3b8b:	48 89 c2             	mov    rdx,rax
    3b8e:	48 8b 45 f8          	mov    rax,QWORD PTR [rbp-0x8]
    3b92:	48 01 d0             	add    rax,rdx
    3b95:	0f b6 40 04          	movzx  eax,BYTE PTR [rax+0x4]
    3b99:	c0 e8 04             	shr    al,0x4
    3b9c:	3c 02                	cmp    al,0x2
    3b9e:	75 2b                	jne    3bcb <get_sym+0x5d>
    3ba0:	48 8b 55 f0          	mov    rdx,QWORD PTR [rbp-0x10]
    3ba4:	48 89 d0             	mov    rax,rdx
    3ba7:	48 01 c0             	add    rax,rax
    3baa:	48 01 d0             	add    rax,rdx
    3bad:	48 c1 e0 03          	shl    rax,0x3
    3bb1:	48 89 c2             	mov    rdx,rax
    3bb4:	48 8b 45 f8          	mov    rax,QWORD PTR [rbp-0x8]
    3bb8:	48 01 d0             	add    rax,rdx
    3bbb:	48 8b 40 08          	mov    rax,QWORD PTR [rax+0x8]
    3bbf:	48 85 c0             	test   rax,rax
    3bc2:	75 07                	jne    3bcb <get_sym+0x5d>
    3bc4:	b8 00 00 00 00       	mov    eax,0x0
    3bc9:	eb 1b                	jmp    3be6 <get_sym+0x78>
    3bcb:	48 8b 55 f0          	mov    rdx,QWORD PTR [rbp-0x10]
    3bcf:	48 89 d0             	mov    rax,rdx
    3bd2:	48 01 c0             	add    rax,rax
    3bd5:	48 01 d0             	add    rax,rdx
    3bd8:	48 c1 e0 03          	shl    rax,0x3
    3bdc:	48 89 c2             	mov    rdx,rax
    3bdf:	48 8b 45 f8          	mov    rax,QWORD PTR [rbp-0x8]
    3be3:	48 01 d0             	add    rax,rdx
    3be6:	5d                   	pop    rbp
    3be7:	c3                   	ret    

0000000000003be8 <do_relocs>:
    3be8:	55                   	push   rbp
    3be9:	48 89 e5             	mov    rbp,rsp
    3bec:	48 83 ec 60          	sub    rsp,0x60
    3bf0:	48 89 7d b8          	mov    QWORD PTR [rbp-0x48],rdi
    3bf4:	48 89 75 b0          	mov    QWORD PTR [rbp-0x50],rsi
    3bf8:	48 89 55 a8          	mov    QWORD PTR [rbp-0x58],rdx
    3bfc:	48 89 4d a0          	mov    QWORD PTR [rbp-0x60],rcx
    3c00:	64 48 8b 04 25 28 00 	mov    rax,QWORD PTR fs:0x28
    3c07:	00 00 
    3c09:	48 89 45 f8          	mov    QWORD PTR [rbp-0x8],rax
    3c0d:	31 c0                	xor    eax,eax
    3c0f:	48 8b 55 b8          	mov    rdx,QWORD PTR [rbp-0x48]
    3c13:	48 8b 45 b0          	mov    rax,QWORD PTR [rbp-0x50]
    3c17:	48 01 d0             	add    rax,rdx
    3c1a:	48 89 45 d0          	mov    QWORD PTR [rbp-0x30],rax
    3c1e:	48 8b 55 b8          	mov    rdx,QWORD PTR [rbp-0x48]
    3c22:	48 8b 45 a8          	mov    rax,QWORD PTR [rbp-0x58]
    3c26:	48 01 d0             	add    rax,rdx
    3c29:	48 89 45 e0          	mov    QWORD PTR [rbp-0x20],rax
    3c2d:	48 c7 45 c8 00 00 00 	mov    QWORD PTR [rbp-0x38],0x0
    3c34:	00 
    3c35:	48 c7 45 d8 00 00 00 	mov    QWORD PTR [rbp-0x28],0x0
    3c3c:	00 
    3c3d:	e9 a2 01 00 00       	jmp    3de4 <do_relocs+0x1fc>
    3c42:	48 8b 45 d0          	mov    rax,QWORD PTR [rbp-0x30]
    3c46:	48 8b 10             	mov    rdx,QWORD PTR [rax]
    3c49:	48 8b 45 b8          	mov    rax,QWORD PTR [rbp-0x48]
    3c4d:	48 01 d0             	add    rax,rdx
    3c50:	48 89 45 e8          	mov    QWORD PTR [rbp-0x18],rax
    3c54:	48 8b 45 d0          	mov    rax,QWORD PTR [rbp-0x30]
    3c58:	48 8b 40 08          	mov    rax,QWORD PTR [rax+0x8]
    3c5c:	89 c0                	mov    eax,eax
    3c5e:	48 83 f8 12          	cmp    rax,0x12
    3c62:	0f 87 61 01 00 00    	ja     3dc9 <do_relocs+0x1e1>
    3c68:	48 8d 14 85 00 00 00 	lea    rdx,[rax*4+0x0]
    3c6f:	00 
    3c70:	48 8d 05 dd c7 01 00 	lea    rax,[rip+0x1c7dd]        # 20454 <_ZL18BASE_PROV_SEAL_KEY+0x24>
    3c77:	8b 04 02             	mov    eax,DWORD PTR [rdx+rax*1]
    3c7a:	48 63 d0             	movsxd rdx,eax
    3c7d:	48 8d 05 d0 c7 01 00 	lea    rax,[rip+0x1c7d0]        # 20454 <_ZL18BASE_PROV_SEAL_KEY+0x24>
    3c84:	48 01 d0             	add    rax,rdx
    3c87:	ff e0                	jmp    rax
    3c89:	48 8b 45 d0          	mov    rax,QWORD PTR [rbp-0x30]
    3c8d:	48 8b 40 10          	mov    rax,QWORD PTR [rax+0x10]
    3c91:	48 89 c2             	mov    rdx,rax
    3c94:	48 8b 45 b8          	mov    rax,QWORD PTR [rbp-0x48]
    3c98:	48 01 c2             	add    rdx,rax
    3c9b:	48 8b 45 e8          	mov    rax,QWORD PTR [rbp-0x18]
    3c9f:	48 89 10             	mov    QWORD PTR [rax],rdx
    3ca2:	e9 33 01 00 00       	jmp    3dda <do_relocs+0x1f2>
    3ca7:	48 8b 45 d0          	mov    rax,QWORD PTR [rbp-0x30]
    3cab:	48 8b 40 08          	mov    rax,QWORD PTR [rax+0x8]
    3caf:	48 c1 e8 20          	shr    rax,0x20
    3cb3:	48 89 c2             	mov    rdx,rax
    3cb6:	48 8b 45 e0          	mov    rax,QWORD PTR [rbp-0x20]
    3cba:	48 89 d6             	mov    rsi,rdx
    3cbd:	48 89 c7             	mov    rdi,rax
    3cc0:	e8 a9 fe ff ff       	call   3b6e <get_sym>
    3cc5:	48 89 45 f0          	mov    QWORD PTR [rbp-0x10],rax
    3cc9:	48 83 7d f0 00       	cmp    QWORD PTR [rbp-0x10],0x0
    3cce:	0f 84 ff 00 00 00    	je     3dd3 <do_relocs+0x1eb>
    3cd4:	48 8b 45 f0          	mov    rax,QWORD PTR [rbp-0x10]
    3cd8:	48 8b 50 08          	mov    rdx,QWORD PTR [rax+0x8]
    3cdc:	48 8b 45 b8          	mov    rax,QWORD PTR [rbp-0x48]
    3ce0:	48 01 c2             	add    rdx,rax
    3ce3:	48 8b 45 d0          	mov    rax,QWORD PTR [rbp-0x30]
    3ce7:	48 8b 40 10          	mov    rax,QWORD PTR [rax+0x10]
    3ceb:	48 01 c2             	add    rdx,rax
    3cee:	48 8b 45 e8          	mov    rax,QWORD PTR [rbp-0x18]
    3cf2:	48 89 10             	mov    QWORD PTR [rax],rdx
    3cf5:	e9 e0 00 00 00       	jmp    3dda <do_relocs+0x1f2>
    3cfa:	48 8b 45 e8          	mov    rax,QWORD PTR [rbp-0x18]
    3cfe:	48 c7 00 01 00 00 00 	mov    QWORD PTR [rax],0x1
    3d05:	e9 d0 00 00 00       	jmp    3dda <do_relocs+0x1f2>
    3d0a:	48 8b 45 d0          	mov    rax,QWORD PTR [rbp-0x30]
    3d0e:	48 8b 40 08          	mov    rax,QWORD PTR [rax+0x8]
    3d12:	48 c1 e8 20          	shr    rax,0x20
    3d16:	48 89 c2             	mov    rdx,rax
    3d19:	48 8b 45 e0          	mov    rax,QWORD PTR [rbp-0x20]
    3d1d:	48 89 d6             	mov    rsi,rdx
    3d20:	48 89 c7             	mov    rdi,rax
    3d23:	e8 46 fe ff ff       	call   3b6e <get_sym>
    3d28:	48 89 45 f0          	mov    QWORD PTR [rbp-0x10],rax
    3d2c:	48 83 7d f0 00       	cmp    QWORD PTR [rbp-0x10],0x0
    3d31:	0f 84 9f 00 00 00    	je     3dd6 <do_relocs+0x1ee>
    3d37:	48 8b 45 f0          	mov    rax,QWORD PTR [rbp-0x10]
    3d3b:	48 8b 50 08          	mov    rdx,QWORD PTR [rax+0x8]
    3d3f:	48 8b 45 d0          	mov    rax,QWORD PTR [rbp-0x30]
    3d43:	48 8b 40 10          	mov    rax,QWORD PTR [rax+0x10]
    3d47:	48 01 c2             	add    rdx,rax
    3d4a:	48 8b 45 e8          	mov    rax,QWORD PTR [rbp-0x18]
    3d4e:	48 89 10             	mov    QWORD PTR [rax],rdx
    3d51:	e9 84 00 00 00       	jmp    3dda <do_relocs+0x1f2>
    3d56:	48 8b 45 d0          	mov    rax,QWORD PTR [rbp-0x30]
    3d5a:	48 8b 40 08          	mov    rax,QWORD PTR [rax+0x8]
    3d5e:	48 c1 e8 20          	shr    rax,0x20
    3d62:	48 89 c2             	mov    rdx,rax
    3d65:	48 8b 45 e0          	mov    rax,QWORD PTR [rbp-0x20]
    3d69:	48 89 d6             	mov    rsi,rdx
    3d6c:	48 89 c7             	mov    rdi,rax
    3d6f:	e8 fa fd ff ff       	call   3b6e <get_sym>
    3d74:	48 89 45 f0          	mov    QWORD PTR [rbp-0x10],rax
    3d78:	48 83 7d f0 00       	cmp    QWORD PTR [rbp-0x10],0x0
    3d7d:	74 5a                	je     3dd9 <do_relocs+0x1f1>
    3d7f:	48 8b 45 b8          	mov    rax,QWORD PTR [rbp-0x48]
    3d83:	48 8d 55 c8          	lea    rdx,[rbp-0x38]
    3d87:	48 89 d6             	mov    rsi,rdx
    3d8a:	48 89 c7             	mov    rdi,rax
    3d8d:	e8 4f 03 00 00       	call   40e1 <elf_tls_aligned_virtual_size>
    3d92:	85 c0                	test   eax,eax
    3d94:	75 2c                	jne    3dc2 <do_relocs+0x1da>
    3d96:	48 8b 45 c8          	mov    rax,QWORD PTR [rbp-0x38]
    3d9a:	48 85 c0             	test   rax,rax
    3d9d:	74 23                	je     3dc2 <do_relocs+0x1da>
    3d9f:	48 8b 45 f0          	mov    rax,QWORD PTR [rbp-0x10]
    3da3:	48 8b 50 08          	mov    rdx,QWORD PTR [rax+0x8]
    3da7:	48 8b 45 d0          	mov    rax,QWORD PTR [rbp-0x30]
    3dab:	48 8b 40 10          	mov    rax,QWORD PTR [rax+0x10]
    3daf:	48 01 c2             	add    rdx,rax
    3db2:	48 8b 45 c8          	mov    rax,QWORD PTR [rbp-0x38]
    3db6:	48 29 c2             	sub    rdx,rax
    3db9:	48 8b 45 e8          	mov    rax,QWORD PTR [rbp-0x18]
    3dbd:	48 89 10             	mov    QWORD PTR [rax],rdx
    3dc0:	eb 18                	jmp    3dda <do_relocs+0x1f2>
    3dc2:	b8 ff ff ff ff       	mov    eax,0xffffffff
    3dc7:	eb 2e                	jmp    3df7 <do_relocs+0x20f>
    3dc9:	b8 ff ff ff ff       	mov    eax,0xffffffff
    3dce:	eb 27                	jmp    3df7 <do_relocs+0x20f>
    3dd0:	90                   	nop
    3dd1:	eb 07                	jmp    3dda <do_relocs+0x1f2>
    3dd3:	90                   	nop
    3dd4:	eb 04                	jmp    3dda <do_relocs+0x1f2>
    3dd6:	90                   	nop
    3dd7:	eb 01                	jmp    3dda <do_relocs+0x1f2>
    3dd9:	90                   	nop
    3dda:	48 83 45 d8 01       	add    QWORD PTR [rbp-0x28],0x1
    3ddf:	48 83 45 d0 18       	add    QWORD PTR [rbp-0x30],0x18
    3de4:	48 8b 45 d8          	mov    rax,QWORD PTR [rbp-0x28]
    3de8:	48 3b 45 a0          	cmp    rax,QWORD PTR [rbp-0x60]
    3dec:	0f 82 50 fe ff ff    	jb     3c42 <do_relocs+0x5a>
    3df2:	b8 00 00 00 00       	mov    eax,0x0
    3df7:	48 8b 4d f8          	mov    rcx,QWORD PTR [rbp-0x8]
    3dfb:	64 48 33 0c 25 28 00 	xor    rcx,QWORD PTR fs:0x28
    3e02:	00 00 
    3e04:	74 05                	je     3e0b <do_relocs+0x223>
    3e06:	e8 1b 08 00 00       	call   4626 <__stack_chk_fail>
    3e0b:	c9                   	leave  
    3e0c:	c3                   	ret    

0000000000003e0d <relocate_enclave>:
    3e0d:	55                   	push   rbp
    3e0e:	48 89 e5             	mov    rbp,rsp
    3e11:	48 83 c4 80          	add    rsp,0xffffffffffffff80
    3e15:	48 89 7d 88          	mov    QWORD PTR [rbp-0x78],rdi
    3e19:	c7 45 94 00 00 00 00 	mov    DWORD PTR [rbp-0x6c],0x0
    3e20:	48 8b 45 88          	mov    rax,QWORD PTR [rbp-0x78]
    3e24:	48 89 45 e0          	mov    QWORD PTR [rbp-0x20],rax
    3e28:	48 8b 45 e0          	mov    rax,QWORD PTR [rbp-0x20]
    3e2c:	48 89 c7             	mov    rdi,rax
    3e2f:	e8 c8 fc ff ff       	call   3afc <get_phdr>
    3e34:	48 89 45 98          	mov    QWORD PTR [rbp-0x68],rax
    3e38:	48 83 7d 98 00       	cmp    QWORD PTR [rbp-0x68],0x0
    3e3d:	0f 85 c3 01 00 00    	jne    4006 <relocate_enclave+0x1f9>
    3e43:	b8 ff ff ff ff       	mov    eax,0xffffffff
    3e48:	e9 d2 01 00 00       	jmp    401f <relocate_enclave+0x212>
    3e4d:	48 8b 45 98          	mov    rax,QWORD PTR [rbp-0x68]
    3e51:	8b 00                	mov    eax,DWORD PTR [rax]
    3e53:	83 f8 02             	cmp    eax,0x2
    3e56:	0f 85 a1 01 00 00    	jne    3ffd <relocate_enclave+0x1f0>
    3e5c:	48 8b 45 98          	mov    rax,QWORD PTR [rbp-0x68]
    3e60:	48 8b 40 20          	mov    rax,QWORD PTR [rax+0x20]
    3e64:	48 c1 e8 04          	shr    rax,0x4
    3e68:	48 89 45 e8          	mov    QWORD PTR [rbp-0x18],rax
    3e6c:	48 8b 45 98          	mov    rax,QWORD PTR [rbp-0x68]
    3e70:	48 8b 50 18          	mov    rdx,QWORD PTR [rax+0x18]
    3e74:	48 8b 45 e0          	mov    rax,QWORD PTR [rbp-0x20]
    3e78:	48 01 d0             	add    rax,rdx
    3e7b:	48 89 45 a8          	mov    QWORD PTR [rbp-0x58],rax
    3e7f:	48 c7 45 b0 00 00 00 	mov    QWORD PTR [rbp-0x50],0x0
    3e86:	00 
    3e87:	48 c7 45 b8 00 00 00 	mov    QWORD PTR [rbp-0x48],0x0
    3e8e:	00 
    3e8f:	48 c7 45 c0 00 00 00 	mov    QWORD PTR [rbp-0x40],0x0
    3e96:	00 
    3e97:	48 c7 45 c8 00 00 00 	mov    QWORD PTR [rbp-0x38],0x0
    3e9e:	00 
    3e9f:	48 c7 45 d0 00 00 00 	mov    QWORD PTR [rbp-0x30],0x0
    3ea6:	00 
    3ea7:	48 c7 45 d8 00 00 00 	mov    QWORD PTR [rbp-0x28],0x0
    3eae:	00 
    3eaf:	48 c7 45 a0 00 00 00 	mov    QWORD PTR [rbp-0x60],0x0
    3eb6:	00 
    3eb7:	e9 9b 00 00 00       	jmp    3f57 <relocate_enclave+0x14a>
    3ebc:	48 8b 45 a8          	mov    rax,QWORD PTR [rbp-0x58]
    3ec0:	48 8b 00             	mov    rax,QWORD PTR [rax]
    3ec3:	48 85 c0             	test   rax,rax
    3ec6:	0f 84 9b 00 00 00    	je     3f67 <relocate_enclave+0x15a>
    3ecc:	48 8b 45 a8          	mov    rax,QWORD PTR [rbp-0x58]
    3ed0:	48 8b 00             	mov    rax,QWORD PTR [rax]
    3ed3:	48 83 f8 17          	cmp    rax,0x17
    3ed7:	77 74                	ja     3f4d <relocate_enclave+0x140>
    3ed9:	48 8d 14 85 00 00 00 	lea    rdx,[rax*4+0x0]
    3ee0:	00 
    3ee1:	48 8d 05 b8 c5 01 00 	lea    rax,[rip+0x1c5b8]        # 204a0 <_ZL18BASE_PROV_SEAL_KEY+0x70>
    3ee8:	8b 04 02             	mov    eax,DWORD PTR [rdx+rax*1]
    3eeb:	48 63 d0             	movsxd rdx,eax
    3eee:	48 8d 05 ab c5 01 00 	lea    rax,[rip+0x1c5ab]        # 204a0 <_ZL18BASE_PROV_SEAL_KEY+0x70>
    3ef5:	48 01 d0             	add    rax,rdx
    3ef8:	ff e0                	jmp    rax
    3efa:	48 8b 45 a8          	mov    rax,QWORD PTR [rbp-0x58]
    3efe:	48 8b 40 08          	mov    rax,QWORD PTR [rax+0x8]
    3f02:	48 89 45 b0          	mov    QWORD PTR [rbp-0x50],rax
    3f06:	eb 45                	jmp    3f4d <relocate_enclave+0x140>
    3f08:	48 8b 45 a8          	mov    rax,QWORD PTR [rbp-0x58]
    3f0c:	48 8b 40 08          	mov    rax,QWORD PTR [rax+0x8]
    3f10:	48 89 45 b8          	mov    QWORD PTR [rbp-0x48],rax
    3f14:	eb 37                	jmp    3f4d <relocate_enclave+0x140>
    3f16:	48 8b 45 a8          	mov    rax,QWORD PTR [rbp-0x58]
    3f1a:	48 8b 40 08          	mov    rax,QWORD PTR [rax+0x8]
    3f1e:	48 89 45 c8          	mov    QWORD PTR [rbp-0x38],rax
    3f22:	eb 29                	jmp    3f4d <relocate_enclave+0x140>
    3f24:	48 8b 45 a8          	mov    rax,QWORD PTR [rbp-0x58]
    3f28:	48 8b 40 08          	mov    rax,QWORD PTR [rax+0x8]
    3f2c:	48 89 45 d0          	mov    QWORD PTR [rbp-0x30],rax
    3f30:	eb 1b                	jmp    3f4d <relocate_enclave+0x140>
    3f32:	48 8b 45 a8          	mov    rax,QWORD PTR [rbp-0x58]
    3f36:	48 8b 40 08          	mov    rax,QWORD PTR [rax+0x8]
    3f3a:	48 89 45 c0          	mov    QWORD PTR [rbp-0x40],rax
    3f3e:	eb 0d                	jmp    3f4d <relocate_enclave+0x140>
    3f40:	48 8b 45 a8          	mov    rax,QWORD PTR [rbp-0x58]
    3f44:	48 8b 40 08          	mov    rax,QWORD PTR [rax+0x8]
    3f48:	48 89 45 d8          	mov    QWORD PTR [rbp-0x28],rax
    3f4c:	90                   	nop
    3f4d:	48 83 45 a0 01       	add    QWORD PTR [rbp-0x60],0x1
    3f52:	48 83 45 a8 10       	add    QWORD PTR [rbp-0x58],0x10
    3f57:	48 8b 45 a0          	mov    rax,QWORD PTR [rbp-0x60]
    3f5b:	48 3b 45 e8          	cmp    rax,QWORD PTR [rbp-0x18]
    3f5f:	0f 82 57 ff ff ff    	jb     3ebc <relocate_enclave+0xaf>
    3f65:	eb 01                	jmp    3f68 <relocate_enclave+0x15b>
    3f67:	90                   	nop
    3f68:	48 83 7d b8 00       	cmp    QWORD PTR [rbp-0x48],0x0
    3f6d:	74 45                	je     3fb4 <relocate_enclave+0x1a7>
    3f6f:	48 83 7d d0 00       	cmp    QWORD PTR [rbp-0x30],0x0
    3f74:	75 0a                	jne    3f80 <relocate_enclave+0x173>
    3f76:	b8 ff ff ff ff       	mov    eax,0xffffffff
    3f7b:	e9 9f 00 00 00       	jmp    401f <relocate_enclave+0x212>
    3f80:	48 8b 45 c8          	mov    rax,QWORD PTR [rbp-0x38]
    3f84:	ba 00 00 00 00       	mov    edx,0x0
    3f89:	48 f7 75 d0          	div    QWORD PTR [rbp-0x30]
    3f8d:	48 89 45 f0          	mov    QWORD PTR [rbp-0x10],rax
    3f91:	48 8b 45 88          	mov    rax,QWORD PTR [rbp-0x78]
    3f95:	48 8b 4d f0          	mov    rcx,QWORD PTR [rbp-0x10]
    3f99:	48 8b 55 b0          	mov    rdx,QWORD PTR [rbp-0x50]
    3f9d:	48 8b 75 b8          	mov    rsi,QWORD PTR [rbp-0x48]
    3fa1:	48 89 c7             	mov    rdi,rax
    3fa4:	e8 3f fc ff ff       	call   3be8 <do_relocs>
    3fa9:	85 c0                	test   eax,eax
    3fab:	74 07                	je     3fb4 <relocate_enclave+0x1a7>
    3fad:	b8 ff ff ff ff       	mov    eax,0xffffffff
    3fb2:	eb 6b                	jmp    401f <relocate_enclave+0x212>
    3fb4:	48 83 7d c0 00       	cmp    QWORD PTR [rbp-0x40],0x0
    3fb9:	74 42                	je     3ffd <relocate_enclave+0x1f0>
    3fbb:	48 83 7d d0 00       	cmp    QWORD PTR [rbp-0x30],0x0
    3fc0:	75 07                	jne    3fc9 <relocate_enclave+0x1bc>
    3fc2:	b8 ff ff ff ff       	mov    eax,0xffffffff
    3fc7:	eb 56                	jmp    401f <relocate_enclave+0x212>
    3fc9:	48 8b 45 d8          	mov    rax,QWORD PTR [rbp-0x28]
    3fcd:	ba 00 00 00 00       	mov    edx,0x0
    3fd2:	48 f7 75 d0          	div    QWORD PTR [rbp-0x30]
    3fd6:	48 89 45 f8          	mov    QWORD PTR [rbp-0x8],rax
    3fda:	48 8b 45 88          	mov    rax,QWORD PTR [rbp-0x78]
    3fde:	48 8b 4d f8          	mov    rcx,QWORD PTR [rbp-0x8]
    3fe2:	48 8b 55 b0          	mov    rdx,QWORD PTR [rbp-0x50]
    3fe6:	48 8b 75 c0          	mov    rsi,QWORD PTR [rbp-0x40]
    3fea:	48 89 c7             	mov    rdi,rax
    3fed:	e8 f6 fb ff ff       	call   3be8 <do_relocs>
    3ff2:	85 c0                	test   eax,eax
    3ff4:	74 07                	je     3ffd <relocate_enclave+0x1f0>
    3ff6:	b8 ff ff ff ff       	mov    eax,0xffffffff
    3ffb:	eb 22                	jmp    401f <relocate_enclave+0x212>
    3ffd:	83 45 94 01          	add    DWORD PTR [rbp-0x6c],0x1
    4001:	48 83 45 98 38       	add    QWORD PTR [rbp-0x68],0x38
    4006:	48 8b 45 e0          	mov    rax,QWORD PTR [rbp-0x20]
    400a:	0f b7 40 38          	movzx  eax,WORD PTR [rax+0x38]
    400e:	0f b7 c0             	movzx  eax,ax
    4011:	39 45 94             	cmp    DWORD PTR [rbp-0x6c],eax
    4014:	0f 82 33 fe ff ff    	jb     3e4d <relocate_enclave+0x40>
    401a:	b8 00 00 00 00       	mov    eax,0x0
    401f:	c9                   	leave  
    4020:	c3                   	ret    

0000000000004021 <elf_tls_info>:
    4021:	55                   	push   rbp
    4022:	48 89 e5             	mov    rbp,rsp
    4025:	48 83 ec 38          	sub    rsp,0x38
    4029:	48 89 7d d8          	mov    QWORD PTR [rbp-0x28],rdi
    402d:	48 89 75 d0          	mov    QWORD PTR [rbp-0x30],rsi
    4031:	48 89 55 c8          	mov    QWORD PTR [rbp-0x38],rdx
    4035:	c7 45 ec 00 00 00 00 	mov    DWORD PTR [rbp-0x14],0x0
    403c:	48 8b 45 d8          	mov    rax,QWORD PTR [rbp-0x28]
    4040:	48 89 45 f8          	mov    QWORD PTR [rbp-0x8],rax
    4044:	48 8b 45 f8          	mov    rax,QWORD PTR [rbp-0x8]
    4048:	48 89 c7             	mov    rdi,rax
    404b:	e8 ac fa ff ff       	call   3afc <get_phdr>
    4050:	48 89 45 f0          	mov    QWORD PTR [rbp-0x10],rax
    4054:	48 83 7d d0 00       	cmp    QWORD PTR [rbp-0x30],0x0
    4059:	74 07                	je     4062 <elf_tls_info+0x41>
    405b:	48 83 7d c8 00       	cmp    QWORD PTR [rbp-0x38],0x0
    4060:	75 07                	jne    4069 <elf_tls_info+0x48>
    4062:	b8 ff ff ff ff       	mov    eax,0xffffffff
    4067:	eb 76                	jmp    40df <elf_tls_info+0xbe>
    4069:	48 83 7d f0 00       	cmp    QWORD PTR [rbp-0x10],0x0
    406e:	75 07                	jne    4077 <elf_tls_info+0x56>
    4070:	b8 ff ff ff ff       	mov    eax,0xffffffff
    4075:	eb 68                	jmp    40df <elf_tls_info+0xbe>
    4077:	48 8b 45 d0          	mov    rax,QWORD PTR [rbp-0x30]
    407b:	48 c7 00 00 00 00 00 	mov    QWORD PTR [rax],0x0
    4082:	48 8b 45 c8          	mov    rax,QWORD PTR [rbp-0x38]
    4086:	48 c7 00 00 00 00 00 	mov    QWORD PTR [rax],0x0
    408d:	eb 3b                	jmp    40ca <elf_tls_info+0xa9>
    408f:	48 8b 45 f0          	mov    rax,QWORD PTR [rbp-0x10]
    4093:	8b 00                	mov    eax,DWORD PTR [rax]
    4095:	83 f8 07             	cmp    eax,0x7
    4098:	75 27                	jne    40c1 <elf_tls_info+0xa0>
    409a:	48 8b 45 f0          	mov    rax,QWORD PTR [rbp-0x10]
    409e:	48 8b 50 10          	mov    rdx,QWORD PTR [rax+0x10]
    40a2:	48 8b 45 d8          	mov    rax,QWORD PTR [rbp-0x28]
    40a6:	48 01 c2             	add    rdx,rax
    40a9:	48 8b 45 d0          	mov    rax,QWORD PTR [rbp-0x30]
    40ad:	48 89 10             	mov    QWORD PTR [rax],rdx
    40b0:	48 8b 45 f0          	mov    rax,QWORD PTR [rbp-0x10]
    40b4:	48 8b 50 20          	mov    rdx,QWORD PTR [rax+0x20]
    40b8:	48 8b 45 c8          	mov    rax,QWORD PTR [rbp-0x38]
    40bc:	48 89 10             	mov    QWORD PTR [rax],rdx
    40bf:	eb 19                	jmp    40da <elf_tls_info+0xb9>
    40c1:	83 45 ec 01          	add    DWORD PTR [rbp-0x14],0x1
    40c5:	48 83 45 f0 38       	add    QWORD PTR [rbp-0x10],0x38
    40ca:	48 8b 45 f8          	mov    rax,QWORD PTR [rbp-0x8]
    40ce:	0f b7 40 38          	movzx  eax,WORD PTR [rax+0x38]
    40d2:	0f b7 c0             	movzx  eax,ax
    40d5:	39 45 ec             	cmp    DWORD PTR [rbp-0x14],eax
    40d8:	72 b5                	jb     408f <elf_tls_info+0x6e>
    40da:	b8 00 00 00 00       	mov    eax,0x0
    40df:	c9                   	leave  
    40e0:	c3                   	ret    

00000000000040e1 <elf_tls_aligned_virtual_size>:
    40e1:	55                   	push   rbp
    40e2:	48 89 e5             	mov    rbp,rsp
    40e5:	48 83 ec 40          	sub    rsp,0x40
    40e9:	48 89 7d c8          	mov    QWORD PTR [rbp-0x38],rdi
    40ed:	48 89 75 c0          	mov    QWORD PTR [rbp-0x40],rsi
    40f1:	c7 45 dc 00 00 00 00 	mov    DWORD PTR [rbp-0x24],0x0
    40f8:	48 8b 45 c8          	mov    rax,QWORD PTR [rbp-0x38]
    40fc:	48 89 45 e8          	mov    QWORD PTR [rbp-0x18],rax
    4100:	48 8b 45 e8          	mov    rax,QWORD PTR [rbp-0x18]
    4104:	48 89 c7             	mov    rdi,rax
    4107:	e8 f0 f9 ff ff       	call   3afc <get_phdr>
    410c:	48 89 45 e0          	mov    QWORD PTR [rbp-0x20],rax
    4110:	48 c7 45 f0 00 00 00 	mov    QWORD PTR [rbp-0x10],0x0
    4117:	00 
    4118:	48 c7 45 f8 00 00 00 	mov    QWORD PTR [rbp-0x8],0x0
    411f:	00 
    4120:	48 83 7d e0 00       	cmp    QWORD PTR [rbp-0x20],0x0
    4125:	75 0a                	jne    4131 <elf_tls_aligned_virtual_size+0x50>
    4127:	b8 ff ff ff ff       	mov    eax,0xffffffff
    412c:	e9 9c 00 00 00       	jmp    41cd <elf_tls_aligned_virtual_size+0xec>
    4131:	48 83 7d c0 00       	cmp    QWORD PTR [rbp-0x40],0x0
    4136:	75 0a                	jne    4142 <elf_tls_aligned_virtual_size+0x61>
    4138:	b8 ff ff ff ff       	mov    eax,0xffffffff
    413d:	e9 8b 00 00 00       	jmp    41cd <elf_tls_aligned_virtual_size+0xec>
    4142:	48 8b 45 c0          	mov    rax,QWORD PTR [rbp-0x40]
    4146:	48 c7 00 00 00 00 00 	mov    QWORD PTR [rax],0x0
    414d:	eb 69                	jmp    41b8 <elf_tls_aligned_virtual_size+0xd7>
    414f:	48 8b 45 e0          	mov    rax,QWORD PTR [rbp-0x20]
    4153:	8b 00                	mov    eax,DWORD PTR [rax]
    4155:	83 f8 07             	cmp    eax,0x7
    4158:	75 55                	jne    41af <elf_tls_aligned_virtual_size+0xce>
    415a:	48 8b 45 e0          	mov    rax,QWORD PTR [rbp-0x20]
    415e:	48 8b 40 28          	mov    rax,QWORD PTR [rax+0x28]
    4162:	48 89 45 f0          	mov    QWORD PTR [rbp-0x10],rax
    4166:	48 8b 45 e0          	mov    rax,QWORD PTR [rbp-0x20]
    416a:	48 8b 40 30          	mov    rax,QWORD PTR [rax+0x30]
    416e:	48 89 45 f8          	mov    QWORD PTR [rbp-0x8],rax
    4172:	48 83 7d f8 00       	cmp    QWORD PTR [rbp-0x8],0x0
    4177:	74 07                	je     4180 <elf_tls_aligned_virtual_size+0x9f>
    4179:	48 83 7d f8 01       	cmp    QWORD PTR [rbp-0x8],0x1
    417e:	75 0d                	jne    418d <elf_tls_aligned_virtual_size+0xac>
    4180:	48 8b 45 c0          	mov    rax,QWORD PTR [rbp-0x40]
    4184:	48 8b 55 f0          	mov    rdx,QWORD PTR [rbp-0x10]
    4188:	48 89 10             	mov    QWORD PTR [rax],rdx
    418b:	eb 3b                	jmp    41c8 <elf_tls_aligned_virtual_size+0xe7>
    418d:	48 8b 55 f0          	mov    rdx,QWORD PTR [rbp-0x10]
    4191:	48 8b 45 f8          	mov    rax,QWORD PTR [rbp-0x8]
    4195:	48 01 d0             	add    rax,rdx
    4198:	48 8d 50 ff          	lea    rdx,[rax-0x1]
    419c:	48 8b 45 f8          	mov    rax,QWORD PTR [rbp-0x8]
    41a0:	48 f7 d8             	neg    rax
    41a3:	48 21 c2             	and    rdx,rax
    41a6:	48 8b 45 c0          	mov    rax,QWORD PTR [rbp-0x40]
    41aa:	48 89 10             	mov    QWORD PTR [rax],rdx
    41ad:	eb 19                	jmp    41c8 <elf_tls_aligned_virtual_size+0xe7>
    41af:	83 45 dc 01          	add    DWORD PTR [rbp-0x24],0x1
    41b3:	48 83 45 e0 38       	add    QWORD PTR [rbp-0x20],0x38
    41b8:	48 8b 45 e8          	mov    rax,QWORD PTR [rbp-0x18]
    41bc:	0f b7 40 38          	movzx  eax,WORD PTR [rax+0x38]
    41c0:	0f b7 c0             	movzx  eax,ax
    41c3:	39 45 dc             	cmp    DWORD PTR [rbp-0x24],eax
    41c6:	72 87                	jb     414f <elf_tls_aligned_virtual_size+0x6e>
    41c8:	b8 00 00 00 00       	mov    eax,0x0
    41cd:	c9                   	leave  
    41ce:	c3                   	ret    

00000000000041cf <elf_get_init_array>:
    41cf:	55                   	push   rbp
    41d0:	48 89 e5             	mov    rbp,rsp
    41d3:	48 83 ec 48          	sub    rsp,0x48
    41d7:	48 89 7d c8          	mov    QWORD PTR [rbp-0x38],rdi
    41db:	48 89 75 c0          	mov    QWORD PTR [rbp-0x40],rsi
    41df:	48 89 55 b8          	mov    QWORD PTR [rbp-0x48],rdx
    41e3:	c7 45 d4 00 00 00 00 	mov    DWORD PTR [rbp-0x2c],0x0
    41ea:	48 8b 45 c8          	mov    rax,QWORD PTR [rbp-0x38]
    41ee:	48 89 45 f0          	mov    QWORD PTR [rbp-0x10],rax
    41f2:	48 8b 45 f0          	mov    rax,QWORD PTR [rbp-0x10]
    41f6:	48 89 c7             	mov    rdi,rax
    41f9:	e8 fe f8 ff ff       	call   3afc <get_phdr>
    41fe:	48 89 45 d8          	mov    QWORD PTR [rbp-0x28],rax
    4202:	48 83 7d c0 00       	cmp    QWORD PTR [rbp-0x40],0x0
    4207:	74 07                	je     4210 <elf_get_init_array+0x41>
    4209:	48 83 7d b8 00       	cmp    QWORD PTR [rbp-0x48],0x0
    420e:	75 0a                	jne    421a <elf_get_init_array+0x4b>
    4210:	b8 ff ff ff ff       	mov    eax,0xffffffff
    4215:	e9 d0 00 00 00       	jmp    42ea <elf_get_init_array+0x11b>
    421a:	48 83 7d d8 00       	cmp    QWORD PTR [rbp-0x28],0x0
    421f:	75 0a                	jne    422b <elf_get_init_array+0x5c>
    4221:	b8 ff ff ff ff       	mov    eax,0xffffffff
    4226:	e9 bf 00 00 00       	jmp    42ea <elf_get_init_array+0x11b>
    422b:	48 8b 45 c0          	mov    rax,QWORD PTR [rbp-0x40]
    422f:	48 c7 00 00 00 00 00 	mov    QWORD PTR [rax],0x0
    4236:	48 8b 45 b8          	mov    rax,QWORD PTR [rbp-0x48]
    423a:	48 c7 00 00 00 00 00 	mov    QWORD PTR [rax],0x0
    4241:	e9 8b 00 00 00       	jmp    42d1 <elf_get_init_array+0x102>
    4246:	48 8b 45 d8          	mov    rax,QWORD PTR [rbp-0x28]
    424a:	8b 00                	mov    eax,DWORD PTR [rax]
    424c:	83 f8 02             	cmp    eax,0x2
    424f:	75 77                	jne    42c8 <elf_get_init_array+0xf9>
    4251:	48 8b 45 d8          	mov    rax,QWORD PTR [rbp-0x28]
    4255:	48 8b 40 20          	mov    rax,QWORD PTR [rax+0x20]
    4259:	48 c1 e8 04          	shr    rax,0x4
    425d:	48 89 45 f8          	mov    QWORD PTR [rbp-0x8],rax
    4261:	48 8b 45 d8          	mov    rax,QWORD PTR [rbp-0x28]
    4265:	48 8b 50 18          	mov    rdx,QWORD PTR [rax+0x18]
    4269:	48 8b 45 f0          	mov    rax,QWORD PTR [rbp-0x10]
    426d:	48 01 d0             	add    rax,rdx
    4270:	48 89 45 e8          	mov    QWORD PTR [rbp-0x18],rax
    4274:	48 c7 45 e0 00 00 00 	mov    QWORD PTR [rbp-0x20],0x0
    427b:	00 
    427c:	eb 40                	jmp    42be <elf_get_init_array+0xef>
    427e:	48 8b 45 e8          	mov    rax,QWORD PTR [rbp-0x18]
    4282:	48 8b 00             	mov    rax,QWORD PTR [rax]
    4285:	48 83 f8 19          	cmp    rax,0x19
    4289:	74 08                	je     4293 <elf_get_init_array+0xc4>
    428b:	48 83 f8 1b          	cmp    rax,0x1b
    428f:	74 13                	je     42a4 <elf_get_init_array+0xd5>
    4291:	eb 21                	jmp    42b4 <elf_get_init_array+0xe5>
    4293:	48 8b 45 e8          	mov    rax,QWORD PTR [rbp-0x18]
    4297:	48 8b 50 08          	mov    rdx,QWORD PTR [rax+0x8]
    429b:	48 8b 45 c0          	mov    rax,QWORD PTR [rbp-0x40]
    429f:	48 89 10             	mov    QWORD PTR [rax],rdx
    42a2:	eb 10                	jmp    42b4 <elf_get_init_array+0xe5>
    42a4:	48 8b 45 e8          	mov    rax,QWORD PTR [rbp-0x18]
    42a8:	48 8b 50 08          	mov    rdx,QWORD PTR [rax+0x8]
    42ac:	48 8b 45 b8          	mov    rax,QWORD PTR [rbp-0x48]
    42b0:	48 89 10             	mov    QWORD PTR [rax],rdx
    42b3:	90                   	nop
    42b4:	48 83 45 e0 01       	add    QWORD PTR [rbp-0x20],0x1
    42b9:	48 83 45 e8 10       	add    QWORD PTR [rbp-0x18],0x10
    42be:	48 8b 45 e0          	mov    rax,QWORD PTR [rbp-0x20]
    42c2:	48 3b 45 f8          	cmp    rax,QWORD PTR [rbp-0x8]
    42c6:	72 b6                	jb     427e <elf_get_init_array+0xaf>
    42c8:	83 45 d4 01          	add    DWORD PTR [rbp-0x2c],0x1
    42cc:	48 83 45 d8 38       	add    QWORD PTR [rbp-0x28],0x38
    42d1:	48 8b 45 f0          	mov    rax,QWORD PTR [rbp-0x10]
    42d5:	0f b7 40 38          	movzx  eax,WORD PTR [rax+0x38]
    42d9:	0f b7 c0             	movzx  eax,ax
    42dc:	39 45 d4             	cmp    DWORD PTR [rbp-0x2c],eax
    42df:	0f 82 61 ff ff ff    	jb     4246 <elf_get_init_array+0x77>
    42e5:	b8 00 00 00 00       	mov    eax,0x0
    42ea:	c9                   	leave  
    42eb:	c3                   	ret    

00000000000042ec <elf_get_uninit_array>:
    42ec:	55                   	push   rbp
    42ed:	48 89 e5             	mov    rbp,rsp
    42f0:	48 83 ec 48          	sub    rsp,0x48
    42f4:	48 89 7d c8          	mov    QWORD PTR [rbp-0x38],rdi
    42f8:	48 89 75 c0          	mov    QWORD PTR [rbp-0x40],rsi
    42fc:	48 89 55 b8          	mov    QWORD PTR [rbp-0x48],rdx
    4300:	c7 45 d4 00 00 00 00 	mov    DWORD PTR [rbp-0x2c],0x0
    4307:	48 8b 45 c8          	mov    rax,QWORD PTR [rbp-0x38]
    430b:	48 89 45 f0          	mov    QWORD PTR [rbp-0x10],rax
    430f:	48 8b 45 f0          	mov    rax,QWORD PTR [rbp-0x10]
    4313:	48 89 c7             	mov    rdi,rax
    4316:	e8 e1 f7 ff ff       	call   3afc <get_phdr>
    431b:	48 89 45 d8          	mov    QWORD PTR [rbp-0x28],rax
    431f:	48 83 7d c0 00       	cmp    QWORD PTR [rbp-0x40],0x0
    4324:	74 07                	je     432d <elf_get_uninit_array+0x41>
    4326:	48 83 7d b8 00       	cmp    QWORD PTR [rbp-0x48],0x0
    432b:	75 0a                	jne    4337 <elf_get_uninit_array+0x4b>
    432d:	b8 ff ff ff ff       	mov    eax,0xffffffff
    4332:	e9 d0 00 00 00       	jmp    4407 <elf_get_uninit_array+0x11b>
    4337:	48 83 7d d8 00       	cmp    QWORD PTR [rbp-0x28],0x0
    433c:	75 0a                	jne    4348 <elf_get_uninit_array+0x5c>
    433e:	b8 ff ff ff ff       	mov    eax,0xffffffff
    4343:	e9 bf 00 00 00       	jmp    4407 <elf_get_uninit_array+0x11b>
    4348:	48 8b 45 c0          	mov    rax,QWORD PTR [rbp-0x40]
    434c:	48 c7 00 00 00 00 00 	mov    QWORD PTR [rax],0x0
    4353:	48 8b 45 b8          	mov    rax,QWORD PTR [rbp-0x48]
    4357:	48 c7 00 00 00 00 00 	mov    QWORD PTR [rax],0x0
    435e:	e9 8b 00 00 00       	jmp    43ee <elf_get_uninit_array+0x102>
    4363:	48 8b 45 d8          	mov    rax,QWORD PTR [rbp-0x28]
    4367:	8b 00                	mov    eax,DWORD PTR [rax]
    4369:	83 f8 02             	cmp    eax,0x2
    436c:	75 77                	jne    43e5 <elf_get_uninit_array+0xf9>
    436e:	48 8b 45 d8          	mov    rax,QWORD PTR [rbp-0x28]
    4372:	48 8b 40 20          	mov    rax,QWORD PTR [rax+0x20]
    4376:	48 c1 e8 04          	shr    rax,0x4
    437a:	48 89 45 f8          	mov    QWORD PTR [rbp-0x8],rax
    437e:	48 8b 45 d8          	mov    rax,QWORD PTR [rbp-0x28]
    4382:	48 8b 50 18          	mov    rdx,QWORD PTR [rax+0x18]
    4386:	48 8b 45 f0          	mov    rax,QWORD PTR [rbp-0x10]
    438a:	48 01 d0             	add    rax,rdx
    438d:	48 89 45 e8          	mov    QWORD PTR [rbp-0x18],rax
    4391:	48 c7 45 e0 00 00 00 	mov    QWORD PTR [rbp-0x20],0x0
    4398:	00 
    4399:	eb 40                	jmp    43db <elf_get_uninit_array+0xef>
    439b:	48 8b 45 e8          	mov    rax,QWORD PTR [rbp-0x18]
    439f:	48 8b 00             	mov    rax,QWORD PTR [rax]
    43a2:	48 83 f8 1a          	cmp    rax,0x1a
    43a6:	74 08                	je     43b0 <elf_get_uninit_array+0xc4>
    43a8:	48 83 f8 1c          	cmp    rax,0x1c
    43ac:	74 13                	je     43c1 <elf_get_uninit_array+0xd5>
    43ae:	eb 21                	jmp    43d1 <elf_get_uninit_array+0xe5>
    43b0:	48 8b 45 e8          	mov    rax,QWORD PTR [rbp-0x18]
    43b4:	48 8b 50 08          	mov    rdx,QWORD PTR [rax+0x8]
    43b8:	48 8b 45 c0          	mov    rax,QWORD PTR [rbp-0x40]
    43bc:	48 89 10             	mov    QWORD PTR [rax],rdx
    43bf:	eb 10                	jmp    43d1 <elf_get_uninit_array+0xe5>
    43c1:	48 8b 45 e8          	mov    rax,QWORD PTR [rbp-0x18]
    43c5:	48 8b 50 08          	mov    rdx,QWORD PTR [rax+0x8]
    43c9:	48 8b 45 b8          	mov    rax,QWORD PTR [rbp-0x48]
    43cd:	48 89 10             	mov    QWORD PTR [rax],rdx
    43d0:	90                   	nop
    43d1:	48 83 45 e0 01       	add    QWORD PTR [rbp-0x20],0x1
    43d6:	48 83 45 e8 10       	add    QWORD PTR [rbp-0x18],0x10
    43db:	48 8b 45 e0          	mov    rax,QWORD PTR [rbp-0x20]
    43df:	48 3b 45 f8          	cmp    rax,QWORD PTR [rbp-0x8]
    43e3:	72 b6                	jb     439b <elf_get_uninit_array+0xaf>
    43e5:	83 45 d4 01          	add    DWORD PTR [rbp-0x2c],0x1
    43e9:	48 83 45 d8 38       	add    QWORD PTR [rbp-0x28],0x38
    43ee:	48 8b 45 f0          	mov    rax,QWORD PTR [rbp-0x10]
    43f2:	0f b7 40 38          	movzx  eax,WORD PTR [rax+0x38]
    43f6:	0f b7 c0             	movzx  eax,ax
    43f9:	39 45 d4             	cmp    DWORD PTR [rbp-0x2c],eax
    43fc:	0f 82 61 ff ff ff    	jb     4363 <elf_get_uninit_array+0x77>
    4402:	b8 00 00 00 00       	mov    eax,0x0
    4407:	c9                   	leave  
    4408:	c3                   	ret    

0000000000004409 <do_atexit_aux>:
    4409:	55                   	push   rbp
    440a:	48 89 e5             	mov    rbp,rsp
    440d:	48 83 ec 20          	sub    rsp,0x20
    4411:	48 8b 05 68 20 22 00 	mov    rax,QWORD PTR [rip+0x222068]        # 226480 <g_exit_function>
    4418:	48 89 45 e0          	mov    QWORD PTR [rbp-0x20],rax
    441c:	48 c7 05 59 20 22 00 	mov    QWORD PTR [rip+0x222059],0x0        # 226480 <g_exit_function>
    4423:	00 00 00 00 
    4427:	eb 58                	jmp    4481 <do_atexit_aux+0x78>
    4429:	48 8b 45 e0          	mov    rax,QWORD PTR [rbp-0x20]
    442d:	48 8b 10             	mov    rdx,QWORD PTR [rax]
    4430:	48 8b 05 51 20 22 00 	mov    rax,QWORD PTR [rip+0x222051]        # 226488 <g_exit_function_cookie>
    4437:	48 31 d0             	xor    rax,rdx
    443a:	48 89 45 e8          	mov    QWORD PTR [rbp-0x18],rax
    443e:	48 8b 45 e0          	mov    rax,QWORD PTR [rbp-0x20]
    4442:	48 8b 50 08          	mov    rdx,QWORD PTR [rax+0x8]
    4446:	48 8b 05 3b 20 22 00 	mov    rax,QWORD PTR [rip+0x22203b]        # 226488 <g_exit_function_cookie>
    444d:	48 31 d0             	xor    rax,rdx
    4450:	48 89 45 f0          	mov    QWORD PTR [rbp-0x10],rax
    4454:	48 8b 55 f0          	mov    rdx,QWORD PTR [rbp-0x10]
    4458:	48 8b 45 e8          	mov    rax,QWORD PTR [rbp-0x18]
    445c:	48 89 d7             	mov    rdi,rdx
    445f:	ff d0                	call   rax
    4461:	48 8b 45 e0          	mov    rax,QWORD PTR [rbp-0x20]
    4465:	48 89 45 f8          	mov    QWORD PTR [rbp-0x8],rax
    4469:	48 8b 45 e0          	mov    rax,QWORD PTR [rbp-0x20]
    446d:	48 8b 40 18          	mov    rax,QWORD PTR [rax+0x18]
    4471:	48 89 45 e0          	mov    QWORD PTR [rbp-0x20],rax
    4475:	48 8b 45 f8          	mov    rax,QWORD PTR [rbp-0x8]
    4479:	48 89 c7             	mov    rdi,rax
    447c:	e8 96 47 00 00       	call   8c17 <dlfree>
    4481:	48 83 7d e0 00       	cmp    QWORD PTR [rbp-0x20],0x0
    4486:	75 a1                	jne    4429 <do_atexit_aux+0x20>
    4488:	90                   	nop
    4489:	c9                   	leave  
    448a:	c3                   	ret    

000000000000448b <do_ctors_aux>:
    448b:	55                   	push   rbp
    448c:	48 89 e5             	mov    rbp,rsp
    448f:	48 83 ec 40          	sub    rsp,0x40
    4493:	64 48 8b 04 25 28 00 	mov    rax,QWORD PTR fs:0x28
    449a:	00 00 
    449c:	48 89 45 f8          	mov    QWORD PTR [rbp-0x8],rax
    44a0:	31 c0                	xor    eax,eax
    44a2:	48 c7 45 d8 00 00 00 	mov    QWORD PTR [rbp-0x28],0x0
    44a9:	00 
    44aa:	48 c7 45 c8 00 00 00 	mov    QWORD PTR [rbp-0x38],0x0
    44b1:	00 
    44b2:	48 c7 45 d0 00 00 00 	mov    QWORD PTR [rbp-0x30],0x0
    44b9:	00 
    44ba:	48 8d 05 3f bb ff ff 	lea    rax,[rip+0xffffffffffffbb3f]        # 0 <enclave.so>
    44c1:	48 89 45 e0          	mov    QWORD PTR [rbp-0x20],rax
    44c5:	48 8d 55 d0          	lea    rdx,[rbp-0x30]
    44c9:	48 8d 4d c8          	lea    rcx,[rbp-0x38]
    44cd:	48 8b 45 e0          	mov    rax,QWORD PTR [rbp-0x20]
    44d1:	48 89 ce             	mov    rsi,rcx
    44d4:	48 89 c7             	mov    rdi,rax
    44d7:	e8 f3 fc ff ff       	call   41cf <elf_get_init_array>
    44dc:	85 c0                	test   eax,eax
    44de:	75 5b                	jne    453b <do_ctors_aux+0xb0>
    44e0:	48 8b 45 c8          	mov    rax,QWORD PTR [rbp-0x38]
    44e4:	48 85 c0             	test   rax,rax
    44e7:	74 52                	je     453b <do_ctors_aux+0xb0>
    44e9:	48 8b 45 d0          	mov    rax,QWORD PTR [rbp-0x30]
    44ed:	48 85 c0             	test   rax,rax
    44f0:	74 49                	je     453b <do_ctors_aux+0xb0>
    44f2:	48 8b 55 c8          	mov    rdx,QWORD PTR [rbp-0x38]
    44f6:	48 8b 45 e0          	mov    rax,QWORD PTR [rbp-0x20]
    44fa:	48 01 d0             	add    rax,rdx
    44fd:	48 89 45 e8          	mov    QWORD PTR [rbp-0x18],rax
    4501:	48 8b 45 d0          	mov    rax,QWORD PTR [rbp-0x30]
    4505:	48 83 e0 f8          	and    rax,0xfffffffffffffff8
    4509:	48 89 c2             	mov    rdx,rax
    450c:	48 8b 45 e8          	mov    rax,QWORD PTR [rbp-0x18]
    4510:	48 01 d0             	add    rax,rdx
    4513:	48 89 45 f0          	mov    QWORD PTR [rbp-0x10],rax
    4517:	48 8b 45 e8          	mov    rax,QWORD PTR [rbp-0x18]
    451b:	48 89 45 d8          	mov    QWORD PTR [rbp-0x28],rax
    451f:	eb 0e                	jmp    452f <do_ctors_aux+0xa4>
    4521:	48 8b 45 d8          	mov    rax,QWORD PTR [rbp-0x28]
    4525:	48 8b 00             	mov    rax,QWORD PTR [rax]
    4528:	ff d0                	call   rax
    452a:	48 83 45 d8 08       	add    QWORD PTR [rbp-0x28],0x8
    452f:	48 8b 45 d8          	mov    rax,QWORD PTR [rbp-0x28]
    4533:	48 3b 45 f0          	cmp    rax,QWORD PTR [rbp-0x10]
    4537:	72 e8                	jb     4521 <do_ctors_aux+0x96>
    4539:	eb 01                	jmp    453c <do_ctors_aux+0xb1>
    453b:	90                   	nop
    453c:	48 8b 45 f8          	mov    rax,QWORD PTR [rbp-0x8]
    4540:	64 48 33 04 25 28 00 	xor    rax,QWORD PTR fs:0x28
    4547:	00 00 
    4549:	74 05                	je     4550 <do_ctors_aux+0xc5>
    454b:	e8 d6 00 00 00       	call   4626 <__stack_chk_fail>
    4550:	c9                   	leave  
    4551:	c3                   	ret    

0000000000004552 <do_dtors_aux>:
    4552:	55                   	push   rbp
    4553:	48 89 e5             	mov    rbp,rsp
    4556:	48 83 ec 40          	sub    rsp,0x40
    455a:	64 48 8b 04 25 28 00 	mov    rax,QWORD PTR fs:0x28
    4561:	00 00 
    4563:	48 89 45 f8          	mov    QWORD PTR [rbp-0x8],rax
    4567:	31 c0                	xor    eax,eax
    4569:	48 c7 45 d8 00 00 00 	mov    QWORD PTR [rbp-0x28],0x0
    4570:	00 
    4571:	48 8d 05 88 ba ff ff 	lea    rax,[rip+0xffffffffffffba88]        # 0 <enclave.so>
    4578:	48 89 45 e0          	mov    QWORD PTR [rbp-0x20],rax
    457c:	48 8d 55 d0          	lea    rdx,[rbp-0x30]
    4580:	48 8d 4d c8          	lea    rcx,[rbp-0x38]
    4584:	48 8b 45 e0          	mov    rax,QWORD PTR [rbp-0x20]
    4588:	48 89 ce             	mov    rsi,rcx
    458b:	48 89 c7             	mov    rdi,rax
    458e:	e8 59 fd ff ff       	call   42ec <elf_get_uninit_array>
    4593:	48 8b 45 c8          	mov    rax,QWORD PTR [rbp-0x38]
    4597:	48 85 c0             	test   rax,rax
    459a:	74 56                	je     45f2 <do_dtors_aux+0xa0>
    459c:	48 8b 45 d0          	mov    rax,QWORD PTR [rbp-0x30]
    45a0:	48 85 c0             	test   rax,rax
    45a3:	74 4d                	je     45f2 <do_dtors_aux+0xa0>
    45a5:	48 8b 55 c8          	mov    rdx,QWORD PTR [rbp-0x38]
    45a9:	48 8b 45 e0          	mov    rax,QWORD PTR [rbp-0x20]
    45ad:	48 01 d0             	add    rax,rdx
    45b0:	48 89 45 e8          	mov    QWORD PTR [rbp-0x18],rax
    45b4:	48 8b 45 d0          	mov    rax,QWORD PTR [rbp-0x30]
    45b8:	48 83 e0 f8          	and    rax,0xfffffffffffffff8
    45bc:	48 89 c2             	mov    rdx,rax
    45bf:	48 8b 45 e8          	mov    rax,QWORD PTR [rbp-0x18]
    45c3:	48 01 d0             	add    rax,rdx
    45c6:	48 89 45 f0          	mov    QWORD PTR [rbp-0x10],rax
    45ca:	48 8b 45 f0          	mov    rax,QWORD PTR [rbp-0x10]
    45ce:	48 83 e8 08          	sub    rax,0x8
    45d2:	48 89 45 d8          	mov    QWORD PTR [rbp-0x28],rax
    45d6:	eb 0e                	jmp    45e6 <do_dtors_aux+0x94>
    45d8:	48 8b 45 d8          	mov    rax,QWORD PTR [rbp-0x28]
    45dc:	48 8b 00             	mov    rax,QWORD PTR [rax]
    45df:	ff d0                	call   rax
    45e1:	48 83 6d d8 08       	sub    QWORD PTR [rbp-0x28],0x8
    45e6:	48 8b 45 d8          	mov    rax,QWORD PTR [rbp-0x28]
    45ea:	48 3b 45 e8          	cmp    rax,QWORD PTR [rbp-0x18]
    45ee:	73 e8                	jae    45d8 <do_dtors_aux+0x86>
    45f0:	eb 01                	jmp    45f3 <do_dtors_aux+0xa1>
    45f2:	90                   	nop
    45f3:	48 8b 45 f8          	mov    rax,QWORD PTR [rbp-0x8]
    45f7:	64 48 33 04 25 28 00 	xor    rax,QWORD PTR fs:0x28
    45fe:	00 00 
    4600:	74 05                	je     4607 <do_dtors_aux+0xb5>
    4602:	e8 1f 00 00 00       	call   4626 <__stack_chk_fail>
    4607:	c9                   	leave  
    4608:	c3                   	ret    

0000000000004609 <init_global_object>:
    4609:	55                   	push   rbp
    460a:	48 89 e5             	mov    rbp,rsp
    460d:	e8 79 fe ff ff       	call   448b <do_ctors_aux>
    4612:	90                   	nop
    4613:	5d                   	pop    rbp
    4614:	c3                   	ret    

0000000000004615 <uninit_global_object>:
    4615:	55                   	push   rbp
    4616:	48 89 e5             	mov    rbp,rsp
    4619:	e8 eb fd ff ff       	call   4409 <do_atexit_aux>
    461e:	e8 2f ff ff ff       	call   4552 <do_dtors_aux>
    4623:	90                   	nop
    4624:	5d                   	pop    rbp
    4625:	c3                   	ret    

0000000000004626 <__stack_chk_fail>:
    4626:	55                   	push   rbp
    4627:	48 89 e5             	mov    rbp,rsp
    462a:	e8 c4 bb 01 00       	call   201f3 <abort>

000000000000462f <__intel_security_check_cookie>:
    462f:	55                   	push   rbp
    4630:	48 89 e5             	mov    rbp,rsp
    4633:	48 83 ec 10          	sub    rsp,0x10
    4637:	48 89 7d f8          	mov    QWORD PTR [rbp-0x8],rdi
    463b:	48 8b 05 0e 08 22 00 	mov    rax,QWORD PTR [rip+0x22080e]        # 224e50 <__intel_security_cookie>
    4642:	48 39 45 f8          	cmp    QWORD PTR [rbp-0x8],rax
    4646:	74 05                	je     464d <__intel_security_check_cookie+0x1e>
    4648:	e8 a6 bb 01 00       	call   201f3 <abort>
    464d:	90                   	nop
    464e:	c9                   	leave  
    464f:	c3                   	ret    

0000000000004650 <__assert>:
    4650:	55                   	push   rbp
    4651:	48 89 e5             	mov    rbp,rsp
    4654:	48 83 ec 20          	sub    rsp,0x20
    4658:	48 89 7d f8          	mov    QWORD PTR [rbp-0x8],rdi
    465c:	89 75 f4             	mov    DWORD PTR [rbp-0xc],esi
    465f:	48 89 55 e8          	mov    QWORD PTR [rbp-0x18],rdx
    4663:	48 89 4d e0          	mov    QWORD PTR [rbp-0x20],rcx
    4667:	e8 87 bb 01 00       	call   201f3 <abort>

000000000000466c <__errno>:
    466c:	55                   	push   rbp
    466d:	48 89 e5             	mov    rbp,rsp
    4670:	e8 79 d9 ff ff       	call   1fee <get_errno_addr>
    4675:	5d                   	pop    rbp
    4676:	c3                   	ret    

0000000000004677 <spin_acquire_lock>:
    4677:	55                   	push   rbp
    4678:	48 89 e5             	mov    rbp,rsp
    467b:	48 89 7d e8          	mov    QWORD PTR [rbp-0x18],rdi
    467f:	c7 45 fc 00 00 00 00 	mov    DWORD PTR [rbp-0x4],0x0
    4686:	eb 04                	jmp    468c <spin_acquire_lock+0x15>
    4688:	83 45 fc 01          	add    DWORD PTR [rbp-0x4],0x1
    468c:	48 8b 45 e8          	mov    rax,QWORD PTR [rbp-0x18]
    4690:	8b 00                	mov    eax,DWORD PTR [rax]
    4692:	85 c0                	test   eax,eax
    4694:	75 f2                	jne    4688 <spin_acquire_lock+0x11>
    4696:	48 8b 55 e8          	mov    rdx,QWORD PTR [rbp-0x18]
    469a:	b8 01 00 00 00       	mov    eax,0x1
    469f:	87 02                	xchg   DWORD PTR [rdx],eax
    46a1:	85 c0                	test   eax,eax
    46a3:	75 e3                	jne    4688 <spin_acquire_lock+0x11>
    46a5:	b8 00 00 00 00       	mov    eax,0x0
    46aa:	5d                   	pop    rbp
    46ab:	c3                   	ret    

00000000000046ac <segment_holding>:
    46ac:	55                   	push   rbp
    46ad:	48 89 e5             	mov    rbp,rsp
    46b0:	48 89 7d e8          	mov    QWORD PTR [rbp-0x18],rdi
    46b4:	48 89 75 e0          	mov    QWORD PTR [rbp-0x20],rsi
    46b8:	48 8b 45 e8          	mov    rax,QWORD PTR [rbp-0x18]
    46bc:	48 05 78 03 00 00    	add    rax,0x378
    46c2:	48 89 45 f8          	mov    QWORD PTR [rbp-0x8],rax
    46c6:	48 8b 45 f8          	mov    rax,QWORD PTR [rbp-0x8]
    46ca:	48 8b 00             	mov    rax,QWORD PTR [rax]
    46cd:	48 39 45 e0          	cmp    QWORD PTR [rbp-0x20],rax
    46d1:	72 1e                	jb     46f1 <segment_holding+0x45>
    46d3:	48 8b 45 f8          	mov    rax,QWORD PTR [rbp-0x8]
    46d7:	48 8b 10             	mov    rdx,QWORD PTR [rax]
    46da:	48 8b 45 f8          	mov    rax,QWORD PTR [rbp-0x8]
    46de:	48 8b 40 08          	mov    rax,QWORD PTR [rax+0x8]
    46e2:	48 01 d0             	add    rax,rdx
    46e5:	48 39 45 e0          	cmp    QWORD PTR [rbp-0x20],rax
    46e9:	73 06                	jae    46f1 <segment_holding+0x45>
    46eb:	48 8b 45 f8          	mov    rax,QWORD PTR [rbp-0x8]
    46ef:	eb 18                	jmp    4709 <segment_holding+0x5d>
    46f1:	48 8b 45 f8          	mov    rax,QWORD PTR [rbp-0x8]
    46f5:	48 8b 40 10          	mov    rax,QWORD PTR [rax+0x10]
    46f9:	48 89 45 f8          	mov    QWORD PTR [rbp-0x8],rax
    46fd:	48 83 7d f8 00       	cmp    QWORD PTR [rbp-0x8],0x0
    4702:	75 c2                	jne    46c6 <segment_holding+0x1a>
    4704:	b8 00 00 00 00       	mov    eax,0x0
    4709:	5d                   	pop    rbp
    470a:	c3                   	ret    

000000000000470b <init_mparams>:
    470b:	55                   	push   rbp
    470c:	48 89 e5             	mov    rbp,rsp
    470f:	48 83 ec 20          	sub    rsp,0x20
    4713:	64 48 8b 04 25 28 00 	mov    rax,QWORD PTR fs:0x28
    471a:	00 00 
    471c:	48 89 45 f8          	mov    QWORD PTR [rbp-0x8],rax
    4720:	31 c0                	xor    eax,eax
    4722:	b8 01 00 00 00       	mov    eax,0x1
    4727:	87 05 63 1d 22 00    	xchg   DWORD PTR [rip+0x221d63],eax        # 226490 <malloc_global_mutex>
    472d:	85 c0                	test   eax,eax
    472f:	74 0c                	je     473d <init_mparams+0x32>
    4731:	48 8d 3d 58 1d 22 00 	lea    rdi,[rip+0x221d58]        # 226490 <malloc_global_mutex>
    4738:	e8 3a ff ff ff       	call   4677 <spin_acquire_lock>
