
enclave.so:     file format elf64-x86-64


Disassembly of section .plt:

0000000000000830 <.plt>:
 830:	ff 35 d2 57 22 00    	push   QWORD PTR [rip+0x2257d2]        # 226008 <_GLOBAL_OFFSET_TABLE_+0x8>
 836:	ff 25 d4 57 22 00    	jmp    QWORD PTR [rip+0x2257d4]        # 226010 <_GLOBAL_OFFSET_TABLE_+0x10>
 83c:	0f 1f 40 00          	nop    DWORD PTR [rax+0x0]

Disassembly of section .plt.got:

0000000000000840 <_Z9pcl_entryPvS_@plt>:
 840:	ff 25 b2 57 22 00    	jmp    QWORD PTR [rip+0x2257b2]        # 225ff8 <_Z9pcl_entryPvS_>
 846:	66 90                	xchg   ax,ax

Disassembly of section .text:

0000000000000860 <ocall_print_string>:
     860:	55                   	push   rbp
     861:	48 89 e5             	mov    rbp,rsp
     864:	48 83 ec 50          	sub    rsp,0x50
     868:	48 89 7d f0          	mov    QWORD PTR [rbp-0x10],rdi
     86c:	c7 45 ec 00 00 00 00 	mov    DWORD PTR [rbp-0x14],0x0
     873:	48 83 7d f0 00       	cmp    QWORD PTR [rbp-0x10],0x0
     878:	74 15                	je     88f <ocall_print_string+0x2f>
     87a:	48 8b 7d f0          	mov    rdi,QWORD PTR [rbp-0x10]
     87e:	e8 7a a6 00 00       	call   aefd <strlen>
     883:	48 05 01 00 00 00    	add    rax,0x1
     889:	48 89 45 c0          	mov    QWORD PTR [rbp-0x40],rax
     88d:	eb 0a                	jmp    899 <ocall_print_string+0x39>
     88f:	31 c0                	xor    eax,eax
     891:	89 c1                	mov    ecx,eax
     893:	48 89 4d c0          	mov    QWORD PTR [rbp-0x40],rcx
     897:	eb 00                	jmp    899 <ocall_print_string+0x39>
     899:	48 8b 45 c0          	mov    rax,QWORD PTR [rbp-0x40]
     89d:	48 89 45 e0          	mov    QWORD PTR [rbp-0x20],rax
     8a1:	48 c7 45 d8 00 00 00 	mov    QWORD PTR [rbp-0x28],0x0
     8a8:	00 
     8a9:	48 c7 45 d0 08 00 00 	mov    QWORD PTR [rbp-0x30],0x8
     8b0:	00 
     8b1:	48 c7 45 c8 00 00 00 	mov    QWORD PTR [rbp-0x38],0x0
     8b8:	00 
     8b9:	48 83 7d f0 00       	cmp    QWORD PTR [rbp-0x10],0x0
     8be:	74 1e                	je     8de <ocall_print_string+0x7e>
     8c0:	48 8b 7d f0          	mov    rdi,QWORD PTR [rbp-0x10]
     8c4:	48 8b 75 e0          	mov    rsi,QWORD PTR [rbp-0x20]
     8c8:	e8 ca 08 00 00       	call   1197 <sgx_is_within_enclave>
     8cd:	83 f8 00             	cmp    eax,0x0
     8d0:	75 0c                	jne    8de <ocall_print_string+0x7e>
     8d2:	c7 45 fc 02 00 00 00 	mov    DWORD PTR [rbp-0x4],0x2
     8d9:	e9 f8 00 00 00       	jmp    9d6 <ocall_print_string+0x176>
     8de:	eb 00                	jmp    8e0 <ocall_print_string+0x80>
     8e0:	48 83 7d f0 00       	cmp    QWORD PTR [rbp-0x10],0x0
     8e5:	74 0a                	je     8f1 <ocall_print_string+0x91>
     8e7:	48 8b 45 e0          	mov    rax,QWORD PTR [rbp-0x20]
     8eb:	48 89 45 b8          	mov    QWORD PTR [rbp-0x48],rax
     8ef:	eb 0a                	jmp    8fb <ocall_print_string+0x9b>
     8f1:	31 c0                	xor    eax,eax
     8f3:	89 c1                	mov    ecx,eax
     8f5:	48 89 4d b8          	mov    QWORD PTR [rbp-0x48],rcx
     8f9:	eb 00                	jmp    8fb <ocall_print_string+0x9b>
     8fb:	48 8b 45 b8          	mov    rax,QWORD PTR [rbp-0x48]
     8ff:	48 03 45 d0          	add    rax,QWORD PTR [rbp-0x30]
     903:	48 89 45 d0          	mov    QWORD PTR [rbp-0x30],rax
     907:	48 8b 7d d0          	mov    rdi,QWORD PTR [rbp-0x30]
     90b:	e8 a1 09 00 00       	call   12b1 <sgx_ocalloc>
     910:	48 89 45 c8          	mov    QWORD PTR [rbp-0x38],rax
     914:	48 83 7d c8 00       	cmp    QWORD PTR [rbp-0x38],0x0
     919:	75 11                	jne    92c <ocall_print_string+0xcc>
     91b:	e8 a2 0a 00 00       	call   13c2 <sgx_ocfree>
     920:	c7 45 fc 01 00 00 00 	mov    DWORD PTR [rbp-0x4],0x1
     927:	e9 aa 00 00 00       	jmp    9d6 <ocall_print_string+0x176>
     92c:	48 8b 45 c8          	mov    rax,QWORD PTR [rbp-0x38]
     930:	48 89 45 d8          	mov    QWORD PTR [rbp-0x28],rax
     934:	48 8b 45 c8          	mov    rax,QWORD PTR [rbp-0x38]
     938:	48 05 08 00 00 00    	add    rax,0x8
     93e:	48 89 45 c8          	mov    QWORD PTR [rbp-0x38],rax
     942:	48 8b 45 d0          	mov    rax,QWORD PTR [rbp-0x30]
     946:	48 2d 08 00 00 00    	sub    rax,0x8
     94c:	48 89 45 d0          	mov    QWORD PTR [rbp-0x30],rax
     950:	48 83 7d f0 00       	cmp    QWORD PTR [rbp-0x10],0x0
     955:	74 50                	je     9a7 <ocall_print_string+0x147>
     957:	48 8b 45 c8          	mov    rax,QWORD PTR [rbp-0x38]
     95b:	48 8b 4d d8          	mov    rcx,QWORD PTR [rbp-0x28]
     95f:	48 89 01             	mov    QWORD PTR [rcx],rax
     962:	48 8b 7d c8          	mov    rdi,QWORD PTR [rbp-0x38]
     966:	48 8b 75 d0          	mov    rsi,QWORD PTR [rbp-0x30]
     96a:	48 8b 55 f0          	mov    rdx,QWORD PTR [rbp-0x10]
     96e:	48 8b 4d e0          	mov    rcx,QWORD PTR [rbp-0x20]
     972:	e8 a0 a5 00 00       	call   af17 <memcpy_s>
     977:	83 f8 00             	cmp    eax,0x0
     97a:	74 0e                	je     98a <ocall_print_string+0x12a>
     97c:	e8 41 0a 00 00       	call   13c2 <sgx_ocfree>
     981:	c7 45 fc 01 00 00 00 	mov    DWORD PTR [rbp-0x4],0x1
     988:	eb 4c                	jmp    9d6 <ocall_print_string+0x176>
     98a:	48 8b 45 c8          	mov    rax,QWORD PTR [rbp-0x38]
     98e:	48 03 45 e0          	add    rax,QWORD PTR [rbp-0x20]
     992:	48 89 45 c8          	mov    QWORD PTR [rbp-0x38],rax
     996:	48 8b 45 e0          	mov    rax,QWORD PTR [rbp-0x20]
     99a:	48 8b 4d d0          	mov    rcx,QWORD PTR [rbp-0x30]
     99e:	48 29 c1             	sub    rcx,rax
     9a1:	48 89 4d d0          	mov    QWORD PTR [rbp-0x30],rcx
     9a5:	eb 0b                	jmp    9b2 <ocall_print_string+0x152>
     9a7:	48 8b 45 d8          	mov    rax,QWORD PTR [rbp-0x28]
     9ab:	48 c7 00 00 00 00 00 	mov    QWORD PTR [rax],0x0
     9b2:	31 ff                	xor    edi,edi
     9b4:	48 8b 45 d8          	mov    rax,QWORD PTR [rbp-0x28]
     9b8:	48 89 c6             	mov    rsi,rax
     9bb:	e8 f2 17 00 00       	call   21b2 <sgx_ocall>
     9c0:	89 45 ec             	mov    DWORD PTR [rbp-0x14],eax
     9c3:	83 7d ec 00          	cmp    DWORD PTR [rbp-0x14],0x0
     9c7:	75 02                	jne    9cb <ocall_print_string+0x16b>
     9c9:	eb 00                	jmp    9cb <ocall_print_string+0x16b>
     9cb:	e8 f2 09 00 00       	call   13c2 <sgx_ocfree>
     9d0:	8b 45 ec             	mov    eax,DWORD PTR [rbp-0x14]
     9d3:	89 45 fc             	mov    DWORD PTR [rbp-0x4],eax
     9d6:	8b 45 fc             	mov    eax,DWORD PTR [rbp-0x4]
     9d9:	48 83 c4 50          	add    rsp,0x50
     9dd:	5d                   	pop    rbp
     9de:	c3                   	ret    
     9df:	90                   	nop

00000000000009e0 <ocall_load_password>:
     9e0:	55                   	push   rbp
     9e1:	48 89 e5             	mov    rbp,rsp
     9e4:	48 83 ec 50          	sub    rsp,0x50
     9e8:	48 89 7d f0          	mov    QWORD PTR [rbp-0x10],rdi
     9ec:	c7 45 ec 00 00 00 00 	mov    DWORD PTR [rbp-0x14],0x0
     9f3:	48 c7 45 e0 01 00 00 	mov    QWORD PTR [rbp-0x20],0x1
     9fa:	00 
     9fb:	48 c7 45 d8 00 00 00 	mov    QWORD PTR [rbp-0x28],0x0
     a02:	00 
     a03:	48 c7 45 d0 08 00 00 	mov    QWORD PTR [rbp-0x30],0x8
     a0a:	00 
     a0b:	48 c7 45 c8 00 00 00 	mov    QWORD PTR [rbp-0x38],0x0
     a12:	00 
     a13:	48 c7 45 c0 00 00 00 	mov    QWORD PTR [rbp-0x40],0x0
     a1a:	00 
     a1b:	48 83 7d f0 00       	cmp    QWORD PTR [rbp-0x10],0x0
     a20:	74 1e                	je     a40 <ocall_load_password+0x60>
     a22:	48 8b 7d f0          	mov    rdi,QWORD PTR [rbp-0x10]
     a26:	48 8b 75 e0          	mov    rsi,QWORD PTR [rbp-0x20]
     a2a:	e8 68 07 00 00       	call   1197 <sgx_is_within_enclave>
     a2f:	83 f8 00             	cmp    eax,0x0
     a32:	75 0c                	jne    a40 <ocall_load_password+0x60>
     a34:	c7 45 fc 02 00 00 00 	mov    DWORD PTR [rbp-0x4],0x2
     a3b:	e9 1b 01 00 00       	jmp    b5b <ocall_load_password+0x17b>
     a40:	eb 00                	jmp    a42 <ocall_load_password+0x62>
     a42:	48 83 7d f0 00       	cmp    QWORD PTR [rbp-0x10],0x0
     a47:	74 0a                	je     a53 <ocall_load_password+0x73>
     a49:	48 8b 45 e0          	mov    rax,QWORD PTR [rbp-0x20]
     a4d:	48 89 45 b8          	mov    QWORD PTR [rbp-0x48],rax
     a51:	eb 0a                	jmp    a5d <ocall_load_password+0x7d>
     a53:	31 c0                	xor    eax,eax
     a55:	89 c1                	mov    ecx,eax
     a57:	48 89 4d b8          	mov    QWORD PTR [rbp-0x48],rcx
     a5b:	eb 00                	jmp    a5d <ocall_load_password+0x7d>
     a5d:	48 8b 45 b8          	mov    rax,QWORD PTR [rbp-0x48]
     a61:	48 03 45 d0          	add    rax,QWORD PTR [rbp-0x30]
     a65:	48 89 45 d0          	mov    QWORD PTR [rbp-0x30],rax
     a69:	48 8b 7d d0          	mov    rdi,QWORD PTR [rbp-0x30]
     a6d:	e8 3f 08 00 00       	call   12b1 <sgx_ocalloc>
     a72:	48 89 45 c8          	mov    QWORD PTR [rbp-0x38],rax
     a76:	48 83 7d c8 00       	cmp    QWORD PTR [rbp-0x38],0x0
     a7b:	75 11                	jne    a8e <ocall_load_password+0xae>
     a7d:	e8 40 09 00 00       	call   13c2 <sgx_ocfree>
     a82:	c7 45 fc 01 00 00 00 	mov    DWORD PTR [rbp-0x4],0x1
     a89:	e9 cd 00 00 00       	jmp    b5b <ocall_load_password+0x17b>
     a8e:	48 8b 45 c8          	mov    rax,QWORD PTR [rbp-0x38]
     a92:	48 89 45 d8          	mov    QWORD PTR [rbp-0x28],rax
     a96:	48 8b 45 c8          	mov    rax,QWORD PTR [rbp-0x38]
     a9a:	48 05 08 00 00 00    	add    rax,0x8
     aa0:	48 89 45 c8          	mov    QWORD PTR [rbp-0x38],rax
     aa4:	48 8b 45 d0          	mov    rax,QWORD PTR [rbp-0x30]
     aa8:	48 2d 08 00 00 00    	sub    rax,0x8
     aae:	48 89 45 d0          	mov    QWORD PTR [rbp-0x30],rax
     ab2:	48 83 7d f0 00       	cmp    QWORD PTR [rbp-0x10],0x0
     ab7:	74 3f                	je     af8 <ocall_load_password+0x118>
     ab9:	31 f6                	xor    esi,esi
     abb:	48 8b 45 c8          	mov    rax,QWORD PTR [rbp-0x38]
     abf:	48 8b 4d d8          	mov    rcx,QWORD PTR [rbp-0x28]
     ac3:	48 89 01             	mov    QWORD PTR [rcx],rax
     ac6:	48 8b 45 c8          	mov    rax,QWORD PTR [rbp-0x38]
     aca:	48 89 45 c0          	mov    QWORD PTR [rbp-0x40],rax
     ace:	48 8b 7d c0          	mov    rdi,QWORD PTR [rbp-0x40]
     ad2:	48 8b 55 e0          	mov    rdx,QWORD PTR [rbp-0x20]
     ad6:	e8 1b 9d 00 00       	call   a7f6 <memset>
     adb:	48 8b 45 c8          	mov    rax,QWORD PTR [rbp-0x38]
     adf:	48 03 45 e0          	add    rax,QWORD PTR [rbp-0x20]
     ae3:	48 89 45 c8          	mov    QWORD PTR [rbp-0x38],rax
     ae7:	48 8b 45 e0          	mov    rax,QWORD PTR [rbp-0x20]
     aeb:	48 8b 4d d0          	mov    rcx,QWORD PTR [rbp-0x30]
     aef:	48 29 c1             	sub    rcx,rax
     af2:	48 89 4d d0          	mov    QWORD PTR [rbp-0x30],rcx
     af6:	eb 0b                	jmp    b03 <ocall_load_password+0x123>
     af8:	48 8b 45 d8          	mov    rax,QWORD PTR [rbp-0x28]
     afc:	48 c7 00 00 00 00 00 	mov    QWORD PTR [rax],0x0
     b03:	48 8b 45 d8          	mov    rax,QWORD PTR [rbp-0x28]
     b07:	bf 02 00 00 00       	mov    edi,0x2
     b0c:	48 89 c6             	mov    rsi,rax
     b0f:	e8 9e 16 00 00       	call   21b2 <sgx_ocall>
     b14:	89 45 ec             	mov    DWORD PTR [rbp-0x14],eax
     b17:	83 7d ec 00          	cmp    DWORD PTR [rbp-0x14],0x0
     b1b:	75 33                	jne    b50 <ocall_load_password+0x170>
     b1d:	48 83 7d f0 00       	cmp    QWORD PTR [rbp-0x10],0x0
     b22:	74 2a                	je     b4e <ocall_load_password+0x16e>
     b24:	48 8b 7d f0          	mov    rdi,QWORD PTR [rbp-0x10]
     b28:	48 8b 75 e0          	mov    rsi,QWORD PTR [rbp-0x20]
     b2c:	48 8b 55 c0          	mov    rdx,QWORD PTR [rbp-0x40]
     b30:	48 8b 4d e0          	mov    rcx,QWORD PTR [rbp-0x20]
     b34:	e8 de a3 00 00       	call   af17 <memcpy_s>
     b39:	83 f8 00             	cmp    eax,0x0
     b3c:	74 0e                	je     b4c <ocall_load_password+0x16c>
     b3e:	e8 7f 08 00 00       	call   13c2 <sgx_ocfree>
     b43:	c7 45 fc 01 00 00 00 	mov    DWORD PTR [rbp-0x4],0x1
     b4a:	eb 0f                	jmp    b5b <ocall_load_password+0x17b>
     b4c:	eb 00                	jmp    b4e <ocall_load_password+0x16e>
     b4e:	eb 00                	jmp    b50 <ocall_load_password+0x170>
     b50:	e8 6d 08 00 00       	call   13c2 <sgx_ocfree>
     b55:	8b 45 ec             	mov    eax,DWORD PTR [rbp-0x14]
     b58:	89 45 fc             	mov    DWORD PTR [rbp-0x4],eax
     b5b:	8b 45 fc             	mov    eax,DWORD PTR [rbp-0x4]
     b5e:	48 83 c4 50          	add    rsp,0x50
     b62:	5d                   	pop    rbp
     b63:	c3                   	ret    
     b64:	66 2e 0f 1f 84 00 00 	nop    WORD PTR cs:[rax+rax*1+0x0]
     b6b:	00 00 00 
     b6e:	66 90                	xchg   ax,ax

0000000000000b70 <ocall_store_password>:
     b70:	55                   	push   rbp
     b71:	48 89 e5             	mov    rbp,rsp
     b74:	48 83 ec 50          	sub    rsp,0x50
     b78:	48 89 7d f0          	mov    QWORD PTR [rbp-0x10],rdi
     b7c:	c7 45 ec 00 00 00 00 	mov    DWORD PTR [rbp-0x14],0x0
     b83:	48 83 7d f0 00       	cmp    QWORD PTR [rbp-0x10],0x0
     b88:	74 15                	je     b9f <ocall_store_password+0x2f>
     b8a:	48 8b 7d f0          	mov    rdi,QWORD PTR [rbp-0x10]
     b8e:	e8 6a a3 00 00       	call   aefd <strlen>
     b93:	48 05 01 00 00 00    	add    rax,0x1
     b99:	48 89 45 c0          	mov    QWORD PTR [rbp-0x40],rax
     b9d:	eb 0a                	jmp    ba9 <ocall_store_password+0x39>
     b9f:	31 c0                	xor    eax,eax
     ba1:	89 c1                	mov    ecx,eax
     ba3:	48 89 4d c0          	mov    QWORD PTR [rbp-0x40],rcx
     ba7:	eb 00                	jmp    ba9 <ocall_store_password+0x39>
     ba9:	48 8b 45 c0          	mov    rax,QWORD PTR [rbp-0x40]
     bad:	48 89 45 e0          	mov    QWORD PTR [rbp-0x20],rax
     bb1:	48 c7 45 d8 00 00 00 	mov    QWORD PTR [rbp-0x28],0x0
     bb8:	00 
     bb9:	48 c7 45 d0 08 00 00 	mov    QWORD PTR [rbp-0x30],0x8
     bc0:	00 
     bc1:	48 c7 45 c8 00 00 00 	mov    QWORD PTR [rbp-0x38],0x0
     bc8:	00 
     bc9:	48 83 7d f0 00       	cmp    QWORD PTR [rbp-0x10],0x0
     bce:	74 1e                	je     bee <ocall_store_password+0x7e>
     bd0:	48 8b 7d f0          	mov    rdi,QWORD PTR [rbp-0x10]
     bd4:	48 8b 75 e0          	mov    rsi,QWORD PTR [rbp-0x20]
     bd8:	e8 ba 05 00 00       	call   1197 <sgx_is_within_enclave>
     bdd:	83 f8 00             	cmp    eax,0x0
     be0:	75 0c                	jne    bee <ocall_store_password+0x7e>
     be2:	c7 45 fc 02 00 00 00 	mov    DWORD PTR [rbp-0x4],0x2
     be9:	e9 fb 00 00 00       	jmp    ce9 <ocall_store_password+0x179>
     bee:	eb 00                	jmp    bf0 <ocall_store_password+0x80>
     bf0:	48 83 7d f0 00       	cmp    QWORD PTR [rbp-0x10],0x0
     bf5:	74 0a                	je     c01 <ocall_store_password+0x91>
     bf7:	48 8b 45 e0          	mov    rax,QWORD PTR [rbp-0x20]
     bfb:	48 89 45 b8          	mov    QWORD PTR [rbp-0x48],rax
     bff:	eb 0a                	jmp    c0b <ocall_store_password+0x9b>
     c01:	31 c0                	xor    eax,eax
     c03:	89 c1                	mov    ecx,eax
     c05:	48 89 4d b8          	mov    QWORD PTR [rbp-0x48],rcx
     c09:	eb 00                	jmp    c0b <ocall_store_password+0x9b>
     c0b:	48 8b 45 b8          	mov    rax,QWORD PTR [rbp-0x48]
     c0f:	48 03 45 d0          	add    rax,QWORD PTR [rbp-0x30]
     c13:	48 89 45 d0          	mov    QWORD PTR [rbp-0x30],rax
     c17:	48 8b 7d d0          	mov    rdi,QWORD PTR [rbp-0x30]
     c1b:	e8 91 06 00 00       	call   12b1 <sgx_ocalloc>
     c20:	48 89 45 c8          	mov    QWORD PTR [rbp-0x38],rax
     c24:	48 83 7d c8 00       	cmp    QWORD PTR [rbp-0x38],0x0
     c29:	75 11                	jne    c3c <ocall_store_password+0xcc>
     c2b:	e8 92 07 00 00       	call   13c2 <sgx_ocfree>
     c30:	c7 45 fc 01 00 00 00 	mov    DWORD PTR [rbp-0x4],0x1
     c37:	e9 ad 00 00 00       	jmp    ce9 <ocall_store_password+0x179>
     c3c:	48 8b 45 c8          	mov    rax,QWORD PTR [rbp-0x38]
     c40:	48 89 45 d8          	mov    QWORD PTR [rbp-0x28],rax
     c44:	48 8b 45 c8          	mov    rax,QWORD PTR [rbp-0x38]
     c48:	48 05 08 00 00 00    	add    rax,0x8
     c4e:	48 89 45 c8          	mov    QWORD PTR [rbp-0x38],rax
     c52:	48 8b 45 d0          	mov    rax,QWORD PTR [rbp-0x30]
     c56:	48 2d 08 00 00 00    	sub    rax,0x8
     c5c:	48 89 45 d0          	mov    QWORD PTR [rbp-0x30],rax
     c60:	48 83 7d f0 00       	cmp    QWORD PTR [rbp-0x10],0x0
     c65:	74 50                	je     cb7 <ocall_store_password+0x147>
     c67:	48 8b 45 c8          	mov    rax,QWORD PTR [rbp-0x38]
     c6b:	48 8b 4d d8          	mov    rcx,QWORD PTR [rbp-0x28]
     c6f:	48 89 01             	mov    QWORD PTR [rcx],rax
     c72:	48 8b 7d c8          	mov    rdi,QWORD PTR [rbp-0x38]
     c76:	48 8b 75 d0          	mov    rsi,QWORD PTR [rbp-0x30]
     c7a:	48 8b 55 f0          	mov    rdx,QWORD PTR [rbp-0x10]
     c7e:	48 8b 4d e0          	mov    rcx,QWORD PTR [rbp-0x20]
     c82:	e8 90 a2 00 00       	call   af17 <memcpy_s>
     c87:	83 f8 00             	cmp    eax,0x0
     c8a:	74 0e                	je     c9a <ocall_store_password+0x12a>
     c8c:	e8 31 07 00 00       	call   13c2 <sgx_ocfree>
     c91:	c7 45 fc 01 00 00 00 	mov    DWORD PTR [rbp-0x4],0x1
     c98:	eb 4f                	jmp    ce9 <ocall_store_password+0x179>
     c9a:	48 8b 45 c8          	mov    rax,QWORD PTR [rbp-0x38]
     c9e:	48 03 45 e0          	add    rax,QWORD PTR [rbp-0x20]
     ca2:	48 89 45 c8          	mov    QWORD PTR [rbp-0x38],rax
     ca6:	48 8b 45 e0          	mov    rax,QWORD PTR [rbp-0x20]
     caa:	48 8b 4d d0          	mov    rcx,QWORD PTR [rbp-0x30]
     cae:	48 29 c1             	sub    rcx,rax
     cb1:	48 89 4d d0          	mov    QWORD PTR [rbp-0x30],rcx
     cb5:	eb 0b                	jmp    cc2 <ocall_store_password+0x152>
     cb7:	48 8b 45 d8          	mov    rax,QWORD PTR [rbp-0x28]
     cbb:	48 c7 00 00 00 00 00 	mov    QWORD PTR [rax],0x0
     cc2:	48 8b 45 d8          	mov    rax,QWORD PTR [rbp-0x28]
     cc6:	bf 03 00 00 00       	mov    edi,0x3
     ccb:	48 89 c6             	mov    rsi,rax
     cce:	e8 df 14 00 00       	call   21b2 <sgx_ocall>
     cd3:	89 45 ec             	mov    DWORD PTR [rbp-0x14],eax
     cd6:	83 7d ec 00          	cmp    DWORD PTR [rbp-0x14],0x0
     cda:	75 02                	jne    cde <ocall_store_password+0x16e>
     cdc:	eb 00                	jmp    cde <ocall_store_password+0x16e>
     cde:	e8 df 06 00 00       	call   13c2 <sgx_ocfree>
     ce3:	8b 45 ec             	mov    eax,DWORD PTR [rbp-0x14]
     ce6:	89 45 fc             	mov    DWORD PTR [rbp-0x4],eax
     ce9:	8b 45 fc             	mov    eax,DWORD PTR [rbp-0x4]
     cec:	48 83 c4 50          	add    rsp,0x50
     cf0:	5d                   	pop    rbp
     cf1:	c3                   	ret    
     cf2:	66 2e 0f 1f 84 00 00 	nop    WORD PTR cs:[rax+rax*1+0x0]
     cf9:	00 00 00 
     cfc:	0f 1f 40 00          	nop    DWORD PTR [rax+0x0]

0000000000000d00 <sgx_ecall_set_password>:
     d00:	55                   	push   rbp
     d01:	48 89 e5             	mov    rbp,rsp
     d04:	48 83 ec 40          	sub    rsp,0x40
     d08:	48 89 7d f0          	mov    QWORD PTR [rbp-0x10],rdi
     d0c:	48 83 7d f0 00       	cmp    QWORD PTR [rbp-0x10],0x0
     d11:	74 13                	je     d26 <sgx_ecall_set_password+0x26>
     d13:	48 8b 7d f0          	mov    rdi,QWORD PTR [rbp-0x10]
     d17:	be 10 00 00 00       	mov    esi,0x10
     d1c:	e8 03 05 00 00       	call   1224 <sgx_is_outside_enclave>
     d21:	83 f8 00             	cmp    eax,0x0
     d24:	75 0c                	jne    d32 <sgx_ecall_set_password+0x32>
     d26:	c7 45 fc 02 00 00 00 	mov    DWORD PTR [rbp-0x4],0x2
     d2d:	e9 0c 01 00 00       	jmp    e3e <sgx_ecall_set_password+0x13e>
     d32:	eb 00                	jmp    d34 <sgx_ecall_set_password+0x34>
     d34:	0f ae e8             	lfence 
     d37:	48 8b 45 f0          	mov    rax,QWORD PTR [rbp-0x10]
     d3b:	48 89 45 e8          	mov    QWORD PTR [rbp-0x18],rax
     d3f:	c7 45 e4 00 00 00 00 	mov    DWORD PTR [rbp-0x1c],0x0
     d46:	48 8b 45 e8          	mov    rax,QWORD PTR [rbp-0x18]
     d4a:	48 8b 00             	mov    rax,QWORD PTR [rax]
     d4d:	48 89 45 d8          	mov    QWORD PTR [rbp-0x28],rax
     d51:	48 8b 45 e8          	mov    rax,QWORD PTR [rbp-0x18]
     d55:	48 8b 40 08          	mov    rax,QWORD PTR [rax+0x8]
     d59:	48 89 45 d0          	mov    QWORD PTR [rbp-0x30],rax
     d5d:	48 c7 45 c8 00 00 00 	mov    QWORD PTR [rbp-0x38],0x0
     d64:	00 
     d65:	48 83 7d d8 00       	cmp    QWORD PTR [rbp-0x28],0x0
     d6a:	74 1e                	je     d8a <sgx_ecall_set_password+0x8a>
     d6c:	48 8b 7d d8          	mov    rdi,QWORD PTR [rbp-0x28]
     d70:	48 8b 75 d0          	mov    rsi,QWORD PTR [rbp-0x30]
     d74:	e8 ab 04 00 00       	call   1224 <sgx_is_outside_enclave>
     d79:	83 f8 00             	cmp    eax,0x0
     d7c:	75 0c                	jne    d8a <sgx_ecall_set_password+0x8a>
     d7e:	c7 45 fc 02 00 00 00 	mov    DWORD PTR [rbp-0x4],0x2
     d85:	e9 b4 00 00 00       	jmp    e3e <sgx_ecall_set_password+0x13e>
     d8a:	eb 00                	jmp    d8c <sgx_ecall_set_password+0x8c>
     d8c:	0f ae e8             	lfence 
     d8f:	48 83 7d d8 00       	cmp    QWORD PTR [rbp-0x28],0x0
     d94:	0f 84 85 00 00 00    	je     e1f <sgx_ecall_set_password+0x11f>
     d9a:	48 83 7d d0 00       	cmp    QWORD PTR [rbp-0x30],0x0
     d9f:	74 7e                	je     e1f <sgx_ecall_set_password+0x11f>
     da1:	48 8b 7d d0          	mov    rdi,QWORD PTR [rbp-0x30]
     da5:	e8 27 78 00 00       	call   85d1 <dlmalloc>
     daa:	48 89 45 c8          	mov    QWORD PTR [rbp-0x38],rax
     dae:	48 83 7d c8 00       	cmp    QWORD PTR [rbp-0x38],0x0
     db3:	75 09                	jne    dbe <sgx_ecall_set_password+0xbe>
     db5:	c7 45 e4 03 00 00 00 	mov    DWORD PTR [rbp-0x1c],0x3
     dbc:	eb 6a                	jmp    e28 <sgx_ecall_set_password+0x128>
     dbe:	48 8b 7d c8          	mov    rdi,QWORD PTR [rbp-0x38]
     dc2:	48 8b 75 d0          	mov    rsi,QWORD PTR [rbp-0x30]
     dc6:	48 8b 55 d8          	mov    rdx,QWORD PTR [rbp-0x28]
     dca:	48 8b 4d d0          	mov    rcx,QWORD PTR [rbp-0x30]
     dce:	e8 44 a1 00 00       	call   af17 <memcpy_s>
     dd3:	83 f8 00             	cmp    eax,0x0
     dd6:	74 09                	je     de1 <sgx_ecall_set_password+0xe1>
     dd8:	c7 45 e4 01 00 00 00 	mov    DWORD PTR [rbp-0x1c],0x1
     ddf:	eb 47                	jmp    e28 <sgx_ecall_set_password+0x128>
     de1:	48 8b 45 c8          	mov    rax,QWORD PTR [rbp-0x38]
     de5:	48 8b 4d d0          	mov    rcx,QWORD PTR [rbp-0x30]
     de9:	48 81 e9 01 00 00 00 	sub    rcx,0x1
     df0:	c6 04 08 00          	mov    BYTE PTR [rax+rcx*1],0x0
     df4:	48 8b 45 d0          	mov    rax,QWORD PTR [rbp-0x30]
     df8:	48 8b 7d c8          	mov    rdi,QWORD PTR [rbp-0x38]
     dfc:	48 89 45 c0          	mov    QWORD PTR [rbp-0x40],rax
     e00:	e8 f8 a0 00 00       	call   aefd <strlen>
     e05:	48 05 01 00 00 00    	add    rax,0x1
     e0b:	48 8b 4d c0          	mov    rcx,QWORD PTR [rbp-0x40]
     e0f:	48 39 c1             	cmp    rcx,rax
     e12:	74 09                	je     e1d <sgx_ecall_set_password+0x11d>
     e14:	c7 45 e4 01 00 00 00 	mov    DWORD PTR [rbp-0x1c],0x1
     e1b:	eb 0b                	jmp    e28 <sgx_ecall_set_password+0x128>
     e1d:	eb 00                	jmp    e1f <sgx_ecall_set_password+0x11f>
     e1f:	48 8b 7d c8          	mov    rdi,QWORD PTR [rbp-0x38]
     e23:	e8 78 02 00 00       	call   10a0 <ecall_set_password>
     e28:	48 83 7d c8 00       	cmp    QWORD PTR [rbp-0x38],0x0
     e2d:	74 09                	je     e38 <sgx_ecall_set_password+0x138>
     e2f:	48 8b 7d c8          	mov    rdi,QWORD PTR [rbp-0x38]
     e33:	e8 90 82 00 00       	call   90c8 <dlfree>
     e38:	8b 45 e4             	mov    eax,DWORD PTR [rbp-0x1c]
     e3b:	89 45 fc             	mov    DWORD PTR [rbp-0x4],eax
     e3e:	8b 45 fc             	mov    eax,DWORD PTR [rbp-0x4]
     e41:	48 83 c4 40          	add    rsp,0x40
     e45:	5d                   	pop    rbp
     e46:	c3                   	ret    
     e47:	66 0f 1f 84 00 00 00 	nop    WORD PTR [rax+rax*1+0x0]
     e4e:	00 00 

0000000000000e50 <sgx_ecall_change_password>:
     e50:	55                   	push   rbp
     e51:	48 89 e5             	mov    rbp,rsp
     e54:	48 83 ec 60          	sub    rsp,0x60
     e58:	48 89 7d f0          	mov    QWORD PTR [rbp-0x10],rdi
     e5c:	48 83 7d f0 00       	cmp    QWORD PTR [rbp-0x10],0x0
     e61:	74 13                	je     e76 <sgx_ecall_change_password+0x26>
     e63:	48 8b 7d f0          	mov    rdi,QWORD PTR [rbp-0x10]
     e67:	be 20 00 00 00       	mov    esi,0x20
     e6c:	e8 b3 03 00 00       	call   1224 <sgx_is_outside_enclave>
     e71:	83 f8 00             	cmp    eax,0x0
     e74:	75 0c                	jne    e82 <sgx_ecall_change_password+0x32>
     e76:	c7 45 fc 02 00 00 00 	mov    DWORD PTR [rbp-0x4],0x2
     e7d:	e9 06 02 00 00       	jmp    1088 <sgx_ecall_change_password+0x238>
     e82:	eb 00                	jmp    e84 <sgx_ecall_change_password+0x34>
     e84:	0f ae e8             	lfence 
     e87:	48 8b 45 f0          	mov    rax,QWORD PTR [rbp-0x10]
     e8b:	48 89 45 e8          	mov    QWORD PTR [rbp-0x18],rax
     e8f:	c7 45 e4 00 00 00 00 	mov    DWORD PTR [rbp-0x1c],0x0
     e96:	48 8b 45 e8          	mov    rax,QWORD PTR [rbp-0x18]
     e9a:	48 8b 00             	mov    rax,QWORD PTR [rax]
     e9d:	48 89 45 d8          	mov    QWORD PTR [rbp-0x28],rax
     ea1:	48 8b 45 e8          	mov    rax,QWORD PTR [rbp-0x18]
     ea5:	48 8b 40 08          	mov    rax,QWORD PTR [rax+0x8]
     ea9:	48 89 45 d0          	mov    QWORD PTR [rbp-0x30],rax
     ead:	48 c7 45 c8 00 00 00 	mov    QWORD PTR [rbp-0x38],0x0
     eb4:	00 
     eb5:	48 8b 45 e8          	mov    rax,QWORD PTR [rbp-0x18]
     eb9:	48 8b 40 10          	mov    rax,QWORD PTR [rax+0x10]
     ebd:	48 89 45 c0          	mov    QWORD PTR [rbp-0x40],rax
     ec1:	48 8b 45 e8          	mov    rax,QWORD PTR [rbp-0x18]
     ec5:	48 8b 40 18          	mov    rax,QWORD PTR [rax+0x18]
     ec9:	48 89 45 b8          	mov    QWORD PTR [rbp-0x48],rax
     ecd:	48 c7 45 b0 00 00 00 	mov    QWORD PTR [rbp-0x50],0x0
     ed4:	00 
     ed5:	48 83 7d d8 00       	cmp    QWORD PTR [rbp-0x28],0x0
     eda:	74 1e                	je     efa <sgx_ecall_change_password+0xaa>
     edc:	48 8b 7d d8          	mov    rdi,QWORD PTR [rbp-0x28]
     ee0:	48 8b 75 d0          	mov    rsi,QWORD PTR [rbp-0x30]
     ee4:	e8 3b 03 00 00       	call   1224 <sgx_is_outside_enclave>
     ee9:	83 f8 00             	cmp    eax,0x0
     eec:	75 0c                	jne    efa <sgx_ecall_change_password+0xaa>
     eee:	c7 45 fc 02 00 00 00 	mov    DWORD PTR [rbp-0x4],0x2
     ef5:	e9 8e 01 00 00       	jmp    1088 <sgx_ecall_change_password+0x238>
     efa:	eb 00                	jmp    efc <sgx_ecall_change_password+0xac>
     efc:	eb 00                	jmp    efe <sgx_ecall_change_password+0xae>
     efe:	48 83 7d c0 00       	cmp    QWORD PTR [rbp-0x40],0x0
     f03:	74 1e                	je     f23 <sgx_ecall_change_password+0xd3>
     f05:	48 8b 7d c0          	mov    rdi,QWORD PTR [rbp-0x40]
     f09:	48 8b 75 b8          	mov    rsi,QWORD PTR [rbp-0x48]
     f0d:	e8 12 03 00 00       	call   1224 <sgx_is_outside_enclave>
     f12:	83 f8 00             	cmp    eax,0x0
     f15:	75 0c                	jne    f23 <sgx_ecall_change_password+0xd3>
     f17:	c7 45 fc 02 00 00 00 	mov    DWORD PTR [rbp-0x4],0x2
     f1e:	e9 65 01 00 00       	jmp    1088 <sgx_ecall_change_password+0x238>
     f23:	eb 00                	jmp    f25 <sgx_ecall_change_password+0xd5>
     f25:	0f ae e8             	lfence 
     f28:	48 83 7d d8 00       	cmp    QWORD PTR [rbp-0x28],0x0
     f2d:	0f 84 92 00 00 00    	je     fc5 <sgx_ecall_change_password+0x175>
     f33:	48 83 7d d0 00       	cmp    QWORD PTR [rbp-0x30],0x0
     f38:	0f 84 87 00 00 00    	je     fc5 <sgx_ecall_change_password+0x175>
     f3e:	48 8b 7d d0          	mov    rdi,QWORD PTR [rbp-0x30]
     f42:	e8 8a 76 00 00       	call   85d1 <dlmalloc>
     f47:	48 89 45 c8          	mov    QWORD PTR [rbp-0x38],rax
     f4b:	48 83 7d c8 00       	cmp    QWORD PTR [rbp-0x38],0x0
     f50:	75 0c                	jne    f5e <sgx_ecall_change_password+0x10e>
     f52:	c7 45 e4 03 00 00 00 	mov    DWORD PTR [rbp-0x1c],0x3
     f59:	e9 04 01 00 00       	jmp    1062 <sgx_ecall_change_password+0x212>
     f5e:	48 8b 7d c8          	mov    rdi,QWORD PTR [rbp-0x38]
     f62:	48 8b 75 d0          	mov    rsi,QWORD PTR [rbp-0x30]
     f66:	48 8b 55 d8          	mov    rdx,QWORD PTR [rbp-0x28]
     f6a:	48 8b 4d d0          	mov    rcx,QWORD PTR [rbp-0x30]
     f6e:	e8 a4 9f 00 00       	call   af17 <memcpy_s>
     f73:	83 f8 00             	cmp    eax,0x0
     f76:	74 0c                	je     f84 <sgx_ecall_change_password+0x134>
     f78:	c7 45 e4 01 00 00 00 	mov    DWORD PTR [rbp-0x1c],0x1
     f7f:	e9 de 00 00 00       	jmp    1062 <sgx_ecall_change_password+0x212>
     f84:	48 8b 45 c8          	mov    rax,QWORD PTR [rbp-0x38]
     f88:	48 8b 4d d0          	mov    rcx,QWORD PTR [rbp-0x30]
     f8c:	48 81 e9 01 00 00 00 	sub    rcx,0x1
     f93:	c6 04 08 00          	mov    BYTE PTR [rax+rcx*1],0x0
     f97:	48 8b 45 d0          	mov    rax,QWORD PTR [rbp-0x30]
     f9b:	48 8b 7d c8          	mov    rdi,QWORD PTR [rbp-0x38]
     f9f:	48 89 45 a8          	mov    QWORD PTR [rbp-0x58],rax
     fa3:	e8 55 9f 00 00       	call   aefd <strlen>
     fa8:	48 05 01 00 00 00    	add    rax,0x1
     fae:	48 8b 4d a8          	mov    rcx,QWORD PTR [rbp-0x58]
     fb2:	48 39 c1             	cmp    rcx,rax
     fb5:	74 0c                	je     fc3 <sgx_ecall_change_password+0x173>
     fb7:	c7 45 e4 01 00 00 00 	mov    DWORD PTR [rbp-0x1c],0x1
     fbe:	e9 9f 00 00 00       	jmp    1062 <sgx_ecall_change_password+0x212>
     fc3:	eb 00                	jmp    fc5 <sgx_ecall_change_password+0x175>
     fc5:	48 83 7d c0 00       	cmp    QWORD PTR [rbp-0x40],0x0
     fca:	0f 84 85 00 00 00    	je     1055 <sgx_ecall_change_password+0x205>
     fd0:	48 83 7d b8 00       	cmp    QWORD PTR [rbp-0x48],0x0
     fd5:	74 7e                	je     1055 <sgx_ecall_change_password+0x205>
     fd7:	48 8b 7d b8          	mov    rdi,QWORD PTR [rbp-0x48]
     fdb:	e8 f1 75 00 00       	call   85d1 <dlmalloc>
     fe0:	48 89 45 b0          	mov    QWORD PTR [rbp-0x50],rax
     fe4:	48 83 7d b0 00       	cmp    QWORD PTR [rbp-0x50],0x0
     fe9:	75 09                	jne    ff4 <sgx_ecall_change_password+0x1a4>
     feb:	c7 45 e4 03 00 00 00 	mov    DWORD PTR [rbp-0x1c],0x3
     ff2:	eb 6e                	jmp    1062 <sgx_ecall_change_password+0x212>
     ff4:	48 8b 7d b0          	mov    rdi,QWORD PTR [rbp-0x50]
     ff8:	48 8b 75 b8          	mov    rsi,QWORD PTR [rbp-0x48]
     ffc:	48 8b 55 c0          	mov    rdx,QWORD PTR [rbp-0x40]
    1000:	48 8b 4d b8          	mov    rcx,QWORD PTR [rbp-0x48]
    1004:	e8 0e 9f 00 00       	call   af17 <memcpy_s>
    1009:	83 f8 00             	cmp    eax,0x0
    100c:	74 09                	je     1017 <sgx_ecall_change_password+0x1c7>
    100e:	c7 45 e4 01 00 00 00 	mov    DWORD PTR [rbp-0x1c],0x1
    1015:	eb 4b                	jmp    1062 <sgx_ecall_change_password+0x212>
    1017:	48 8b 45 b0          	mov    rax,QWORD PTR [rbp-0x50]
    101b:	48 8b 4d b8          	mov    rcx,QWORD PTR [rbp-0x48]
    101f:	48 81 e9 01 00 00 00 	sub    rcx,0x1
    1026:	c6 04 08 00          	mov    BYTE PTR [rax+rcx*1],0x0
    102a:	48 8b 45 b8          	mov    rax,QWORD PTR [rbp-0x48]
    102e:	48 8b 7d b0          	mov    rdi,QWORD PTR [rbp-0x50]
    1032:	48 89 45 a0          	mov    QWORD PTR [rbp-0x60],rax
    1036:	e8 c2 9e 00 00       	call   aefd <strlen>
    103b:	48 05 01 00 00 00    	add    rax,0x1
    1041:	48 8b 4d a0          	mov    rcx,QWORD PTR [rbp-0x60]
    1045:	48 39 c1             	cmp    rcx,rax
    1048:	74 09                	je     1053 <sgx_ecall_change_password+0x203>
    104a:	c7 45 e4 01 00 00 00 	mov    DWORD PTR [rbp-0x1c],0x1
    1051:	eb 0f                	jmp    1062 <sgx_ecall_change_password+0x212>
    1053:	eb 00                	jmp    1055 <sgx_ecall_change_password+0x205>
    1055:	48 8b 7d c8          	mov    rdi,QWORD PTR [rbp-0x38]
    1059:	48 8b 75 b0          	mov    rsi,QWORD PTR [rbp-0x50]
    105d:	e8 9e 00 00 00       	call   1100 <ecall_change_password>
    1062:	48 83 7d c8 00       	cmp    QWORD PTR [rbp-0x38],0x0
    1067:	74 09                	je     1072 <sgx_ecall_change_password+0x222>
    1069:	48 8b 7d c8          	mov    rdi,QWORD PTR [rbp-0x38]
    106d:	e8 56 80 00 00       	call   90c8 <dlfree>
    1072:	48 83 7d b0 00       	cmp    QWORD PTR [rbp-0x50],0x0
    1077:	74 09                	je     1082 <sgx_ecall_change_password+0x232>
    1079:	48 8b 7d b0          	mov    rdi,QWORD PTR [rbp-0x50]
    107d:	e8 46 80 00 00       	call   90c8 <dlfree>
    1082:	8b 45 e4             	mov    eax,DWORD PTR [rbp-0x1c]
    1085:	89 45 fc             	mov    DWORD PTR [rbp-0x4],eax
    1088:	8b 45 fc             	mov    eax,DWORD PTR [rbp-0x4]
    108b:	48 83 c4 60          	add    rsp,0x60
    108f:	5d                   	pop    rbp
    1090:	c3                   	ret    
    1091:	66 2e 0f 1f 84 00 00 	nop    WORD PTR cs:[rax+rax*1+0x0]
    1098:	00 00 00 
    109b:	0f 1f 44 00 00       	nop    DWORD PTR [rax+rax*1+0x0]

00000000000010a0 <ecall_set_password>:
    10a0:	55                   	push   rbp
    10a1:	48 89 e5             	mov    rbp,rsp
    10a4:	48 83 ec 10          	sub    rsp,0x10
    10a8:	48 89 7d f8          	mov    QWORD PTR [rbp-0x8],rdi
    10ac:	48 8b 7d f8          	mov    rdi,QWORD PTR [rbp-0x8]
    10b0:	e8 48 9e 00 00       	call   aefd <strlen>
    10b5:	48 83 f8 00          	cmp    rax,0x0
    10b9:	75 02                	jne    10bd <ecall_set_password+0x1d>
    10bb:	eb 32                	jmp    10ef <ecall_set_password+0x4f>
    10bd:	48 8b 45 f8          	mov    rax,QWORD PTR [rbp-0x8]
    10c1:	0f be 08             	movsx  ecx,BYTE PTR [rax]
    10c4:	83 f9 30             	cmp    ecx,0x30
    10c7:	7c 0e                	jl     10d7 <ecall_set_password+0x37>
    10c9:	48 8b 45 f8          	mov    rax,QWORD PTR [rbp-0x8]
    10cd:	0f be 08             	movsx  ecx,BYTE PTR [rax]
    10d0:	83 f9 39             	cmp    ecx,0x39
    10d3:	7f 02                	jg     10d7 <ecall_set_password+0x37>
    10d5:	eb 18                	jmp    10ef <ecall_set_password+0x4f>
    10d7:	48 8b 7d f8          	mov    rdi,QWORD PTR [rbp-0x8]
    10db:	e8 90 fa ff ff       	call   b70 <ocall_store_password>
    10e0:	48 8d 3d 39 f7 01 00 	lea    rdi,[rip+0x1f739]        # 20820 <g_dyn_entry_table+0x20>
    10e7:	89 45 f4             	mov    DWORD PTR [rbp-0xc],eax
    10ea:	e8 71 f7 ff ff       	call   860 <ocall_print_string>
    10ef:	48 83 c4 10          	add    rsp,0x10
    10f3:	5d                   	pop    rbp
    10f4:	c3                   	ret    
    10f5:	66 2e 0f 1f 84 00 00 	nop    WORD PTR cs:[rax+rax*1+0x0]
    10fc:	00 00 00 
    10ff:	90                   	nop

0000000000001100 <ecall_change_password>:
    1100:	55                   	push   rbp
    1101:	48 89 e5             	mov    rbp,rsp
    1104:	48 83 ec 20          	sub    rsp,0x20
    1108:	48 89 7d f8          	mov    QWORD PTR [rbp-0x8],rdi
    110c:	48 89 75 f0          	mov    QWORD PTR [rbp-0x10],rsi
    1110:	bf e8 03 00 00       	mov    edi,0x3e8
    1115:	e8 b7 74 00 00       	call   85d1 <dlmalloc>
    111a:	48 89 45 e8          	mov    QWORD PTR [rbp-0x18],rax
    111e:	48 8b 7d e8          	mov    rdi,QWORD PTR [rbp-0x18]
    1122:	e8 b9 f8 ff ff       	call   9e0 <ocall_load_password>
    1127:	48 8b 7d f8          	mov    rdi,QWORD PTR [rbp-0x8]
    112b:	48 8b 75 e8          	mov    rsi,QWORD PTR [rbp-0x18]
    112f:	89 45 e4             	mov    DWORD PTR [rbp-0x1c],eax
    1132:	e8 a1 9d 00 00       	call   aed8 <strcmp>
    1137:	83 f8 00             	cmp    eax,0x0
    113a:	75 55                	jne    1191 <ecall_change_password+0x91>
    113c:	48 8b 7d f0          	mov    rdi,QWORD PTR [rbp-0x10]
    1140:	e8 b8 9d 00 00       	call   aefd <strlen>
    1145:	48 83 f8 00          	cmp    rax,0x0
    1149:	75 02                	jne    114d <ecall_change_password+0x4d>
    114b:	eb 44                	jmp    1191 <ecall_change_password+0x91>
    114d:	48 8b 45 f0          	mov    rax,QWORD PTR [rbp-0x10]
    1151:	0f be 08             	movsx  ecx,BYTE PTR [rax]
    1154:	83 f9 30             	cmp    ecx,0x30
    1157:	7c 17                	jl     1170 <ecall_change_password+0x70>
    1159:	48 8b 45 f0          	mov    rax,QWORD PTR [rbp-0x10]
    115d:	0f be 08             	movsx  ecx,BYTE PTR [rax]
    1160:	83 f9 39             	cmp    ecx,0x39
    1163:	7f 0b                	jg     1170 <ecall_change_password+0x70>
    1165:	48 8b 7d e8          	mov    rdi,QWORD PTR [rbp-0x18]
    1169:	e8 5a 7f 00 00       	call   90c8 <dlfree>
    116e:	eb 18                	jmp    1188 <ecall_change_password+0x88>
    1170:	48 8b 7d f0          	mov    rdi,QWORD PTR [rbp-0x10]
    1174:	e8 f7 f9 ff ff       	call   b70 <ocall_store_password>
    1179:	48 8d 3d ae f6 01 00 	lea    rdi,[rip+0x1f6ae]        # 2082e <g_dyn_entry_table+0x2e>
    1180:	89 45 e0             	mov    DWORD PTR [rbp-0x20],eax
    1183:	e8 d8 f6 ff ff       	call   860 <ocall_print_string>
    1188:	48 8b 7d e8          	mov    rdi,QWORD PTR [rbp-0x18]
    118c:	e8 37 7f 00 00       	call   90c8 <dlfree>
    1191:	48 83 c4 20          	add    rsp,0x20
    1195:	5d                   	pop    rbp
    1196:	c3                   	ret    

0000000000001197 <sgx_is_within_enclave>:
    1197:	55                   	push   rbp
    1198:	48 89 e5             	mov    rbp,rsp
    119b:	48 89 7d d8          	mov    QWORD PTR [rbp-0x28],rdi
    119f:	48 89 75 d0          	mov    QWORD PTR [rbp-0x30],rsi
    11a3:	48 8b 45 d8          	mov    rax,QWORD PTR [rbp-0x28]
    11a7:	48 89 45 e8          	mov    QWORD PTR [rbp-0x18],rax
    11ab:	48 c7 45 e0 00 00 00 	mov    QWORD PTR [rbp-0x20],0x0
    11b2:	00 
    11b3:	48 8d 05 46 ee ff ff 	lea    rax,[rip+0xffffffffffffee46]        # 0 <enclave.so>
    11ba:	48 89 45 f0          	mov    QWORD PTR [rbp-0x10],rax
    11be:	48 8b 15 fb 59 22 00 	mov    rdx,QWORD PTR [rip+0x2259fb]        # 226bc0 <g_global_data>
    11c5:	48 8b 45 f0          	mov    rax,QWORD PTR [rbp-0x10]
    11c9:	48 01 d0             	add    rax,rdx
    11cc:	48 83 e8 01          	sub    rax,0x1
    11d0:	48 89 45 f8          	mov    QWORD PTR [rbp-0x8],rax
    11d4:	48 83 7d d0 00       	cmp    QWORD PTR [rbp-0x30],0x0
    11d9:	74 15                	je     11f0 <sgx_is_within_enclave+0x59>
    11db:	48 8b 55 e8          	mov    rdx,QWORD PTR [rbp-0x18]
    11df:	48 8b 45 d0          	mov    rax,QWORD PTR [rbp-0x30]
    11e3:	48 01 d0             	add    rax,rdx
    11e6:	48 83 e8 01          	sub    rax,0x1
    11ea:	48 89 45 e0          	mov    QWORD PTR [rbp-0x20],rax
    11ee:	eb 08                	jmp    11f8 <sgx_is_within_enclave+0x61>
    11f0:	48 8b 45 e8          	mov    rax,QWORD PTR [rbp-0x18]
    11f4:	48 89 45 e0          	mov    QWORD PTR [rbp-0x20],rax
    11f8:	48 8b 45 e8          	mov    rax,QWORD PTR [rbp-0x18]
    11fc:	48 3b 45 e0          	cmp    rax,QWORD PTR [rbp-0x20]
    1200:	77 1b                	ja     121d <sgx_is_within_enclave+0x86>
    1202:	48 8b 45 e8          	mov    rax,QWORD PTR [rbp-0x18]
    1206:	48 3b 45 f0          	cmp    rax,QWORD PTR [rbp-0x10]
    120a:	72 11                	jb     121d <sgx_is_within_enclave+0x86>
    120c:	48 8b 45 e0          	mov    rax,QWORD PTR [rbp-0x20]
    1210:	48 3b 45 f8          	cmp    rax,QWORD PTR [rbp-0x8]
    1214:	77 07                	ja     121d <sgx_is_within_enclave+0x86>
    1216:	b8 01 00 00 00       	mov    eax,0x1
    121b:	eb 05                	jmp    1222 <sgx_is_within_enclave+0x8b>
    121d:	b8 00 00 00 00       	mov    eax,0x0
    1222:	5d                   	pop    rbp
    1223:	c3                   	ret    

0000000000001224 <sgx_is_outside_enclave>:
    1224:	55                   	push   rbp
    1225:	48 89 e5             	mov    rbp,rsp
    1228:	48 89 7d d8          	mov    QWORD PTR [rbp-0x28],rdi
    122c:	48 89 75 d0          	mov    QWORD PTR [rbp-0x30],rsi
    1230:	48 8b 45 d8          	mov    rax,QWORD PTR [rbp-0x28]
    1234:	48 89 45 e8          	mov    QWORD PTR [rbp-0x18],rax
    1238:	48 c7 45 e0 00 00 00 	mov    QWORD PTR [rbp-0x20],0x0
    123f:	00 
    1240:	48 8d 05 b9 ed ff ff 	lea    rax,[rip+0xffffffffffffedb9]        # 0 <enclave.so>
    1247:	48 89 45 f0          	mov    QWORD PTR [rbp-0x10],rax
    124b:	48 8b 15 6e 59 22 00 	mov    rdx,QWORD PTR [rip+0x22596e]        # 226bc0 <g_global_data>
    1252:	48 8b 45 f0          	mov    rax,QWORD PTR [rbp-0x10]
    1256:	48 01 d0             	add    rax,rdx
    1259:	48 83 e8 01          	sub    rax,0x1
    125d:	48 89 45 f8          	mov    QWORD PTR [rbp-0x8],rax
    1261:	48 83 7d d0 00       	cmp    QWORD PTR [rbp-0x30],0x0
    1266:	74 15                	je     127d <sgx_is_outside_enclave+0x59>
    1268:	48 8b 55 e8          	mov    rdx,QWORD PTR [rbp-0x18]
    126c:	48 8b 45 d0          	mov    rax,QWORD PTR [rbp-0x30]
    1270:	48 01 d0             	add    rax,rdx
    1273:	48 83 e8 01          	sub    rax,0x1
    1277:	48 89 45 e0          	mov    QWORD PTR [rbp-0x20],rax
    127b:	eb 08                	jmp    1285 <sgx_is_outside_enclave+0x61>
    127d:	48 8b 45 e8          	mov    rax,QWORD PTR [rbp-0x18]
    1281:	48 89 45 e0          	mov    QWORD PTR [rbp-0x20],rax
    1285:	48 8b 45 e8          	mov    rax,QWORD PTR [rbp-0x18]
    1289:	48 3b 45 e0          	cmp    rax,QWORD PTR [rbp-0x20]
    128d:	77 1b                	ja     12aa <sgx_is_outside_enclave+0x86>
    128f:	48 8b 45 e0          	mov    rax,QWORD PTR [rbp-0x20]
    1293:	48 3b 45 f0          	cmp    rax,QWORD PTR [rbp-0x10]
    1297:	72 0a                	jb     12a3 <sgx_is_outside_enclave+0x7f>
    1299:	48 8b 45 e8          	mov    rax,QWORD PTR [rbp-0x18]
    129d:	48 3b 45 f8          	cmp    rax,QWORD PTR [rbp-0x8]
    12a1:	76 07                	jbe    12aa <sgx_is_outside_enclave+0x86>
    12a3:	b8 01 00 00 00       	mov    eax,0x1
    12a8:	eb 05                	jmp    12af <sgx_is_outside_enclave+0x8b>
    12aa:	b8 00 00 00 00       	mov    eax,0x0
    12af:	5d                   	pop    rbp
    12b0:	c3                   	ret    

00000000000012b1 <sgx_ocalloc>:
    12b1:	55                   	push   rbp
    12b2:	48 89 e5             	mov    rbp,rsp
    12b5:	48 83 ec 40          	sub    rsp,0x40
    12b9:	48 89 7d c8          	mov    QWORD PTR [rbp-0x38],rdi
    12bd:	e8 61 f0 01 00       	call   20323 <get_thread_data>
    12c2:	48 89 45 d8          	mov    QWORD PTR [rbp-0x28],rax
    12c6:	48 8b 45 d8          	mov    rax,QWORD PTR [rbp-0x28]
    12ca:	48 8b 40 20          	mov    rax,QWORD PTR [rax+0x20]
    12ce:	48 89 45 e0          	mov    QWORD PTR [rbp-0x20],rax
    12d2:	48 8b 45 e0          	mov    rax,QWORD PTR [rbp-0x20]
    12d6:	48 8b 80 90 00 00 00 	mov    rax,QWORD PTR [rax+0x90]
    12dd:	48 89 45 e8          	mov    QWORD PTR [rbp-0x18],rax
    12e1:	48 8b 45 e8          	mov    rax,QWORD PTR [rbp-0x18]
    12e5:	be 08 00 00 00       	mov    esi,0x8
    12ea:	48 89 c7             	mov    rdi,rax
    12ed:	e8 32 ff ff ff       	call   1224 <sgx_is_outside_enclave>
    12f2:	85 c0                	test   eax,eax
    12f4:	0f 94 c0             	sete   al
    12f7:	84 c0                	test   al,al
    12f9:	74 05                	je     1300 <sgx_ocalloc+0x4f>
    12fb:	e8 f3 f3 01 00       	call   206f3 <abort>
    1300:	48 8b 45 e8          	mov    rax,QWORD PTR [rbp-0x18]
    1304:	48 3b 45 c8          	cmp    rax,QWORD PTR [rbp-0x38]
    1308:	73 05                	jae    130f <sgx_ocalloc+0x5e>
    130a:	e8 e4 f3 01 00       	call   206f3 <abort>
    130f:	48 8b 45 c8          	mov    rax,QWORD PTR [rbp-0x38]
    1313:	48 29 45 e8          	sub    QWORD PTR [rbp-0x18],rax
    1317:	48 83 65 e8 f0       	and    QWORD PTR [rbp-0x18],0xfffffffffffffff0
    131c:	48 8b 45 e8          	mov    rax,QWORD PTR [rbp-0x18]
    1320:	48 8b 55 c8          	mov    rdx,QWORD PTR [rbp-0x38]
    1324:	48 89 d6             	mov    rsi,rdx
    1327:	48 89 c7             	mov    rdi,rax
    132a:	e8 f5 fe ff ff       	call   1224 <sgx_is_outside_enclave>
    132f:	85 c0                	test   eax,eax
    1331:	0f 94 c0             	sete   al
    1334:	84 c0                	test   al,al
    1336:	74 05                	je     133d <sgx_ocalloc+0x8c>
    1338:	e8 b6 f3 01 00       	call   206f3 <abort>
    133d:	48 8b 45 e0          	mov    rax,QWORD PTR [rbp-0x20]
    1341:	48 8b 80 90 00 00 00 	mov    rax,QWORD PTR [rax+0x90]
    1348:	48 83 e8 01          	sub    rax,0x1
    134c:	48 25 00 f0 ff ff    	and    rax,0xfffffffffffff000
    1352:	48 89 45 f0          	mov    QWORD PTR [rbp-0x10],rax
    1356:	48 8b 45 e8          	mov    rax,QWORD PTR [rbp-0x18]
    135a:	48 25 00 f0 ff ff    	and    rax,0xfffffffffffff000
    1360:	48 89 45 f8          	mov    QWORD PTR [rbp-0x8],rax
    1364:	48 83 7d f8 00       	cmp    QWORD PTR [rbp-0x8],0x0
    1369:	75 05                	jne    1370 <sgx_ocalloc+0xbf>
    136b:	e8 83 f3 01 00       	call   206f3 <abort>
    1370:	48 8b 45 f0          	mov    rax,QWORD PTR [rbp-0x10]
    1374:	48 89 45 d0          	mov    QWORD PTR [rbp-0x30],rax
    1378:	48 8b 45 d0          	mov    rax,QWORD PTR [rbp-0x30]
    137c:	48 39 45 f8          	cmp    QWORD PTR [rbp-0x8],rax
    1380:	0f 96 c0             	setbe  al
    1383:	84 c0                	test   al,al
    1385:	74 26                	je     13ad <sgx_ocalloc+0xfc>
    1387:	48 8b 55 d0          	mov    rdx,QWORD PTR [rbp-0x30]
    138b:	48 8b 45 e0          	mov    rax,QWORD PTR [rbp-0x20]
    138f:	48 89 90 90 00 00 00 	mov    QWORD PTR [rax+0x90],rdx
    1396:	48 8b 45 d0          	mov    rax,QWORD PTR [rbp-0x30]
    139a:	c6 00 00             	mov    BYTE PTR [rax],0x0
    139d:	48 8b 45 d0          	mov    rax,QWORD PTR [rbp-0x30]
    13a1:	48 2d 00 10 00 00    	sub    rax,0x1000
    13a7:	48 89 45 d0          	mov    QWORD PTR [rbp-0x30],rax
    13ab:	eb cb                	jmp    1378 <sgx_ocalloc+0xc7>
    13ad:	48 8b 45 e0          	mov    rax,QWORD PTR [rbp-0x20]
    13b1:	48 8b 55 e8          	mov    rdx,QWORD PTR [rbp-0x18]
    13b5:	48 89 90 90 00 00 00 	mov    QWORD PTR [rax+0x90],rdx
    13bc:	48 8b 45 e8          	mov    rax,QWORD PTR [rbp-0x18]
    13c0:	c9                   	leave  
    13c1:	c3                   	ret    

00000000000013c2 <sgx_ocfree>:
    13c2:	55                   	push   rbp
    13c3:	48 89 e5             	mov    rbp,rsp
    13c6:	48 83 ec 20          	sub    rsp,0x20
    13ca:	e8 54 ef 01 00       	call   20323 <get_thread_data>
    13cf:	48 89 45 e0          	mov    QWORD PTR [rbp-0x20],rax
    13d3:	48 8b 45 e0          	mov    rax,QWORD PTR [rbp-0x20]
    13d7:	48 8b 40 20          	mov    rax,QWORD PTR [rax+0x20]
    13db:	48 89 45 e8          	mov    QWORD PTR [rbp-0x18],rax
    13df:	48 8b 45 e0          	mov    rax,QWORD PTR [rbp-0x20]
    13e3:	48 8b 40 08          	mov    rax,QWORD PTR [rax+0x8]
    13e7:	48 89 45 f0          	mov    QWORD PTR [rbp-0x10],rax
    13eb:	48 8b 45 f0          	mov    rax,QWORD PTR [rbp-0x10]
    13ef:	48 8b 40 e8          	mov    rax,QWORD PTR [rax-0x18]
    13f3:	48 89 45 f8          	mov    QWORD PTR [rbp-0x8],rax
    13f7:	48 8b 45 f8          	mov    rax,QWORD PTR [rbp-0x8]
    13fb:	be 08 00 00 00       	mov    esi,0x8
    1400:	48 89 c7             	mov    rdi,rax
    1403:	e8 1c fe ff ff       	call   1224 <sgx_is_outside_enclave>
    1408:	85 c0                	test   eax,eax
    140a:	0f 94 c0             	sete   al
    140d:	84 c0                	test   al,al
    140f:	74 05                	je     1416 <sgx_ocfree+0x54>
    1411:	e8 dd f2 01 00       	call   206f3 <abort>
    1416:	48 8b 45 e8          	mov    rax,QWORD PTR [rbp-0x18]
    141a:	48 8b 55 f8          	mov    rdx,QWORD PTR [rbp-0x8]
    141e:	48 89 90 90 00 00 00 	mov    QWORD PTR [rax+0x90],rdx
    1425:	90                   	nop
    1426:	c9                   	leave  
    1427:	c3                   	ret    

0000000000001428 <_ZL12get_rand_lcgv>:
    1428:	55                   	push   rbp
    1429:	48 89 e5             	mov    rbp,rsp
    142c:	48 83 ec 10          	sub    rsp,0x10
    1430:	48 8d 3d e9 5f 22 00 	lea    rdi,[rip+0x225fe9]        # 227420 <_ZL11g_seed_lock>
    1437:	e8 1c 9a 00 00       	call   ae58 <sgx_spin_lock>
    143c:	48 8d 05 35 60 22 00 	lea    rax,[rip+0x226035]        # 227478 <g_global_data_sim+0x18>
    1443:	48 89 45 f8          	mov    QWORD PTR [rbp-0x8],rax
    1447:	48 8b 45 f8          	mov    rax,QWORD PTR [rbp-0x8]
    144b:	48 8b 10             	mov    rdx,QWORD PTR [rax]
    144e:	48 b8 2d 7f 95 4c 2d 	movabs rax,0x5851f42d4c957f2d
    1455:	f4 51 58 
    1458:	48 0f af c2          	imul   rax,rdx
    145c:	48 8d 50 01          	lea    rdx,[rax+0x1]
    1460:	48 8b 45 f8          	mov    rax,QWORD PTR [rbp-0x8]
    1464:	48 89 10             	mov    QWORD PTR [rax],rdx
    1467:	48 8b 45 f8          	mov    rax,QWORD PTR [rbp-0x8]
    146b:	48 8b 00             	mov    rax,QWORD PTR [rax]
    146e:	48 c1 e8 20          	shr    rax,0x20
    1472:	89 45 f4             	mov    DWORD PTR [rbp-0xc],eax
    1475:	48 8d 3d a4 5f 22 00 	lea    rdi,[rip+0x225fa4]        # 227420 <_ZL11g_seed_lock>
    147c:	e8 3e 9a 00 00       	call   aebf <sgx_spin_unlock>
    1481:	8b 45 f4             	mov    eax,DWORD PTR [rbp-0xc]
    1484:	c9                   	leave  
    1485:	c3                   	ret    

0000000000001486 <_ZL15__do_get_rand32Pj>:
    1486:	55                   	push   rbp
    1487:	48 89 e5             	mov    rbp,rsp
    148a:	48 83 ec 10          	sub    rsp,0x10
    148e:	48 89 7d f8          	mov    QWORD PTR [rbp-0x8],rdi
    1492:	48 8b 05 a7 49 22 00 	mov    rax,QWORD PTR [rip+0x2249a7]        # 225e40 <g_cpu_feature_indicator>
    1499:	25 00 00 02 00       	and    eax,0x20000
    149e:	48 85 c0             	test   rax,rax
    14a1:	74 1c                	je     14bf <_ZL15__do_get_rand32Pj+0x39>
    14a3:	48 8b 45 f8          	mov    rax,QWORD PTR [rbp-0x8]
    14a7:	48 89 c7             	mov    rdi,rax
    14aa:	e8 25 f2 01 00       	call   206d4 <do_rdrand>
    14af:	85 c0                	test   eax,eax
    14b1:	0f 94 c0             	sete   al
    14b4:	84 c0                	test   al,al
    14b6:	74 14                	je     14cc <_ZL15__do_get_rand32Pj+0x46>
    14b8:	b8 01 00 00 00       	mov    eax,0x1
    14bd:	eb 12                	jmp    14d1 <_ZL15__do_get_rand32Pj+0x4b>
    14bf:	e8 64 ff ff ff       	call   1428 <_ZL12get_rand_lcgv>
    14c4:	89 c2                	mov    edx,eax
    14c6:	48 8b 45 f8          	mov    rax,QWORD PTR [rbp-0x8]
    14ca:	89 10                	mov    DWORD PTR [rax],edx
    14cc:	b8 00 00 00 00       	mov    eax,0x0
    14d1:	c9                   	leave  
    14d2:	c3                   	ret    

00000000000014d3 <sgx_read_rand>:
    14d3:	55                   	push   rbp
    14d4:	48 89 e5             	mov    rbp,rsp
    14d7:	48 83 ec 30          	sub    rsp,0x30
    14db:	48 89 7d d8          	mov    QWORD PTR [rbp-0x28],rdi
    14df:	48 89 75 d0          	mov    QWORD PTR [rbp-0x30],rsi
    14e3:	64 48 8b 04 25 28 00 	mov    rax,QWORD PTR fs:0x28
    14ea:	00 00 
    14ec:	48 89 45 f8          	mov    QWORD PTR [rbp-0x8],rax
    14f0:	31 c0                	xor    eax,eax
    14f2:	48 83 7d d8 00       	cmp    QWORD PTR [rbp-0x28],0x0
    14f7:	74 07                	je     1500 <sgx_read_rand+0x2d>
    14f9:	48 83 7d d0 00       	cmp    QWORD PTR [rbp-0x30],0x0
    14fe:	75 0a                	jne    150a <sgx_read_rand+0x37>
    1500:	b8 02 00 00 00       	mov    eax,0x2
    1505:	e9 cc 00 00 00       	jmp    15d6 <sgx_read_rand+0x103>
    150a:	48 8b 55 d0          	mov    rdx,QWORD PTR [rbp-0x30]
    150e:	48 8b 45 d8          	mov    rax,QWORD PTR [rbp-0x28]
    1512:	48 89 d6             	mov    rsi,rdx
    1515:	48 89 c7             	mov    rdi,rax
    1518:	e8 7a fc ff ff       	call   1197 <sgx_is_within_enclave>
    151d:	85 c0                	test   eax,eax
    151f:	75 1e                	jne    153f <sgx_read_rand+0x6c>
    1521:	48 8b 55 d0          	mov    rdx,QWORD PTR [rbp-0x30]
    1525:	48 8b 45 d8          	mov    rax,QWORD PTR [rbp-0x28]
    1529:	48 89 d6             	mov    rsi,rdx
    152c:	48 89 c7             	mov    rdi,rax
    152f:	e8 f0 fc ff ff       	call   1224 <sgx_is_outside_enclave>
    1534:	85 c0                	test   eax,eax
    1536:	75 07                	jne    153f <sgx_read_rand+0x6c>
    1538:	b8 01 00 00 00       	mov    eax,0x1
    153d:	eb 05                	jmp    1544 <sgx_read_rand+0x71>
    153f:	b8 00 00 00 00       	mov    eax,0x0
    1544:	84 c0                	test   al,al
    1546:	74 0a                	je     1552 <sgx_read_rand+0x7f>
    1548:	b8 02 00 00 00       	mov    eax,0x2
    154d:	e9 84 00 00 00       	jmp    15d6 <sgx_read_rand+0x103>
    1552:	c7 45 e8 00 00 00 00 	mov    DWORD PTR [rbp-0x18],0x0
    1559:	48 83 7d d0 00       	cmp    QWORD PTR [rbp-0x30],0x0
    155e:	74 56                	je     15b6 <sgx_read_rand+0xe3>
    1560:	48 8d 45 e8          	lea    rax,[rbp-0x18]
    1564:	48 89 c7             	mov    rdi,rax
    1567:	e8 1a ff ff ff       	call   1486 <_ZL15__do_get_rand32Pj>
    156c:	89 45 ec             	mov    DWORD PTR [rbp-0x14],eax
    156f:	83 7d ec 00          	cmp    DWORD PTR [rbp-0x14],0x0
    1573:	74 05                	je     157a <sgx_read_rand+0xa7>
    1575:	8b 45 ec             	mov    eax,DWORD PTR [rbp-0x14]
    1578:	eb 5c                	jmp    15d6 <sgx_read_rand+0x103>
    157a:	b8 04 00 00 00       	mov    eax,0x4
    157f:	48 83 7d d0 04       	cmp    QWORD PTR [rbp-0x30],0x4
    1584:	48 0f 46 45 d0       	cmovbe rax,QWORD PTR [rbp-0x30]
    1589:	48 89 45 f0          	mov    QWORD PTR [rbp-0x10],rax
    158d:	48 8b 55 f0          	mov    rdx,QWORD PTR [rbp-0x10]
    1591:	48 8d 4d e8          	lea    rcx,[rbp-0x18]
    1595:	48 8b 45 d8          	mov    rax,QWORD PTR [rbp-0x28]
    1599:	48 89 ce             	mov    rsi,rcx
    159c:	48 89 c7             	mov    rdi,rax
    159f:	e8 e4 91 00 00       	call   a788 <memcpy>
    15a4:	48 8b 45 f0          	mov    rax,QWORD PTR [rbp-0x10]
    15a8:	48 01 45 d8          	add    QWORD PTR [rbp-0x28],rax
    15ac:	48 8b 45 f0          	mov    rax,QWORD PTR [rbp-0x10]
    15b0:	48 29 45 d0          	sub    QWORD PTR [rbp-0x30],rax
    15b4:	eb a3                	jmp    1559 <sgx_read_rand+0x86>
    15b6:	48 8d 45 e8          	lea    rax,[rbp-0x18]
    15ba:	b9 04 00 00 00       	mov    ecx,0x4
    15bf:	ba 00 00 00 00       	mov    edx,0x0
    15c4:	be 04 00 00 00       	mov    esi,0x4
    15c9:	48 89 c7             	mov    rdi,rax
    15cc:	e8 55 92 00 00       	call   a826 <memset_s>
    15d1:	b8 00 00 00 00       	mov    eax,0x0
    15d6:	48 8b 4d f8          	mov    rcx,QWORD PTR [rbp-0x8]
    15da:	64 48 33 0c 25 28 00 	xor    rcx,QWORD PTR fs:0x28
    15e1:	00 00 
    15e3:	74 05                	je     15ea <sgx_read_rand+0x117>
    15e5:	e8 f8 34 00 00       	call   4ae2 <__stack_chk_fail>
    15ea:	c9                   	leave  
    15eb:	c3                   	ret    

00000000000015ec <check_static_stack_canary>:
    15ec:	55                   	push   rbp
    15ed:	48 89 e5             	mov    rbp,rsp
    15f0:	48 89 7d e8          	mov    QWORD PTR [rbp-0x18],rdi
    15f4:	48 8b 45 e8          	mov    rax,QWORD PTR [rbp-0x18]
    15f8:	48 2d a8 02 01 00    	sub    rax,0x102a8
    15fe:	48 89 45 f8          	mov    QWORD PTR [rbp-0x8],rax
    1602:	48 8b 45 f8          	mov    rax,QWORD PTR [rbp-0x8]
    1606:	48 8b 10             	mov    rdx,QWORD PTR [rax]
    1609:	48 8b 05 40 48 22 00 	mov    rax,QWORD PTR [rip+0x224840]        # 225e50 <__intel_security_cookie>
    1610:	48 39 c2             	cmp    rdx,rax
    1613:	74 07                	je     161c <check_static_stack_canary+0x30>
    1615:	b8 ff ff ff ff       	mov    eax,0xffffffff
    161a:	eb 05                	jmp    1621 <check_static_stack_canary+0x35>
    161c:	b8 00 00 00 00       	mov    eax,0x0
    1621:	5d                   	pop    rbp
    1622:	c3                   	ret    

0000000000001623 <random_stack_notify_gdb>:
    1623:	55                   	push   rbp
    1624:	48 89 e5             	mov    rbp,rsp
    1627:	48 89 7d f8          	mov    QWORD PTR [rbp-0x8],rdi
    162b:	48 89 75 f0          	mov    QWORD PTR [rbp-0x10],rsi
    162f:	90                   	nop
    1630:	5d                   	pop    rbp
    1631:	c3                   	ret    

0000000000001632 <memcpy_s>:
    1632:	55                   	push   rbp
    1633:	48 89 e5             	mov    rbp,rsp
    1636:	48 83 ec 20          	sub    rsp,0x20
    163a:	48 89 7d f8          	mov    QWORD PTR [rbp-0x8],rdi
    163e:	48 89 75 f0          	mov    QWORD PTR [rbp-0x10],rsi
    1642:	48 89 55 e8          	mov    QWORD PTR [rbp-0x18],rdx
    1646:	48 89 4d e0          	mov    QWORD PTR [rbp-0x20],rcx
    164a:	48 8b 45 f0          	mov    rax,QWORD PTR [rbp-0x10]
    164e:	48 3b 45 e0          	cmp    rax,QWORD PTR [rbp-0x20]
    1652:	73 07                	jae    165b <memcpy_s+0x29>
    1654:	b8 ff ff ff ff       	mov    eax,0xffffffff
    1659:	eb 1c                	jmp    1677 <memcpy_s+0x45>
    165b:	48 8b 55 e0          	mov    rdx,QWORD PTR [rbp-0x20]
    165f:	48 8b 4d e8          	mov    rcx,QWORD PTR [rbp-0x18]
    1663:	48 8b 45 f8          	mov    rax,QWORD PTR [rbp-0x8]
    1667:	48 89 ce             	mov    rsi,rcx
    166a:	48 89 c7             	mov    rdi,rax
    166d:	e8 16 91 00 00       	call   a788 <memcpy>
    1672:	b8 00 00 00 00       	mov    eax,0x0
    1677:	c9                   	leave  
    1678:	c3                   	ret    

0000000000001679 <_ZL16is_ecall_allowedj>:
    1679:	55                   	push   rbp
    167a:	48 89 e5             	mov    rbp,rsp
    167d:	48 83 ec 30          	sub    rsp,0x30
    1681:	89 7d dc             	mov    DWORD PTR [rbp-0x24],edi
    1684:	8b 55 dc             	mov    edx,DWORD PTR [rbp-0x24]
    1687:	48 8b 05 8a 47 22 00 	mov    rax,QWORD PTR [rip+0x22478a]        # 225e18 <g_ecall_table>
    168e:	48 39 c2             	cmp    rdx,rax
    1691:	72 0a                	jb     169d <_ZL16is_ecall_allowedj+0x24>
    1693:	b8 01 10 00 00       	mov    eax,0x1001
    1698:	e9 ba 00 00 00       	jmp    1757 <_ZL16is_ecall_allowedj+0xde>
    169d:	e8 81 ec 01 00       	call   20323 <get_thread_data>
    16a2:	48 89 45 e8          	mov    QWORD PTR [rbp-0x18],rax
    16a6:	0f ae e8             	lfence 
    16a9:	48 8b 45 e8          	mov    rax,QWORD PTR [rbp-0x18]
    16ad:	48 8b 50 08          	mov    rdx,QWORD PTR [rax+0x8]
    16b1:	48 8b 45 e8          	mov    rax,QWORD PTR [rbp-0x18]
    16b5:	48 8b 40 10          	mov    rax,QWORD PTR [rax+0x10]
    16b9:	48 39 c2             	cmp    rdx,rax
    16bc:	75 27                	jne    16e5 <_ZL16is_ecall_allowedj+0x6c>
    16be:	8b 45 dc             	mov    eax,DWORD PTR [rbp-0x24]
    16c1:	48 c1 e0 04          	shl    rax,0x4
    16c5:	48 89 c2             	mov    rdx,rax
    16c8:	48 8d 05 59 47 22 00 	lea    rax,[rip+0x224759]        # 225e28 <g_ecall_table+0x10>
    16cf:	0f b6 04 02          	movzx  eax,BYTE PTR [rdx+rax*1]
    16d3:	84 c0                	test   al,al
    16d5:	74 07                	je     16de <_ZL16is_ecall_allowedj+0x65>
    16d7:	b8 07 10 00 00       	mov    eax,0x1007
    16dc:	eb 79                	jmp    1757 <_ZL16is_ecall_allowedj+0xde>
    16de:	b8 00 00 00 00       	mov    eax,0x0
    16e3:	eb 72                	jmp    1757 <_ZL16is_ecall_allowedj+0xde>
    16e5:	48 8b 45 e8          	mov    rax,QWORD PTR [rbp-0x18]
    16e9:	48 8b 40 08          	mov    rax,QWORD PTR [rax+0x8]
    16ed:	48 89 45 f0          	mov    QWORD PTR [rbp-0x10],rax
    16f1:	48 8b 45 f0          	mov    rax,QWORD PTR [rbp-0x10]
    16f5:	48 8b 40 20          	mov    rax,QWORD PTR [rax+0x20]
    16f9:	48 3d 44 49 43 4f    	cmp    rax,0x4f434944
    16ff:	74 05                	je     1706 <_ZL16is_ecall_allowedj+0x8d>
    1701:	e8 ed ef 01 00       	call   206f3 <abort>
    1706:	48 8b 45 f0          	mov    rax,QWORD PTR [rbp-0x10]
    170a:	48 8b 40 28          	mov    rax,QWORD PTR [rax+0x28]
    170e:	48 89 45 f8          	mov    QWORD PTR [rbp-0x8],rax
    1712:	48 8b 05 e7 f0 01 00 	mov    rax,QWORD PTR [rip+0x1f0e7]        # 20800 <g_dyn_entry_table>
    1719:	48 39 45 f8          	cmp    QWORD PTR [rbp-0x8],rax
    171d:	72 07                	jb     1726 <_ZL16is_ecall_allowedj+0xad>
    171f:	b8 01 10 00 00       	mov    eax,0x1001
    1724:	eb 31                	jmp    1757 <_ZL16is_ecall_allowedj+0xde>
    1726:	48 8b 05 eb 46 22 00 	mov    rax,QWORD PTR [rip+0x2246eb]        # 225e18 <g_ecall_table>
    172d:	48 0f af 45 f8       	imul   rax,QWORD PTR [rbp-0x8]
    1732:	48 89 c2             	mov    rdx,rax
    1735:	8b 45 dc             	mov    eax,DWORD PTR [rbp-0x24]
    1738:	48 01 c2             	add    rdx,rax
    173b:	48 8d 05 c6 f0 01 00 	lea    rax,[rip+0x1f0c6]        # 20808 <g_dyn_entry_table+0x8>
    1742:	0f b6 04 02          	movzx  eax,BYTE PTR [rdx+rax*1]
    1746:	84 c0                	test   al,al
    1748:	74 07                	je     1751 <_ZL16is_ecall_allowedj+0xd8>
    174a:	b8 00 00 00 00       	mov    eax,0x0
    174f:	eb 05                	jmp    1756 <_ZL16is_ecall_allowedj+0xdd>
    1751:	b8 07 10 00 00       	mov    eax,0x1007
    1756:	90                   	nop
    1757:	c9                   	leave  
    1758:	c3                   	ret    

0000000000001759 <_ZL13get_func_addrjPPv>:
    1759:	55                   	push   rbp
    175a:	48 89 e5             	mov    rbp,rsp
    175d:	48 83 ec 20          	sub    rsp,0x20
    1761:	89 7d ec             	mov    DWORD PTR [rbp-0x14],edi
    1764:	48 89 75 e0          	mov    QWORD PTR [rbp-0x20],rsi
    1768:	83 7d ec fa          	cmp    DWORD PTR [rbp-0x14],0xfffffffa
    176c:	0f 94 c0             	sete   al
    176f:	0f b6 c0             	movzx  eax,al
    1772:	48 85 c0             	test   rax,rax
    1775:	75 0f                	jne    1786 <_ZL13get_func_addrjPPv+0x2d>
    1777:	83 7d ec f9          	cmp    DWORD PTR [rbp-0x14],0xfffffff9
    177b:	0f 94 c0             	sete   al
    177e:	0f b6 c0             	movzx  eax,al
    1781:	48 85 c0             	test   rax,rax
    1784:	74 5e                	je     17e4 <_ZL13get_func_addrjPPv+0x8b>
    1786:	e8 98 eb 01 00       	call   20323 <get_thread_data>
    178b:	48 89 45 f8          	mov    QWORD PTR [rbp-0x8],rax
    178f:	48 8b 45 f8          	mov    rax,QWORD PTR [rbp-0x8]
    1793:	48 8b 50 08          	mov    rdx,QWORD PTR [rax+0x8]
    1797:	48 8b 45 f8          	mov    rax,QWORD PTR [rbp-0x8]
    179b:	48 8b 40 10          	mov    rax,QWORD PTR [rax+0x10]
    179f:	48 39 c2             	cmp    rdx,rax
    17a2:	74 0a                	je     17ae <_ZL13get_func_addrjPPv+0x55>
    17a4:	b8 01 00 00 00       	mov    eax,0x1
    17a9:	e9 93 00 00 00       	jmp    1841 <_ZL13get_func_addrjPPv+0xe8>
    17ae:	83 7d ec fa          	cmp    DWORD PTR [rbp-0x14],0xfffffffa
    17b2:	75 15                	jne    17c9 <_ZL13get_func_addrjPPv+0x70>
    17b4:	48 8b 45 e0          	mov    rax,QWORD PTR [rbp-0x20]
    17b8:	48 8d 15 71 17 00 00 	lea    rdx,[rip+0x1771]        # 2f30 <do_init_switchless>
    17bf:	48 89 10             	mov    QWORD PTR [rax],rdx
    17c2:	b8 00 00 00 00       	mov    eax,0x0
    17c7:	eb 78                	jmp    1841 <_ZL13get_func_addrjPPv+0xe8>
    17c9:	83 7d ec f9          	cmp    DWORD PTR [rbp-0x14],0xfffffff9
    17cd:	75 15                	jne    17e4 <_ZL13get_func_addrjPPv+0x8b>
    17cf:	48 8b 45 e0          	mov    rax,QWORD PTR [rbp-0x20]
    17d3:	48 8d 15 65 17 00 00 	lea    rdx,[rip+0x1765]        # 2f3f <do_run_switchless_tworker>
    17da:	48 89 10             	mov    QWORD PTR [rax],rdx
    17dd:	b8 00 00 00 00       	mov    eax,0x0
    17e2:	eb 5d                	jmp    1841 <_ZL13get_func_addrjPPv+0xe8>
    17e4:	8b 45 ec             	mov    eax,DWORD PTR [rbp-0x14]
    17e7:	89 c7                	mov    edi,eax
    17e9:	e8 8b fe ff ff       	call   1679 <_ZL16is_ecall_allowedj>
    17ee:	89 45 f4             	mov    DWORD PTR [rbp-0xc],eax
    17f1:	83 7d f4 00          	cmp    DWORD PTR [rbp-0xc],0x0
    17f5:	74 05                	je     17fc <_ZL13get_func_addrjPPv+0xa3>
    17f7:	8b 45 f4             	mov    eax,DWORD PTR [rbp-0xc]
    17fa:	eb 45                	jmp    1841 <_ZL13get_func_addrjPPv+0xe8>
    17fc:	8b 45 ec             	mov    eax,DWORD PTR [rbp-0x14]
    17ff:	48 c1 e0 04          	shl    rax,0x4
    1803:	48 89 c2             	mov    rdx,rax
    1806:	48 8d 05 13 46 22 00 	lea    rax,[rip+0x224613]        # 225e20 <g_ecall_table+0x8>
    180d:	48 8b 14 02          	mov    rdx,QWORD PTR [rdx+rax*1]
    1811:	48 8b 45 e0          	mov    rax,QWORD PTR [rbp-0x20]
    1815:	48 89 10             	mov    QWORD PTR [rax],rdx
    1818:	48 8b 45 e0          	mov    rax,QWORD PTR [rbp-0x20]
    181c:	48 8b 00             	mov    rax,QWORD PTR [rax]
    181f:	be 00 00 00 00       	mov    esi,0x0
    1824:	48 89 c7             	mov    rdi,rax
    1827:	e8 6b f9 ff ff       	call   1197 <sgx_is_within_enclave>
    182c:	85 c0                	test   eax,eax
    182e:	0f 94 c0             	sete   al
    1831:	84 c0                	test   al,al
    1833:	74 07                	je     183c <_ZL13get_func_addrjPPv+0xe3>
    1835:	b8 01 00 00 00       	mov    eax,0x1
    183a:	eb 05                	jmp    1841 <_ZL13get_func_addrjPPv+0xe8>
    183c:	b8 00 00 00 00       	mov    eax,0x0
    1841:	c9                   	leave  
    1842:	c3                   	ret    

0000000000001843 <_ZL17is_utility_threadv>:
    1843:	55                   	push   rbp
    1844:	48 89 e5             	mov    rbp,rsp
    1847:	48 83 ec 10          	sub    rsp,0x10
    184b:	e8 d3 ea 01 00       	call   20323 <get_thread_data>
    1850:	48 89 45 f8          	mov    QWORD PTR [rbp-0x8],rax
    1854:	48 83 7d f8 00       	cmp    QWORD PTR [rbp-0x8],0x0
    1859:	74 17                	je     1872 <_ZL17is_utility_threadv+0x2f>
    185b:	48 8b 45 f8          	mov    rax,QWORD PTR [rbp-0x8]
    185f:	48 8b 40 30          	mov    rax,QWORD PTR [rax+0x30]
    1863:	83 e0 01             	and    eax,0x1
    1866:	48 85 c0             	test   rax,rax
    1869:	74 07                	je     1872 <_ZL17is_utility_threadv+0x2f>
    186b:	b8 01 00 00 00       	mov    eax,0x1
    1870:	eb 05                	jmp    1877 <_ZL17is_utility_threadv+0x34>
    1872:	b8 00 00 00 00       	mov    eax,0x0
    1877:	c9                   	leave  
    1878:	c3                   	ret    

0000000000001879 <_ZL11do_save_tcsPv>:
    1879:	55                   	push   rbp
    187a:	48 89 e5             	mov    rbp,rsp
    187d:	48 83 ec 30          	sub    rsp,0x30
    1881:	48 89 7d d8          	mov    QWORD PTR [rbp-0x28],rdi
    1885:	64 48 8b 04 25 28 00 	mov    rax,QWORD PTR fs:0x28
    188c:	00 00 
    188e:	48 89 45 f8          	mov    QWORD PTR [rbp-0x8],rax
    1892:	31 c0                	xor    eax,eax
    1894:	e8 aa ff ff ff       	call   1843 <_ZL17is_utility_threadv>
    1899:	83 f0 01             	xor    eax,0x1
    189c:	84 c0                	test   al,al
    189e:	74 0a                	je     18aa <_ZL11do_save_tcsPv+0x31>
    18a0:	b8 01 00 00 00       	mov    eax,0x1
    18a5:	e9 b0 00 00 00       	jmp    195a <_ZL11do_save_tcsPv+0xe1>
    18aa:	48 8b 05 7f 5b 22 00 	mov    rax,QWORD PTR [rip+0x225b7f]        # 227430 <_ZL12g_tcs_cookie>
    18b1:	48 85 c0             	test   rax,rax
    18b4:	0f 94 c0             	sete   al
    18b7:	0f b6 c0             	movzx  eax,al
    18ba:	48 85 c0             	test   rax,rax
    18bd:	74 4b                	je     190a <_ZL11do_save_tcsPv+0x91>
    18bf:	48 c7 45 e8 00 00 00 	mov    QWORD PTR [rbp-0x18],0x0
    18c6:	00 
    18c7:	48 8d 45 e8          	lea    rax,[rbp-0x18]
    18cb:	be 08 00 00 00       	mov    esi,0x8
    18d0:	48 89 c7             	mov    rdi,rax
    18d3:	e8 fb fb ff ff       	call   14d3 <sgx_read_rand>
    18d8:	85 c0                	test   eax,eax
    18da:	0f 95 c0             	setne  al
    18dd:	84 c0                	test   al,al
    18df:	74 07                	je     18e8 <_ZL11do_save_tcsPv+0x6f>
    18e1:	b8 01 00 00 00       	mov    eax,0x1
    18e6:	eb 72                	jmp    195a <_ZL11do_save_tcsPv+0xe1>
    18e8:	48 8b 45 e8          	mov    rax,QWORD PTR [rbp-0x18]
    18ec:	48 85 c0             	test   rax,rax
    18ef:	75 02                	jne    18f3 <_ZL11do_save_tcsPv+0x7a>
    18f1:	eb d4                	jmp    18c7 <_ZL11do_save_tcsPv+0x4e>
    18f3:	48 8b 05 36 5b 22 00 	mov    rax,QWORD PTR [rip+0x225b36]        # 227430 <_ZL12g_tcs_cookie>
    18fa:	48 85 c0             	test   rax,rax
    18fd:	75 0b                	jne    190a <_ZL11do_save_tcsPv+0x91>
    18ff:	48 8b 45 e8          	mov    rax,QWORD PTR [rbp-0x18]
    1903:	48 89 05 26 5b 22 00 	mov    QWORD PTR [rip+0x225b26],rax        # 227430 <_ZL12g_tcs_cookie>
    190a:	bf 10 00 00 00       	mov    edi,0x10
    190f:	e8 bd 6c 00 00       	call   85d1 <dlmalloc>
    1914:	48 89 45 f0          	mov    QWORD PTR [rbp-0x10],rax
    1918:	48 83 7d f0 00       	cmp    QWORD PTR [rbp-0x10],0x0
    191d:	75 07                	jne    1926 <_ZL11do_save_tcsPv+0xad>
    191f:	b8 01 00 00 00       	mov    eax,0x1
    1924:	eb 34                	jmp    195a <_ZL11do_save_tcsPv+0xe1>
    1926:	48 8b 55 d8          	mov    rdx,QWORD PTR [rbp-0x28]
    192a:	48 8b 05 ff 5a 22 00 	mov    rax,QWORD PTR [rip+0x225aff]        # 227430 <_ZL12g_tcs_cookie>
    1931:	48 31 c2             	xor    rdx,rax
    1934:	48 8b 45 f0          	mov    rax,QWORD PTR [rbp-0x10]
    1938:	48 89 10             	mov    QWORD PTR [rax],rdx
    193b:	48 8b 15 e6 5a 22 00 	mov    rdx,QWORD PTR [rip+0x225ae6]        # 227428 <_ZL10g_tcs_node>
    1942:	48 8b 45 f0          	mov    rax,QWORD PTR [rbp-0x10]
    1946:	48 89 50 08          	mov    QWORD PTR [rax+0x8],rdx
    194a:	48 8b 45 f0          	mov    rax,QWORD PTR [rbp-0x10]
    194e:	48 89 05 d3 5a 22 00 	mov    QWORD PTR [rip+0x225ad3],rax        # 227428 <_ZL10g_tcs_node>
    1955:	b8 00 00 00 00       	mov    eax,0x0
    195a:	48 8b 4d f8          	mov    rcx,QWORD PTR [rbp-0x8]
    195e:	64 48 33 0c 25 28 00 	xor    rcx,QWORD PTR fs:0x28
    1965:	00 00 
    1967:	74 05                	je     196e <_ZL11do_save_tcsPv+0xf5>
    1969:	e8 74 31 00 00       	call   4ae2 <__stack_chk_fail>
    196e:	c9                   	leave  
    196f:	c3                   	ret    

0000000000001970 <_ZL10do_del_tcsPv>:
    1970:	55                   	push   rbp
    1971:	48 89 e5             	mov    rbp,rsp
    1974:	48 83 ec 30          	sub    rsp,0x30
    1978:	48 89 7d d8          	mov    QWORD PTR [rbp-0x28],rdi
    197c:	e8 c2 fe ff ff       	call   1843 <_ZL17is_utility_threadv>
    1981:	83 f0 01             	xor    eax,0x1
    1984:	84 c0                	test   al,al
    1986:	0f 85 c1 00 00 00    	jne    1a4d <_ZL10do_del_tcsPv+0xdd>
    198c:	48 8b 05 95 5a 22 00 	mov    rax,QWORD PTR [rip+0x225a95]        # 227428 <_ZL10g_tcs_node>
    1993:	48 85 c0             	test   rax,rax
    1996:	0f 84 b2 00 00 00    	je     1a4e <_ZL10do_del_tcsPv+0xde>
    199c:	48 8b 05 85 5a 22 00 	mov    rax,QWORD PTR [rip+0x225a85]        # 227428 <_ZL10g_tcs_node>
    19a3:	48 8b 10             	mov    rdx,QWORD PTR [rax]
    19a6:	48 8b 05 83 5a 22 00 	mov    rax,QWORD PTR [rip+0x225a83]        # 227430 <_ZL12g_tcs_cookie>
    19ad:	48 31 d0             	xor    rax,rdx
    19b0:	48 39 45 d8          	cmp    QWORD PTR [rbp-0x28],rax
    19b4:	75 2b                	jne    19e1 <_ZL10do_del_tcsPv+0x71>
    19b6:	48 8b 05 6b 5a 22 00 	mov    rax,QWORD PTR [rip+0x225a6b]        # 227428 <_ZL10g_tcs_node>
    19bd:	48 89 45 f8          	mov    QWORD PTR [rbp-0x8],rax
    19c1:	48 8b 05 60 5a 22 00 	mov    rax,QWORD PTR [rip+0x225a60]        # 227428 <_ZL10g_tcs_node>
    19c8:	48 8b 40 08          	mov    rax,QWORD PTR [rax+0x8]
    19cc:	48 89 05 55 5a 22 00 	mov    QWORD PTR [rip+0x225a55],rax        # 227428 <_ZL10g_tcs_node>
    19d3:	48 8b 45 f8          	mov    rax,QWORD PTR [rbp-0x8]
    19d7:	48 89 c7             	mov    rdi,rax
    19da:	e8 e9 76 00 00       	call   90c8 <dlfree>
    19df:	eb 6d                	jmp    1a4e <_ZL10do_del_tcsPv+0xde>
    19e1:	48 8b 05 40 5a 22 00 	mov    rax,QWORD PTR [rip+0x225a40]        # 227428 <_ZL10g_tcs_node>
    19e8:	48 8b 40 08          	mov    rax,QWORD PTR [rax+0x8]
    19ec:	48 89 45 e8          	mov    QWORD PTR [rbp-0x18],rax
    19f0:	48 8b 05 31 5a 22 00 	mov    rax,QWORD PTR [rip+0x225a31]        # 227428 <_ZL10g_tcs_node>
    19f7:	48 89 45 f0          	mov    QWORD PTR [rbp-0x10],rax
    19fb:	48 83 7d e8 00       	cmp    QWORD PTR [rbp-0x18],0x0
    1a00:	74 4c                	je     1a4e <_ZL10do_del_tcsPv+0xde>
    1a02:	48 8b 45 e8          	mov    rax,QWORD PTR [rbp-0x18]
    1a06:	48 8b 10             	mov    rdx,QWORD PTR [rax]
    1a09:	48 8b 05 20 5a 22 00 	mov    rax,QWORD PTR [rip+0x225a20]        # 227430 <_ZL12g_tcs_cookie>
    1a10:	48 31 d0             	xor    rax,rdx
    1a13:	48 39 45 d8          	cmp    QWORD PTR [rbp-0x28],rax
    1a17:	75 1e                	jne    1a37 <_ZL10do_del_tcsPv+0xc7>
    1a19:	48 8b 45 e8          	mov    rax,QWORD PTR [rbp-0x18]
    1a1d:	48 8b 50 08          	mov    rdx,QWORD PTR [rax+0x8]
    1a21:	48 8b 45 f0          	mov    rax,QWORD PTR [rbp-0x10]
    1a25:	48 89 50 08          	mov    QWORD PTR [rax+0x8],rdx
    1a29:	48 8b 45 e8          	mov    rax,QWORD PTR [rbp-0x18]
    1a2d:	48 89 c7             	mov    rdi,rax
    1a30:	e8 93 76 00 00       	call   90c8 <dlfree>
    1a35:	eb 17                	jmp    1a4e <_ZL10do_del_tcsPv+0xde>
    1a37:	48 8b 45 e8          	mov    rax,QWORD PTR [rbp-0x18]
    1a3b:	48 89 45 f0          	mov    QWORD PTR [rbp-0x10],rax
    1a3f:	48 8b 45 e8          	mov    rax,QWORD PTR [rbp-0x18]
    1a43:	48 8b 40 08          	mov    rax,QWORD PTR [rax+0x8]
    1a47:	48 89 45 e8          	mov    QWORD PTR [rbp-0x18],rax
    1a4b:	eb ae                	jmp    19fb <_ZL10do_del_tcsPv+0x8b>
    1a4d:	90                   	nop
    1a4e:	c9                   	leave  
    1a4f:	c3                   	ret    

0000000000001a50 <_ZL10trts_ecalljPv>:
    1a50:	55                   	push   rbp
    1a51:	48 89 e5             	mov    rbp,rsp
    1a54:	48 83 ec 40          	sub    rsp,0x40
    1a58:	89 7d cc             	mov    DWORD PTR [rbp-0x34],edi
    1a5b:	48 89 75 c0          	mov    QWORD PTR [rbp-0x40],rsi
    1a5f:	64 48 8b 04 25 28 00 	mov    rax,QWORD PTR fs:0x28
    1a66:	00 00 
    1a68:	48 89 45 f8          	mov    QWORD PTR [rbp-0x8],rax
    1a6c:	31 c0                	xor    eax,eax
    1a6e:	c7 45 dc 01 00 00 00 	mov    DWORD PTR [rbp-0x24],0x1
    1a75:	0f b6 05 a4 45 22 00 	movzx  eax,BYTE PTR [rip+0x2245a4]        # 226020 <_ZL16g_is_first_ecall>
    1a7c:	0f b6 c0             	movzx  eax,al
    1a7f:	48 85 c0             	test   rax,rax
    1a82:	0f 95 c0             	setne  al
    1a85:	84 c0                	test   al,al
    1a87:	74 54                	je     1add <_ZL10trts_ecalljPv+0x8d>
    1a89:	e8 95 e8 01 00       	call   20323 <get_thread_data>
    1a8e:	48 89 45 e8          	mov    QWORD PTR [rbp-0x18],rax
    1a92:	48 8b 45 e8          	mov    rax,QWORD PTR [rbp-0x18]
    1a96:	48 8b 50 08          	mov    rdx,QWORD PTR [rax+0x8]
    1a9a:	48 8b 45 e8          	mov    rax,QWORD PTR [rbp-0x18]
    1a9e:	48 8b 40 10          	mov    rax,QWORD PTR [rax+0x10]
    1aa2:	48 39 c2             	cmp    rdx,rax
    1aa5:	74 07                	je     1aae <_ZL10trts_ecalljPv+0x5e>
    1aa7:	b8 07 10 00 00       	mov    eax,0x1007
    1aac:	eb 6f                	jmp    1b1d <_ZL10trts_ecalljPv+0xcd>
    1aae:	48 8d 3d 83 59 22 00 	lea    rdi,[rip+0x225983]        # 227438 <_ZL10g_ife_lock>
    1ab5:	e8 9e 93 00 00       	call   ae58 <sgx_spin_lock>
    1aba:	0f b6 05 5f 45 22 00 	movzx  eax,BYTE PTR [rip+0x22455f]        # 226020 <_ZL16g_is_first_ecall>
    1ac1:	84 c0                	test   al,al
    1ac3:	74 0c                	je     1ad1 <_ZL10trts_ecalljPv+0x81>
    1ac5:	e8 fb 2f 00 00       	call   4ac5 <init_global_object>
    1aca:	c6 05 4f 45 22 00 00 	mov    BYTE PTR [rip+0x22454f],0x0        # 226020 <_ZL16g_is_first_ecall>
    1ad1:	48 8d 3d 60 59 22 00 	lea    rdi,[rip+0x225960]        # 227438 <_ZL10g_ife_lock>
    1ad8:	e8 e2 93 00 00       	call   aebf <sgx_spin_unlock>
    1add:	48 c7 45 e0 00 00 00 	mov    QWORD PTR [rbp-0x20],0x0
    1ae4:	00 
    1ae5:	48 8d 55 e0          	lea    rdx,[rbp-0x20]
    1ae9:	8b 45 cc             	mov    eax,DWORD PTR [rbp-0x34]
    1aec:	48 89 d6             	mov    rsi,rdx
    1aef:	89 c7                	mov    edi,eax
    1af1:	e8 63 fc ff ff       	call   1759 <_ZL13get_func_addrjPPv>
    1af6:	89 45 dc             	mov    DWORD PTR [rbp-0x24],eax
    1af9:	83 7d dc 00          	cmp    DWORD PTR [rbp-0x24],0x0
    1afd:	75 1b                	jne    1b1a <_ZL10trts_ecalljPv+0xca>
    1aff:	48 8b 45 e0          	mov    rax,QWORD PTR [rbp-0x20]
    1b03:	48 89 45 f0          	mov    QWORD PTR [rbp-0x10],rax
    1b07:	0f ae e8             	lfence 
    1b0a:	48 8b 55 c0          	mov    rdx,QWORD PTR [rbp-0x40]
    1b0e:	48 8b 45 f0          	mov    rax,QWORD PTR [rbp-0x10]
    1b12:	48 89 d7             	mov    rdi,rdx
    1b15:	ff d0                	call   rax
    1b17:	89 45 dc             	mov    DWORD PTR [rbp-0x24],eax
    1b1a:	8b 45 dc             	mov    eax,DWORD PTR [rbp-0x24]
    1b1d:	48 8b 4d f8          	mov    rcx,QWORD PTR [rbp-0x8]
    1b21:	64 48 33 0c 25 28 00 	xor    rcx,QWORD PTR fs:0x28
    1b28:	00 00 
    1b2a:	74 05                	je     1b31 <_ZL10trts_ecalljPv+0xe1>
    1b2c:	e8 b1 2f 00 00       	call   4ae2 <__stack_chk_fail>
    1b31:	c9                   	leave  
    1b32:	c3                   	ret    

0000000000001b33 <_ZL24init_static_stack_canaryPv>:
    1b33:	55                   	push   rbp
    1b34:	48 89 e5             	mov    rbp,rsp
    1b37:	48 89 7d e8          	mov    QWORD PTR [rbp-0x18],rdi
    1b3b:	48 8b 45 e8          	mov    rax,QWORD PTR [rbp-0x18]
    1b3f:	48 2d a8 02 01 00    	sub    rax,0x102a8
    1b45:	48 89 45 f8          	mov    QWORD PTR [rbp-0x8],rax
    1b49:	48 8b 15 00 43 22 00 	mov    rdx,QWORD PTR [rip+0x224300]        # 225e50 <__intel_security_cookie>
    1b50:	48 8b 45 f8          	mov    rax,QWORD PTR [rbp-0x8]
    1b54:	48 89 10             	mov    QWORD PTR [rax],rdx
    1b57:	90                   	nop
    1b58:	5d                   	pop    rbp
    1b59:	c3                   	ret    

0000000000001b5a <do_init_thread>:
    1b5a:	55                   	push   rbp
    1b5b:	48 89 e5             	mov    rbp,rsp
    1b5e:	48 83 ec 40          	sub    rsp,0x40
    1b62:	48 89 7d c8          	mov    QWORD PTR [rbp-0x38],rdi
    1b66:	89 f0                	mov    eax,esi
    1b68:	88 45 c4             	mov    BYTE PTR [rbp-0x3c],al
    1b6b:	64 48 8b 04 25 28 00 	mov    rax,QWORD PTR fs:0x28
    1b72:	00 00 
    1b74:	48 89 45 f8          	mov    QWORD PTR [rbp-0x8],rax
    1b78:	31 c0                	xor    eax,eax
    1b7a:	48 8b 15 5f 50 22 00 	mov    rdx,QWORD PTR [rip+0x22505f]        # 226be0 <g_global_data+0x20>
    1b81:	48 8b 45 c8          	mov    rax,QWORD PTR [rbp-0x38]
    1b85:	48 01 d0             	add    rax,rdx
    1b88:	48 89 45 e0          	mov    QWORD PTR [rbp-0x20],rax
    1b8c:	48 8b 45 e0          	mov    rax,QWORD PTR [rbp-0x20]
    1b90:	48 8b 40 28          	mov    rax,QWORD PTR [rax+0x28]
    1b94:	48 89 45 e8          	mov    QWORD PTR [rbp-0x18],rax
    1b98:	48 8b 45 e0          	mov    rax,QWORD PTR [rbp-0x20]
    1b9c:	48 8b 40 30          	mov    rax,QWORD PTR [rax+0x30]
    1ba0:	48 89 45 f0          	mov    QWORD PTR [rbp-0x10],rax
    1ba4:	48 8b 45 e0          	mov    rax,QWORD PTR [rbp-0x20]
    1ba8:	b9 a0 00 00 00       	mov    ecx,0xa0
    1bad:	48 8d 15 2c 50 22 00 	lea    rdx,[rip+0x22502c]        # 226be0 <g_global_data+0x20>
    1bb4:	be 00 10 00 00       	mov    esi,0x1000
    1bb9:	48 89 c7             	mov    rdi,rax
    1bbc:	e8 71 fa ff ff       	call   1632 <memcpy_s>
    1bc1:	48 8b 45 e0          	mov    rax,QWORD PTR [rbp-0x20]
    1bc5:	48 8b 50 08          	mov    rdx,QWORD PTR [rax+0x8]
    1bc9:	48 8b 45 c8          	mov    rax,QWORD PTR [rbp-0x38]
    1bcd:	48 01 c2             	add    rdx,rax
    1bd0:	48 8b 45 e0          	mov    rax,QWORD PTR [rbp-0x20]
    1bd4:	48 89 50 08          	mov    QWORD PTR [rax+0x8],rdx
    1bd8:	48 8b 45 e0          	mov    rax,QWORD PTR [rbp-0x20]
    1bdc:	48 8b 10             	mov    rdx,QWORD PTR [rax]
    1bdf:	48 8b 45 c8          	mov    rax,QWORD PTR [rbp-0x38]
    1be3:	48 01 c2             	add    rdx,rax
    1be6:	48 8b 45 e0          	mov    rax,QWORD PTR [rbp-0x20]
    1bea:	48 89 10             	mov    QWORD PTR [rax],rdx
    1bed:	48 8b 45 e0          	mov    rax,QWORD PTR [rbp-0x20]
    1bf1:	48 8b 50 10          	mov    rdx,QWORD PTR [rax+0x10]
    1bf5:	48 8b 45 c8          	mov    rax,QWORD PTR [rbp-0x38]
    1bf9:	48 01 c2             	add    rdx,rax
    1bfc:	48 8b 45 e0          	mov    rax,QWORD PTR [rbp-0x20]
    1c00:	48 89 50 10          	mov    QWORD PTR [rax+0x10],rdx
    1c04:	48 8b 45 e0          	mov    rax,QWORD PTR [rbp-0x20]
    1c08:	48 8b 50 18          	mov    rdx,QWORD PTR [rax+0x18]
    1c0c:	48 8b 45 c8          	mov    rax,QWORD PTR [rbp-0x38]
    1c10:	48 01 c2             	add    rdx,rax
    1c13:	48 8b 45 e0          	mov    rax,QWORD PTR [rbp-0x20]
    1c17:	48 89 50 18          	mov    QWORD PTR [rax+0x18],rdx
    1c1b:	48 8b 45 e0          	mov    rax,QWORD PTR [rbp-0x20]
    1c1f:	48 8b 50 18          	mov    rdx,QWORD PTR [rax+0x18]
    1c23:	48 8b 45 e0          	mov    rax,QWORD PTR [rbp-0x20]
    1c27:	48 89 90 98 00 00 00 	mov    QWORD PTR [rax+0x98],rdx
    1c2e:	48 8b 45 e0          	mov    rax,QWORD PTR [rbp-0x20]
    1c32:	48 8b 50 20          	mov    rdx,QWORD PTR [rax+0x20]
    1c36:	48 8b 45 c8          	mov    rax,QWORD PTR [rbp-0x38]
    1c3a:	48 01 c2             	add    rdx,rax
    1c3d:	48 8b 45 e0          	mov    rax,QWORD PTR [rbp-0x20]
    1c41:	48 89 50 20          	mov    QWORD PTR [rax+0x20],rdx
    1c45:	48 8b 45 e0          	mov    rax,QWORD PTR [rbp-0x20]
    1c49:	48 8b 50 58          	mov    rdx,QWORD PTR [rax+0x58]
    1c4d:	48 8b 45 c8          	mov    rax,QWORD PTR [rbp-0x38]
    1c51:	48 01 c2             	add    rdx,rax
    1c54:	48 8b 45 e0          	mov    rax,QWORD PTR [rbp-0x20]
    1c58:	48 89 50 58          	mov    QWORD PTR [rax+0x58],rdx
    1c5c:	48 8b 45 e0          	mov    rax,QWORD PTR [rbp-0x20]
    1c60:	48 8b 50 50          	mov    rdx,QWORD PTR [rax+0x50]
    1c64:	48 8b 45 c8          	mov    rax,QWORD PTR [rbp-0x38]
    1c68:	48 01 c2             	add    rdx,rax
    1c6b:	48 8b 45 e0          	mov    rax,QWORD PTR [rbp-0x20]
    1c6f:	48 89 50 50          	mov    QWORD PTR [rax+0x50],rdx
    1c73:	48 8b 45 e0          	mov    rax,QWORD PTR [rbp-0x20]
    1c77:	48 8b 40 08          	mov    rax,QWORD PTR [rax+0x8]
    1c7b:	48 8d 90 50 fd ff ff 	lea    rdx,[rax-0x2b0]
    1c82:	48 8b 45 e0          	mov    rax,QWORD PTR [rbp-0x20]
    1c86:	48 89 50 08          	mov    QWORD PTR [rax+0x8],rdx
    1c8a:	48 8b 45 e0          	mov    rax,QWORD PTR [rbp-0x20]
    1c8e:	48 8b 40 10          	mov    rax,QWORD PTR [rax+0x10]
    1c92:	48 8d 90 50 fd ff ff 	lea    rdx,[rax-0x2b0]
    1c99:	48 8b 45 e0          	mov    rax,QWORD PTR [rbp-0x20]
    1c9d:	48 89 50 10          	mov    QWORD PTR [rax+0x10],rdx
    1ca1:	48 8b 45 e0          	mov    rax,QWORD PTR [rbp-0x20]
    1ca5:	48 8b 55 e8          	mov    rdx,QWORD PTR [rbp-0x18]
    1ca9:	48 89 50 28          	mov    QWORD PTR [rax+0x28],rdx
    1cad:	48 8b 45 e0          	mov    rax,QWORD PTR [rbp-0x20]
    1cb1:	48 8b 55 f0          	mov    rdx,QWORD PTR [rbp-0x10]
    1cb5:	48 89 50 30          	mov    QWORD PTR [rax+0x30],rdx
    1cb9:	48 8b 45 c8          	mov    rax,QWORD PTR [rbp-0x38]
    1cbd:	48 89 c7             	mov    rdi,rax
    1cc0:	e8 6e fe ff ff       	call   1b33 <_ZL24init_static_stack_canaryPv>
    1cc5:	80 7d c4 00          	cmp    BYTE PTR [rbp-0x3c],0x0
    1cc9:	74 0c                	je     1cd7 <do_init_thread+0x17d>
    1ccb:	48 8b 45 e0          	mov    rax,QWORD PTR [rbp-0x20]
    1ccf:	48 c7 40 30 01 00 00 	mov    QWORD PTR [rax+0x30],0x1
    1cd6:	00 
    1cd7:	48 c7 45 d0 00 00 00 	mov    QWORD PTR [rbp-0x30],0x0
    1cde:	00 
    1cdf:	48 c7 45 d8 00 00 00 	mov    QWORD PTR [rbp-0x28],0x0
    1ce6:	00 
    1ce7:	48 8d 55 d8          	lea    rdx,[rbp-0x28]
    1ceb:	48 8d 45 d0          	lea    rax,[rbp-0x30]
    1cef:	48 89 c6             	mov    rsi,rax
    1cf2:	48 8d 3d 07 e3 ff ff 	lea    rdi,[rip+0xffffffffffffe307]        # 0 <enclave.so>
    1cf9:	e8 df 27 00 00       	call   44dd <elf_tls_info>
    1cfe:	85 c0                	test   eax,eax
    1d00:	0f 95 c0             	setne  al
    1d03:	84 c0                	test   al,al
    1d05:	74 0a                	je     1d11 <do_init_thread+0x1b7>
    1d07:	b8 01 00 00 00       	mov    eax,0x1
    1d0c:	e9 83 00 00 00       	jmp    1d94 <do_init_thread+0x23a>
    1d11:	48 8b 45 d0          	mov    rax,QWORD PTR [rbp-0x30]
    1d15:	48 85 c0             	test   rax,rax
    1d18:	74 75                	je     1d8f <do_init_thread+0x235>
    1d1a:	48 8b 45 e0          	mov    rax,QWORD PTR [rbp-0x20]
    1d1e:	48 8b 10             	mov    rdx,QWORD PTR [rax]
    1d21:	48 8b 45 e0          	mov    rax,QWORD PTR [rbp-0x20]
    1d25:	48 8b 40 50          	mov    rax,QWORD PTR [rax+0x50]
    1d29:	48 29 c2             	sub    rdx,rax
    1d2c:	48 89 d0             	mov    rax,rdx
    1d2f:	48 05 ff 0f 00 00    	add    rax,0xfff
    1d35:	48 25 00 f0 ff ff    	and    rax,0xfffffffffffff000
    1d3b:	48 89 c2             	mov    rdx,rax
    1d3e:	48 8b 45 e0          	mov    rax,QWORD PTR [rbp-0x20]
    1d42:	48 8b 40 50          	mov    rax,QWORD PTR [rax+0x50]
    1d46:	48 25 00 f0 ff ff    	and    rax,0xfffffffffffff000
    1d4c:	be 00 00 00 00       	mov    esi,0x0
    1d51:	48 89 c7             	mov    rdi,rax
    1d54:	e8 9d 8a 00 00       	call   a7f6 <memset>
    1d59:	48 8b 45 d8          	mov    rax,QWORD PTR [rbp-0x28]
    1d5d:	48 8b 55 d0          	mov    rdx,QWORD PTR [rbp-0x30]
    1d61:	49 89 d0             	mov    r8,rdx
    1d64:	48 8b 55 e0          	mov    rdx,QWORD PTR [rbp-0x20]
    1d68:	48 8b 0a             	mov    rcx,QWORD PTR [rdx]
    1d6b:	48 8b 55 e0          	mov    rdx,QWORD PTR [rbp-0x20]
    1d6f:	48 8b 52 50          	mov    rdx,QWORD PTR [rdx+0x50]
    1d73:	48 29 d1             	sub    rcx,rdx
    1d76:	48 89 ce             	mov    rsi,rcx
    1d79:	48 8b 55 e0          	mov    rdx,QWORD PTR [rbp-0x20]
    1d7d:	48 8b 52 50          	mov    rdx,QWORD PTR [rdx+0x50]
    1d81:	48 89 d7             	mov    rdi,rdx
    1d84:	48 89 c1             	mov    rcx,rax
    1d87:	4c 89 c2             	mov    rdx,r8
    1d8a:	e8 a3 f8 ff ff       	call   1632 <memcpy_s>
    1d8f:	b8 00 00 00 00       	mov    eax,0x0
    1d94:	48 8b 4d f8          	mov    rcx,QWORD PTR [rbp-0x8]
    1d98:	64 48 33 0c 25 28 00 	xor    rcx,QWORD PTR fs:0x28
    1d9f:	00 00 
    1da1:	74 05                	je     1da8 <do_init_thread+0x24e>
    1da3:	e8 3a 2d 00 00       	call   4ae2 <__stack_chk_fail>
    1da8:	c9                   	leave  
    1da9:	c3                   	ret    

0000000000001daa <do_ecall>:
    1daa:	55                   	push   rbp
    1dab:	48 89 e5             	mov    rbp,rsp
    1dae:	48 83 ec 30          	sub    rsp,0x30
    1db2:	89 7d ec             	mov    DWORD PTR [rbp-0x14],edi
    1db5:	48 89 75 e0          	mov    QWORD PTR [rbp-0x20],rsi
    1db9:	48 89 55 d8          	mov    QWORD PTR [rbp-0x28],rdx
    1dbd:	c7 45 f4 01 00 00 00 	mov    DWORD PTR [rbp-0xc],0x1
    1dc4:	e8 27 e5 01 00       	call   202f0 <get_enclave_state>
    1dc9:	83 f8 02             	cmp    eax,0x2
    1dcc:	0f 95 c0             	setne  al
    1dcf:	84 c0                	test   al,al
    1dd1:	74 08                	je     1ddb <do_ecall+0x31>
    1dd3:	8b 45 f4             	mov    eax,DWORD PTR [rbp-0xc]
    1dd6:	e9 ae 00 00 00       	jmp    1e89 <do_ecall+0xdf>
    1ddb:	e8 43 e5 01 00       	call   20323 <get_thread_data>
    1de0:	48 89 45 f8          	mov    QWORD PTR [rbp-0x8],rax
    1de4:	48 83 7d f8 00       	cmp    QWORD PTR [rbp-0x8],0x0
    1de9:	74 21                	je     1e0c <do_ecall+0x62>
    1deb:	48 8b 45 f8          	mov    rax,QWORD PTR [rbp-0x8]
    1def:	48 8b 50 10          	mov    rdx,QWORD PTR [rax+0x10]
    1df3:	48 8b 45 f8          	mov    rax,QWORD PTR [rbp-0x8]
    1df7:	48 8b 40 08          	mov    rax,QWORD PTR [rax+0x8]
    1dfb:	48 39 c2             	cmp    rdx,rax
    1dfe:	75 13                	jne    1e13 <do_ecall+0x69>
    1e00:	48 8b 05 d1 4d 22 00 	mov    rax,QWORD PTR [rip+0x224dd1]        # 226bd8 <g_global_data+0x18>
    1e07:	48 85 c0             	test   rax,rax
    1e0a:	74 07                	je     1e13 <do_ecall+0x69>
    1e0c:	b8 01 00 00 00       	mov    eax,0x1
    1e11:	eb 05                	jmp    1e18 <do_ecall+0x6e>
    1e13:	b8 00 00 00 00       	mov    eax,0x0
    1e18:	84 c0                	test   al,al
    1e1a:	74 1f                	je     1e3b <do_ecall+0x91>
    1e1c:	48 8b 45 d8          	mov    rax,QWORD PTR [rbp-0x28]
    1e20:	be 00 00 00 00       	mov    esi,0x0
    1e25:	48 89 c7             	mov    rdi,rax
    1e28:	e8 2d fd ff ff       	call   1b5a <do_init_thread>
    1e2d:	89 45 f4             	mov    DWORD PTR [rbp-0xc],eax
    1e30:	83 7d f4 00          	cmp    DWORD PTR [rbp-0xc],0x0
    1e34:	74 05                	je     1e3b <do_ecall+0x91>
    1e36:	8b 45 f4             	mov    eax,DWORD PTR [rbp-0xc]
    1e39:	eb 4e                	jmp    1e89 <do_ecall+0xdf>
    1e3b:	e8 e3 e4 01 00       	call   20323 <get_thread_data>
    1e40:	48 89 45 f8          	mov    QWORD PTR [rbp-0x8],rax
    1e44:	48 8b 45 f8          	mov    rax,QWORD PTR [rbp-0x8]
    1e48:	48 8b 50 10          	mov    rdx,QWORD PTR [rax+0x10]
    1e4c:	48 8b 45 f8          	mov    rax,QWORD PTR [rbp-0x8]
    1e50:	48 8b 40 08          	mov    rax,QWORD PTR [rax+0x8]
    1e54:	48 39 c2             	cmp    rdx,rax
    1e57:	75 19                	jne    1e72 <do_ecall+0xc8>
    1e59:	48 8d 55 e0          	lea    rdx,[rbp-0x20]
    1e5d:	48 8d 45 ec          	lea    rax,[rbp-0x14]
    1e61:	48 89 c6             	mov    rsi,rax
    1e64:	48 8d 3d e5 fb ff ff 	lea    rdi,[rip+0xfffffffffffffbe5]        # 1a50 <_ZL10trts_ecalljPv>
    1e6b:	e8 ee 01 00 00       	call   205e <_Z20random_stack_advanceILj2048E9_status_tJjPvEJRiRS1_EET0_PFS4_DpT1_EDpOT2_>
    1e70:	eb 11                	jmp    1e83 <do_ecall+0xd9>
    1e72:	48 8b 45 e0          	mov    rax,QWORD PTR [rbp-0x20]
    1e76:	8b 55 ec             	mov    edx,DWORD PTR [rbp-0x14]
    1e79:	48 89 c6             	mov    rsi,rax
    1e7c:	89 d7                	mov    edi,edx
    1e7e:	e8 cd fb ff ff       	call   1a50 <_ZL10trts_ecalljPv>
    1e83:	89 45 f4             	mov    DWORD PTR [rbp-0xc],eax
    1e86:	8b 45 f4             	mov    eax,DWORD PTR [rbp-0xc]
    1e89:	c9                   	leave  
    1e8a:	c3                   	ret    

0000000000001e8b <do_ecall_add_thread>:
    1e8b:	55                   	push   rbp
    1e8c:	48 89 e5             	mov    rbp,rsp
    1e8f:	48 83 ec 30          	sub    rsp,0x30
    1e93:	48 89 7d d8          	mov    QWORD PTR [rbp-0x28],rdi
    1e97:	c7 45 e4 01 00 00 00 	mov    DWORD PTR [rbp-0x1c],0x1
    1e9e:	e8 a0 f9 ff ff       	call   1843 <_ZL17is_utility_threadv>
    1ea3:	83 f0 01             	xor    eax,0x1
    1ea6:	84 c0                	test   al,al
    1ea8:	74 08                	je     1eb2 <do_ecall_add_thread+0x27>
    1eaa:	8b 45 e4             	mov    eax,DWORD PTR [rbp-0x1c]
    1ead:	e9 9b 00 00 00       	jmp    1f4d <do_ecall_add_thread+0xc2>
    1eb2:	48 8b 45 d8          	mov    rax,QWORD PTR [rbp-0x28]
    1eb6:	48 89 45 f0          	mov    QWORD PTR [rbp-0x10],rax
    1eba:	48 83 7d f0 00       	cmp    QWORD PTR [rbp-0x10],0x0
    1ebf:	75 08                	jne    1ec9 <do_ecall_add_thread+0x3e>
    1ec1:	8b 45 e4             	mov    eax,DWORD PTR [rbp-0x1c]
    1ec4:	e9 84 00 00 00       	jmp    1f4d <do_ecall_add_thread+0xc2>
    1ec9:	48 8b 45 f0          	mov    rax,QWORD PTR [rbp-0x10]
    1ecd:	be 08 00 00 00       	mov    esi,0x8
    1ed2:	48 89 c7             	mov    rdi,rax
    1ed5:	e8 4a f3 ff ff       	call   1224 <sgx_is_outside_enclave>
    1eda:	85 c0                	test   eax,eax
    1edc:	0f 94 c0             	sete   al
    1edf:	84 c0                	test   al,al
    1ee1:	74 05                	je     1ee8 <do_ecall_add_thread+0x5d>
    1ee3:	8b 45 e4             	mov    eax,DWORD PTR [rbp-0x1c]
    1ee6:	eb 65                	jmp    1f4d <do_ecall_add_thread+0xc2>
    1ee8:	48 8b 45 f0          	mov    rax,QWORD PTR [rbp-0x10]
    1eec:	48 8b 00             	mov    rax,QWORD PTR [rax]
    1eef:	48 89 45 e8          	mov    QWORD PTR [rbp-0x18],rax
    1ef3:	48 8b 45 e8          	mov    rax,QWORD PTR [rbp-0x18]
    1ef7:	48 89 45 f8          	mov    QWORD PTR [rbp-0x8],rax
    1efb:	48 83 7d f8 00       	cmp    QWORD PTR [rbp-0x8],0x0
    1f00:	75 05                	jne    1f07 <do_ecall_add_thread+0x7c>
    1f02:	8b 45 e4             	mov    eax,DWORD PTR [rbp-0x1c]
    1f05:	eb 46                	jmp    1f4d <do_ecall_add_thread+0xc2>
    1f07:	0f ae e8             	lfence 
    1f0a:	48 8b 45 f8          	mov    rax,QWORD PTR [rbp-0x8]
    1f0e:	48 89 c7             	mov    rdi,rax
    1f11:	e8 63 f9 ff ff       	call   1879 <_ZL11do_save_tcsPv>
    1f16:	89 45 e4             	mov    DWORD PTR [rbp-0x1c],eax
    1f19:	83 7d e4 00          	cmp    DWORD PTR [rbp-0x1c],0x0
    1f1d:	74 05                	je     1f24 <do_ecall_add_thread+0x99>
    1f1f:	8b 45 e4             	mov    eax,DWORD PTR [rbp-0x1c]
    1f22:	eb 29                	jmp    1f4d <do_ecall_add_thread+0xc2>
    1f24:	48 8b 45 f8          	mov    rax,QWORD PTR [rbp-0x8]
    1f28:	48 89 c7             	mov    rdi,rax
    1f2b:	e8 6e 10 00 00       	call   2f9e <do_add_thread>
    1f30:	89 45 e4             	mov    DWORD PTR [rbp-0x1c],eax
    1f33:	83 7d e4 00          	cmp    DWORD PTR [rbp-0x1c],0x0
    1f37:	74 11                	je     1f4a <do_ecall_add_thread+0xbf>
    1f39:	48 8b 45 f8          	mov    rax,QWORD PTR [rbp-0x8]
    1f3d:	48 89 c7             	mov    rdi,rax
    1f40:	e8 2b fa ff ff       	call   1970 <_ZL10do_del_tcsPv>
    1f45:	8b 45 e4             	mov    eax,DWORD PTR [rbp-0x1c]
    1f48:	eb 03                	jmp    1f4d <do_ecall_add_thread+0xc2>
    1f4a:	8b 45 e4             	mov    eax,DWORD PTR [rbp-0x1c]
    1f4d:	c9                   	leave  
    1f4e:	c3                   	ret    

0000000000001f4f <do_uninit_enclave>:
    1f4f:	55                   	push   rbp
    1f50:	48 89 e5             	mov    rbp,rsp
    1f53:	48 83 ec 40          	sub    rsp,0x40
    1f57:	48 89 7d c8          	mov    QWORD PTR [rbp-0x38],rdi
    1f5b:	48 8b 05 c6 54 22 00 	mov    rax,QWORD PTR [rip+0x2254c6]        # 227428 <_ZL10g_tcs_node>
    1f62:	48 89 45 d8          	mov    QWORD PTR [rbp-0x28],rax
    1f66:	48 c7 05 b7 54 22 00 	mov    QWORD PTR [rip+0x2254b7],0x0        # 227428 <_ZL10g_tcs_node>
    1f6d:	00 00 00 00 
    1f71:	48 83 7d d8 00       	cmp    QWORD PTR [rbp-0x28],0x0
    1f76:	0f 84 a6 00 00 00    	je     2022 <do_uninit_enclave+0xd3>
    1f7c:	48 8b 45 d8          	mov    rax,QWORD PTR [rbp-0x28]
    1f80:	48 8b 10             	mov    rdx,QWORD PTR [rax]
    1f83:	48 8b 05 a6 54 22 00 	mov    rax,QWORD PTR [rip+0x2254a6]        # 227430 <_ZL12g_tcs_cookie>
    1f8a:	48 31 d0             	xor    rax,rdx
    1f8d:	48 39 45 c8          	cmp    QWORD PTR [rbp-0x38],rax
    1f91:	75 22                	jne    1fb5 <do_uninit_enclave+0x66>
    1f93:	48 8b 45 d8          	mov    rax,QWORD PTR [rbp-0x28]
    1f97:	48 89 45 f8          	mov    QWORD PTR [rbp-0x8],rax
    1f9b:	48 8b 45 d8          	mov    rax,QWORD PTR [rbp-0x28]
    1f9f:	48 8b 40 08          	mov    rax,QWORD PTR [rax+0x8]
    1fa3:	48 89 45 d8          	mov    QWORD PTR [rbp-0x28],rax
    1fa7:	48 8b 45 f8          	mov    rax,QWORD PTR [rbp-0x8]
    1fab:	48 89 c7             	mov    rdi,rax
    1fae:	e8 15 71 00 00       	call   90c8 <dlfree>
    1fb3:	eb 68                	jmp    201d <do_uninit_enclave+0xce>
    1fb5:	48 8b 45 d8          	mov    rax,QWORD PTR [rbp-0x28]
    1fb9:	48 8b 10             	mov    rdx,QWORD PTR [rax]
    1fbc:	48 8b 05 6d 54 22 00 	mov    rax,QWORD PTR [rip+0x22546d]        # 227430 <_ZL12g_tcs_cookie>
    1fc3:	48 31 d0             	xor    rax,rdx
    1fc6:	48 89 45 e0          	mov    QWORD PTR [rbp-0x20],rax
    1fca:	48 8b 45 e0          	mov    rax,QWORD PTR [rbp-0x20]
    1fce:	48 05 00 10 00 00    	add    rax,0x1000
    1fd4:	48 89 45 e8          	mov    QWORD PTR [rbp-0x18],rax
    1fd8:	48 8b 55 e8          	mov    rdx,QWORD PTR [rbp-0x18]
    1fdc:	48 8b 45 e0          	mov    rax,QWORD PTR [rbp-0x20]
    1fe0:	48 89 c6             	mov    rsi,rax
    1fe3:	bf 10 04 00 00       	mov    edi,0x410
    1fe8:	e8 61 0f 00 00       	call   2f4e <sgx_accept_forward>
    1fed:	89 45 d4             	mov    DWORD PTR [rbp-0x2c],eax
    1ff0:	83 7d d4 00          	cmp    DWORD PTR [rbp-0x2c],0x0
    1ff4:	74 07                	je     1ffd <do_uninit_enclave+0xae>
    1ff6:	b8 01 00 00 00       	mov    eax,0x1
    1ffb:	eb 5f                	jmp    205c <do_uninit_enclave+0x10d>
    1ffd:	48 8b 45 d8          	mov    rax,QWORD PTR [rbp-0x28]
    2001:	48 89 45 f0          	mov    QWORD PTR [rbp-0x10],rax
    2005:	48 8b 45 d8          	mov    rax,QWORD PTR [rbp-0x28]
    2009:	48 8b 40 08          	mov    rax,QWORD PTR [rax+0x8]
    200d:	48 89 45 d8          	mov    QWORD PTR [rbp-0x28],rax
    2011:	48 8b 45 f0          	mov    rax,QWORD PTR [rbp-0x10]
    2015:	48 89 c7             	mov    rdi,rax
    2018:	e8 ab 70 00 00       	call   90c8 <dlfree>
    201d:	e9 4f ff ff ff       	jmp    1f71 <do_uninit_enclave+0x22>
    2022:	48 8d 3d 0f 54 22 00 	lea    rdi,[rip+0x22540f]        # 227438 <_ZL10g_ife_lock>
    2029:	e8 2a 8e 00 00       	call   ae58 <sgx_spin_lock>
    202e:	0f b6 05 eb 3f 22 00 	movzx  eax,BYTE PTR [rip+0x223feb]        # 226020 <_ZL16g_is_first_ecall>
    2035:	83 f0 01             	xor    eax,0x1
    2038:	84 c0                	test   al,al
    203a:	74 05                	je     2041 <do_uninit_enclave+0xf2>
    203c:	e8 90 2a 00 00       	call   4ad1 <uninit_global_object>
    2041:	48 8d 3d f0 53 22 00 	lea    rdi,[rip+0x2253f0]        # 227438 <_ZL10g_ife_lock>
    2048:	e8 72 8e 00 00       	call   aebf <sgx_spin_unlock>
    204d:	bf 03 00 00 00       	mov    edi,0x3
    2052:	e8 a6 e2 01 00       	call   202fd <set_enclave_state>
    2057:	b8 00 00 00 00       	mov    eax,0x0
    205c:	c9                   	leave  
    205d:	c3                   	ret    

000000000000205e <_Z20random_stack_advanceILj2048E9_status_tJjPvEJRiRS1_EET0_PFS4_DpT1_EDpOT2_>:
    205e:	55                   	push   rbp
    205f:	48 89 e5             	mov    rbp,rsp
    2062:	41 57                	push   r15
    2064:	41 56                	push   r14
    2066:	41 55                	push   r13
    2068:	41 54                	push   r12
    206a:	53                   	push   rbx
    206b:	48 83 ec 58          	sub    rsp,0x58
    206f:	48 89 7d 98          	mov    QWORD PTR [rbp-0x68],rdi
    2073:	48 89 75 90          	mov    QWORD PTR [rbp-0x70],rsi
    2077:	48 89 55 88          	mov    QWORD PTR [rbp-0x78],rdx
    207b:	64 48 8b 04 25 28 00 	mov    rax,QWORD PTR fs:0x28
    2082:	00 00 
    2084:	48 89 45 c8          	mov    QWORD PTR [rbp-0x38],rax
    2088:	31 c0                	xor    eax,eax
    208a:	48 89 e0             	mov    rax,rsp
    208d:	48 89 c3             	mov    rbx,rax
    2090:	e8 ce 00 00 00       	call   2163 <_Z6rdrandIjET_v>
    2095:	25 ff 07 00 00       	and    eax,0x7ff
    209a:	83 c0 01             	add    eax,0x1
    209d:	89 45 a4             	mov    DWORD PTR [rbp-0x5c],eax
    20a0:	8b 45 a4             	mov    eax,DWORD PTR [rbp-0x5c]
    20a3:	48 83 e8 01          	sub    rax,0x1
    20a7:	48 89 45 a8          	mov    QWORD PTR [rbp-0x58],rax
    20ab:	48 89 c2             	mov    rdx,rax
    20ae:	48 83 c2 01          	add    rdx,0x1
    20b2:	49 89 d6             	mov    r14,rdx
    20b5:	41 bf 00 00 00 00    	mov    r15d,0x0
    20bb:	48 89 c2             	mov    rdx,rax
    20be:	48 83 c2 01          	add    rdx,0x1
    20c2:	49 89 d4             	mov    r12,rdx
    20c5:	41 bd 00 00 00 00    	mov    r13d,0x0
    20cb:	48 8d 50 01          	lea    rdx,[rax+0x1]
    20cf:	b8 10 00 00 00       	mov    eax,0x10
    20d4:	48 83 e8 01          	sub    rax,0x1
    20d8:	48 01 d0             	add    rax,rdx
    20db:	b9 10 00 00 00       	mov    ecx,0x10
    20e0:	ba 00 00 00 00       	mov    edx,0x0
    20e5:	48 f7 f1             	div    rcx
    20e8:	48 6b c0 10          	imul   rax,rax,0x10
    20ec:	48 29 c4             	sub    rsp,rax
    20ef:	48 89 e0             	mov    rax,rsp
    20f2:	48 83 c0 00          	add    rax,0x0
    20f6:	48 89 45 b0          	mov    QWORD PTR [rbp-0x50],rax
    20fa:	8b 05 48 3d 22 00    	mov    eax,DWORD PTR [rip+0x223d48]        # 225e48 <EDMM_supported>
    2100:	85 c0                	test   eax,eax
    2102:	75 12                	jne    2116 <_Z20random_stack_advanceILj2048E9_status_tJjPvEJRiRS1_EET0_PFS4_DpT1_EDpOT2_+0xb8>
    2104:	8b 55 a4             	mov    edx,DWORD PTR [rbp-0x5c]
    2107:	48 8b 45 b0          	mov    rax,QWORD PTR [rbp-0x50]
    210b:	48 89 d6             	mov    rsi,rdx
    210e:	48 89 c7             	mov    rdi,rax
    2111:	e8 0d f5 ff ff       	call   1623 <random_stack_notify_gdb>
    2116:	48 8b 45 88          	mov    rax,QWORD PTR [rbp-0x78]
    211a:	48 89 45 c0          	mov    QWORD PTR [rbp-0x40],rax
    211e:	48 8b 55 c0          	mov    rdx,QWORD PTR [rbp-0x40]
    2122:	48 8b 45 90          	mov    rax,QWORD PTR [rbp-0x70]
    2126:	48 89 45 b8          	mov    QWORD PTR [rbp-0x48],rax
    212a:	48 8b 4d b8          	mov    rcx,QWORD PTR [rbp-0x48]
    212e:	48 8b 45 98          	mov    rax,QWORD PTR [rbp-0x68]
    2132:	48 89 ce             	mov    rsi,rcx
    2135:	48 89 c7             	mov    rdi,rax
    2138:	e8 35 00 00 00       	call   2172 <_Z30_random_stack_noinline_wrapperI9_status_tJjPvEJRiRS1_EET_PFS4_DpT0_EDpOT1_>
    213d:	48 89 dc             	mov    rsp,rbx
    2140:	48 8b 4d c8          	mov    rcx,QWORD PTR [rbp-0x38]
    2144:	64 48 33 0c 25 28 00 	xor    rcx,QWORD PTR fs:0x28
    214b:	00 00 
    214d:	74 05                	je     2154 <_Z20random_stack_advanceILj2048E9_status_tJjPvEJRiRS1_EET0_PFS4_DpT1_EDpOT2_+0xf6>
    214f:	e8 8e 29 00 00       	call   4ae2 <__stack_chk_fail>
    2154:	48 8d 65 d8          	lea    rsp,[rbp-0x28]
    2158:	5b                   	pop    rbx
    2159:	41 5c                	pop    r12
    215b:	41 5d                	pop    r13
    215d:	41 5e                	pop    r14
    215f:	41 5f                	pop    r15
    2161:	5d                   	pop    rbp
    2162:	c3                   	ret    

0000000000002163 <_Z6rdrandIjET_v>:
    2163:	55                   	push   rbp
    2164:	48 89 e5             	mov    rbp,rsp
    2167:	0f c7 f0             	rdrand eax
    216a:	89 45 fc             	mov    DWORD PTR [rbp-0x4],eax
    216d:	8b 45 fc             	mov    eax,DWORD PTR [rbp-0x4]
    2170:	5d                   	pop    rbp
    2171:	c3                   	ret    

0000000000002172 <_Z30_random_stack_noinline_wrapperI9_status_tJjPvEJRiRS1_EET_PFS4_DpT0_EDpOT1_>:
    2172:	55                   	push   rbp
    2173:	48 89 e5             	mov    rbp,rsp
    2176:	48 83 ec 30          	sub    rsp,0x30
    217a:	48 89 7d e8          	mov    QWORD PTR [rbp-0x18],rdi
    217e:	48 89 75 e0          	mov    QWORD PTR [rbp-0x20],rsi
    2182:	48 89 55 d8          	mov    QWORD PTR [rbp-0x28],rdx
    2186:	48 8b 45 d8          	mov    rax,QWORD PTR [rbp-0x28]
    218a:	48 89 45 f8          	mov    QWORD PTR [rbp-0x8],rax
    218e:	48 8b 45 f8          	mov    rax,QWORD PTR [rbp-0x8]
    2192:	48 8b 10             	mov    rdx,QWORD PTR [rax]
    2195:	48 8b 45 e0          	mov    rax,QWORD PTR [rbp-0x20]
    2199:	48 89 45 f0          	mov    QWORD PTR [rbp-0x10],rax
    219d:	48 8b 45 f0          	mov    rax,QWORD PTR [rbp-0x10]
    21a1:	8b 00                	mov    eax,DWORD PTR [rax]
    21a3:	89 c1                	mov    ecx,eax
    21a5:	48 8b 45 e8          	mov    rax,QWORD PTR [rbp-0x18]
    21a9:	48 89 d6             	mov    rsi,rdx
    21ac:	89 cf                	mov    edi,ecx
    21ae:	ff d0                	call   rax
    21b0:	c9                   	leave  
    21b1:	c3                   	ret    

00000000000021b2 <sgx_ocall>:
    21b2:	55                   	push   rbp
    21b3:	48 89 e5             	mov    rbp,rsp
    21b6:	48 83 ec 20          	sub    rsp,0x20
    21ba:	89 7d ec             	mov    DWORD PTR [rbp-0x14],edi
    21bd:	48 89 75 e0          	mov    QWORD PTR [rbp-0x20],rsi
    21c1:	e8 5d e1 01 00       	call   20323 <get_thread_data>
    21c6:	48 89 45 f8          	mov    QWORD PTR [rbp-0x8],rax
    21ca:	48 8b 45 f8          	mov    rax,QWORD PTR [rbp-0x8]
    21ce:	48 8b 40 60          	mov    rax,QWORD PTR [rax+0x60]
    21d2:	48 85 c0             	test   rax,rax
    21d5:	74 07                	je     21de <sgx_ocall+0x2c>
    21d7:	b8 08 10 00 00       	mov    eax,0x1008
    21dc:	eb 43                	jmp    2221 <sgx_ocall+0x6f>
    21de:	83 7d ec 00          	cmp    DWORD PTR [rbp-0x14],0x0
    21e2:	74 26                	je     220a <sgx_ocall+0x58>
    21e4:	8b 45 ec             	mov    eax,DWORD PTR [rbp-0x14]
    21e7:	83 f8 fb             	cmp    eax,0xfffffffb
    21ea:	7c 08                	jl     21f4 <sgx_ocall+0x42>
    21ec:	8b 45 ec             	mov    eax,DWORD PTR [rbp-0x14]
    21ef:	83 f8 ff             	cmp    eax,0xffffffff
    21f2:	7c 16                	jl     220a <sgx_ocall+0x58>
    21f4:	8b 55 ec             	mov    edx,DWORD PTR [rbp-0x14]
    21f7:	48 8b 05 02 e6 01 00 	mov    rax,QWORD PTR [rip+0x1e602]        # 20800 <g_dyn_entry_table>
    21fe:	48 39 c2             	cmp    rdx,rax
    2201:	72 07                	jb     220a <sgx_ocall+0x58>
    2203:	b8 01 10 00 00       	mov    eax,0x1001
    2208:	eb 17                	jmp    2221 <sgx_ocall+0x6f>
    220a:	48 8b 55 e0          	mov    rdx,QWORD PTR [rbp-0x20]
    220e:	8b 45 ec             	mov    eax,DWORD PTR [rbp-0x14]
    2211:	48 89 d6             	mov    rsi,rdx
    2214:	89 c7                	mov    edi,eax
    2216:	e8 69 e3 01 00       	call   20584 <__morestack>
    221b:	89 45 f4             	mov    DWORD PTR [rbp-0xc],eax
    221e:	8b 45 f4             	mov    eax,DWORD PTR [rbp-0xc]
    2221:	c9                   	leave  
    2222:	c3                   	ret    

0000000000002223 <update_ocall_lastsp>:
    2223:	55                   	push   rbp
    2224:	48 89 e5             	mov    rbp,rsp
    2227:	48 83 ec 30          	sub    rsp,0x30
    222b:	48 89 7d d8          	mov    QWORD PTR [rbp-0x28],rdi
    222f:	e8 ef e0 01 00       	call   20323 <get_thread_data>
    2234:	48 89 45 e8          	mov    QWORD PTR [rbp-0x18],rax
    2238:	48 c7 45 f0 00 00 00 	mov    QWORD PTR [rbp-0x10],0x0
    223f:	00 
    2240:	48 8b 45 e8          	mov    rax,QWORD PTR [rbp-0x18]
    2244:	48 8b 40 08          	mov    rax,QWORD PTR [rax+0x8]
    2248:	48 89 45 f0          	mov    QWORD PTR [rbp-0x10],rax
    224c:	48 8b 45 d8          	mov    rax,QWORD PTR [rbp-0x28]
    2250:	48 8b 55 f0          	mov    rdx,QWORD PTR [rbp-0x10]
    2254:	48 89 50 30          	mov    QWORD PTR [rax+0x30],rdx
    2258:	48 8b 45 d8          	mov    rax,QWORD PTR [rbp-0x28]
    225c:	48 8b 50 30          	mov    rdx,QWORD PTR [rax+0x30]
    2260:	48 8b 45 e8          	mov    rax,QWORD PTR [rbp-0x18]
    2264:	48 8b 40 10          	mov    rax,QWORD PTR [rax+0x10]
    2268:	48 39 c2             	cmp    rdx,rax
    226b:	75 11                	jne    227e <update_ocall_lastsp+0x5b>
    226d:	48 8b 45 d8          	mov    rax,QWORD PTR [rbp-0x28]
    2271:	48 c7 80 90 00 00 00 	mov    QWORD PTR [rax+0x90],0x1
    2278:	01 00 00 00 
    227c:	eb 26                	jmp    22a4 <update_ocall_lastsp+0x81>
    227e:	48 8b 45 d8          	mov    rax,QWORD PTR [rbp-0x28]
    2282:	48 8b 40 30          	mov    rax,QWORD PTR [rax+0x30]
    2286:	48 89 45 f8          	mov    QWORD PTR [rbp-0x8],rax
    228a:	48 8b 45 f8          	mov    rax,QWORD PTR [rbp-0x8]
    228e:	48 8b 80 90 00 00 00 	mov    rax,QWORD PTR [rax+0x90]
    2295:	48 8d 50 01          	lea    rdx,[rax+0x1]
    2299:	48 8b 45 d8          	mov    rax,QWORD PTR [rbp-0x28]
    229d:	48 89 90 90 00 00 00 	mov    QWORD PTR [rax+0x90],rdx
    22a4:	48 8b 55 d8          	mov    rdx,QWORD PTR [rbp-0x28]
    22a8:	48 8b 45 e8          	mov    rax,QWORD PTR [rbp-0x18]
    22ac:	48 89 50 08          	mov    QWORD PTR [rax+0x8],rdx
    22b0:	48 8b 45 f0          	mov    rax,QWORD PTR [rbp-0x10]
    22b4:	c9                   	leave  
    22b5:	c3                   	ret    

00000000000022b6 <do_oret>:
    22b6:	55                   	push   rbp
    22b7:	48 89 e5             	mov    rbp,rsp
    22ba:	48 83 ec 30          	sub    rsp,0x30
    22be:	48 89 7d d8          	mov    QWORD PTR [rbp-0x28],rdi
    22c2:	64 48 8b 04 25 28 00 	mov    rax,QWORD PTR fs:0x28
    22c9:	00 00 
    22cb:	48 89 45 f8          	mov    QWORD PTR [rbp-0x8],rax
    22cf:	31 c0                	xor    eax,eax
    22d1:	e8 4d e0 01 00       	call   20323 <get_thread_data>
    22d6:	48 89 45 e8          	mov    QWORD PTR [rbp-0x18],rax
    22da:	48 8b 45 e8          	mov    rax,QWORD PTR [rbp-0x18]
    22de:	48 8b 40 08          	mov    rax,QWORD PTR [rax+0x8]
    22e2:	48 89 45 f0          	mov    QWORD PTR [rbp-0x10],rax
    22e6:	48 8b 45 e8          	mov    rax,QWORD PTR [rbp-0x18]
    22ea:	48 8b 40 08          	mov    rax,QWORD PTR [rax+0x8]
    22ee:	48 89 45 e0          	mov    QWORD PTR [rbp-0x20],rax
    22f2:	48 83 7d f0 00       	cmp    QWORD PTR [rbp-0x10],0x0
    22f7:	74 0a                	je     2303 <do_oret+0x4d>
    22f9:	48 8d 45 e0          	lea    rax,[rbp-0x20]
    22fd:	48 39 45 f0          	cmp    QWORD PTR [rbp-0x10],rax
    2301:	77 0a                	ja     230d <do_oret+0x57>
    2303:	b8 01 00 00 00       	mov    eax,0x1
    2308:	e9 87 00 00 00       	jmp    2394 <do_oret+0xde>
    230d:	48 8b 45 e8          	mov    rax,QWORD PTR [rbp-0x18]
    2311:	48 8b 40 10          	mov    rax,QWORD PTR [rax+0x10]
    2315:	48 2d f0 00 00 00    	sub    rax,0xf0
    231b:	48 39 45 f0          	cmp    QWORD PTR [rbp-0x10],rax
    231f:	76 07                	jbe    2328 <do_oret+0x72>
    2321:	b8 01 00 00 00       	mov    eax,0x1
    2326:	eb 6c                	jmp    2394 <do_oret+0xde>
    2328:	48 8b 45 e0          	mov    rax,QWORD PTR [rbp-0x20]
    232c:	48 8b 40 20          	mov    rax,QWORD PTR [rax+0x20]
    2330:	48 3d 44 49 43 4f    	cmp    rax,0x4f434944
    2336:	74 07                	je     233f <do_oret+0x89>
    2338:	b8 01 00 00 00       	mov    eax,0x1
    233d:	eb 55                	jmp    2394 <do_oret+0xde>
    233f:	48 8b 45 e0          	mov    rax,QWORD PTR [rbp-0x20]
    2343:	48 8b 50 30          	mov    rdx,QWORD PTR [rax+0x30]
    2347:	48 8b 45 e8          	mov    rax,QWORD PTR [rbp-0x18]
    234b:	48 8b 40 10          	mov    rax,QWORD PTR [rax+0x10]
    234f:	48 39 c2             	cmp    rdx,rax
    2352:	77 11                	ja     2365 <do_oret+0xaf>
    2354:	48 8b 45 e0          	mov    rax,QWORD PTR [rbp-0x20]
    2358:	48 8b 40 30          	mov    rax,QWORD PTR [rax+0x30]
    235c:	48 8b 55 e0          	mov    rdx,QWORD PTR [rbp-0x20]
    2360:	48 39 d0             	cmp    rax,rdx
    2363:	77 07                	ja     236c <do_oret+0xb6>
    2365:	b8 01 00 00 00       	mov    eax,0x1
    236a:	eb 28                	jmp    2394 <do_oret+0xde>
    236c:	48 8b 45 e0          	mov    rax,QWORD PTR [rbp-0x20]
    2370:	48 8b 50 30          	mov    rdx,QWORD PTR [rax+0x30]
    2374:	48 8b 45 e8          	mov    rax,QWORD PTR [rbp-0x18]
    2378:	48 89 50 08          	mov    QWORD PTR [rax+0x8],rdx
    237c:	48 8b 55 d8          	mov    rdx,QWORD PTR [rbp-0x28]
    2380:	48 8b 45 f0          	mov    rax,QWORD PTR [rbp-0x10]
    2384:	48 89 d6             	mov    rsi,rdx
    2387:	48 89 c7             	mov    rdi,rax
    238a:	e8 04 e2 01 00       	call   20593 <asm_oret>
    238f:	b8 01 00 00 00       	mov    eax,0x1
    2394:	48 8b 4d f8          	mov    rcx,QWORD PTR [rbp-0x8]
    2398:	64 48 33 0c 25 28 00 	xor    rcx,QWORD PTR fs:0x28
    239f:	00 00 
    23a1:	74 05                	je     23a8 <do_oret+0xf2>
    23a3:	e8 3a 27 00 00       	call   4ae2 <__stack_chk_fail>
    23a8:	c9                   	leave  
    23a9:	c3                   	ret    

00000000000023aa <get_heap_base>:
    23aa:	55                   	push   rbp
    23ab:	48 89 e5             	mov    rbp,rsp
    23ae:	48 8b 15 13 48 22 00 	mov    rdx,QWORD PTR [rip+0x224813]        # 226bc8 <g_global_data+0x8>
    23b5:	48 8d 05 44 dc ff ff 	lea    rax,[rip+0xffffffffffffdc44]        # 0 <enclave.so>
    23bc:	48 01 d0             	add    rax,rdx
    23bf:	5d                   	pop    rbp
    23c0:	c3                   	ret    

00000000000023c1 <get_heap_size>:
    23c1:	55                   	push   rbp
    23c2:	48 89 e5             	mov    rbp,rsp
    23c5:	48 8b 05 04 48 22 00 	mov    rax,QWORD PTR [rip+0x224804]        # 226bd0 <g_global_data+0x10>
    23cc:	48 89 45 f8          	mov    QWORD PTR [rbp-0x8],rax
    23d0:	8b 05 72 3a 22 00    	mov    eax,DWORD PTR [rip+0x223a72]        # 225e48 <EDMM_supported>
    23d6:	85 c0                	test   eax,eax
    23d8:	74 5b                	je     2435 <get_heap_size+0x74>
    23da:	c7 45 f4 00 00 00 00 	mov    DWORD PTR [rbp-0xc],0x0
    23e1:	8b 05 e1 48 22 00    	mov    eax,DWORD PTR [rip+0x2248e1]        # 226cc8 <g_global_data+0x108>
    23e7:	39 45 f4             	cmp    DWORD PTR [rbp-0xc],eax
    23ea:	0f 92 c0             	setb   al
    23ed:	84 c0                	test   al,al
    23ef:	74 44                	je     2435 <get_heap_size+0x74>
    23f1:	8b 45 f4             	mov    eax,DWORD PTR [rbp-0xc]
    23f4:	48 c1 e0 05          	shl    rax,0x5
    23f8:	48 89 c2             	mov    rdx,rax
    23fb:	48 8d 05 ce 48 22 00 	lea    rax,[rip+0x2248ce]        # 226cd0 <g_global_data+0x110>
    2402:	0f b7 04 02          	movzx  eax,WORD PTR [rdx+rax*1]
    2406:	66 83 f8 03          	cmp    ax,0x3
    240a:	0f 94 c0             	sete   al
    240d:	84 c0                	test   al,al
    240f:	74 1e                	je     242f <get_heap_size+0x6e>
    2411:	8b 45 f4             	mov    eax,DWORD PTR [rbp-0xc]
    2414:	48 c1 e0 05          	shl    rax,0x5
    2418:	48 89 c2             	mov    rdx,rax
    241b:	48 8d 05 b2 48 22 00 	lea    rax,[rip+0x2248b2]        # 226cd4 <g_global_data+0x114>
    2422:	8b 04 02             	mov    eax,DWORD PTR [rdx+rax*1]
    2425:	89 c0                	mov    eax,eax
    2427:	48 c1 e0 0c          	shl    rax,0xc
    242b:	48 01 45 f8          	add    QWORD PTR [rbp-0x8],rax
    242f:	83 45 f4 01          	add    DWORD PTR [rbp-0xc],0x1
    2433:	eb ac                	jmp    23e1 <get_heap_size+0x20>
    2435:	48 8b 45 f8          	mov    rax,QWORD PTR [rbp-0x8]
    2439:	5d                   	pop    rbp
    243a:	c3                   	ret    

000000000000243b <get_heap_min_size>:
    243b:	55                   	push   rbp
    243c:	48 89 e5             	mov    rbp,rsp
    243f:	48 c7 45 f8 00 00 00 	mov    QWORD PTR [rbp-0x8],0x0
    2446:	00 
    2447:	c7 45 f4 00 00 00 00 	mov    DWORD PTR [rbp-0xc],0x0
    244e:	8b 05 74 48 22 00    	mov    eax,DWORD PTR [rip+0x224874]        # 226cc8 <g_global_data+0x108>
    2454:	39 45 f4             	cmp    DWORD PTR [rbp-0xc],eax
    2457:	0f 92 c0             	setb   al
    245a:	84 c0                	test   al,al
    245c:	74 46                	je     24a4 <get_heap_min_size+0x69>
    245e:	8b 45 f4             	mov    eax,DWORD PTR [rbp-0xc]
    2461:	48 c1 e0 05          	shl    rax,0x5
    2465:	48 89 c2             	mov    rdx,rax
    2468:	48 8d 05 61 48 22 00 	lea    rax,[rip+0x224861]        # 226cd0 <g_global_data+0x110>
    246f:	0f b7 04 02          	movzx  eax,WORD PTR [rdx+rax*1]
    2473:	66 83 f8 01          	cmp    ax,0x1
    2477:	0f 94 c0             	sete   al
    247a:	84 c0                	test   al,al
    247c:	74 20                	je     249e <get_heap_min_size+0x63>
    247e:	8b 45 f4             	mov    eax,DWORD PTR [rbp-0xc]
    2481:	48 c1 e0 05          	shl    rax,0x5
    2485:	48 89 c2             	mov    rdx,rax
    2488:	48 8d 05 45 48 22 00 	lea    rax,[rip+0x224845]        # 226cd4 <g_global_data+0x114>
    248f:	8b 04 02             	mov    eax,DWORD PTR [rdx+rax*1]
    2492:	89 c0                	mov    eax,eax
    2494:	48 c1 e0 0c          	shl    rax,0xc
    2498:	48 89 45 f8          	mov    QWORD PTR [rbp-0x8],rax
    249c:	eb 06                	jmp    24a4 <get_heap_min_size+0x69>
    249e:	83 45 f4 01          	add    DWORD PTR [rbp-0xc],0x1
    24a2:	eb aa                	jmp    244e <get_heap_min_size+0x13>
    24a4:	48 8b 45 f8          	mov    rax,QWORD PTR [rbp-0x8]
    24a8:	5d                   	pop    rbp
    24a9:	c3                   	ret    

00000000000024aa <get_errno_addr>:
    24aa:	55                   	push   rbp
    24ab:	48 89 e5             	mov    rbp,rsp
    24ae:	48 83 ec 10          	sub    rsp,0x10
    24b2:	e8 6c de 01 00       	call   20323 <get_thread_data>
    24b7:	48 89 45 f8          	mov    QWORD PTR [rbp-0x8],rax
    24bb:	48 8b 45 f8          	mov    rax,QWORD PTR [rbp-0x8]
    24bf:	48 83 c0 40          	add    rax,0x40
    24c3:	c9                   	leave  
    24c4:	c3                   	ret    

00000000000024c5 <feature_supported>:
    24c5:	55                   	push   rbp
    24c6:	48 89 e5             	mov    rbp,rsp
    24c9:	48 89 7d e8          	mov    QWORD PTR [rbp-0x18],rdi
    24cd:	89 75 e4             	mov    DWORD PTR [rbp-0x1c],esi
    24d0:	48 8b 45 e8          	mov    rax,QWORD PTR [rbp-0x18]
    24d4:	48 89 45 f8          	mov    QWORD PTR [rbp-0x8],rax
    24d8:	c7 45 f4 00 00 00 00 	mov    DWORD PTR [rbp-0xc],0x0
    24df:	c7 45 f0 00 00 00 00 	mov    DWORD PTR [rbp-0x10],0x0
    24e6:	48 83 7d f8 00       	cmp    QWORD PTR [rbp-0x8],0x0
    24eb:	75 07                	jne    24f4 <feature_supported+0x2f>
    24ed:	b8 00 00 00 00       	mov    eax,0x0
    24f2:	eb 79                	jmp    256d <feature_supported+0xa8>
    24f4:	8b 45 f0             	mov    eax,DWORD PTR [rbp-0x10]
    24f7:	83 c0 01             	add    eax,0x1
    24fa:	c1 e0 06             	shl    eax,0x6
    24fd:	39 45 e4             	cmp    DWORD PTR [rbp-0x1c],eax
    2500:	72 27                	jb     2529 <feature_supported+0x64>
    2502:	8b 45 f0             	mov    eax,DWORD PTR [rbp-0x10]
    2505:	48 8d 14 c5 00 00 00 	lea    rdx,[rax*8+0x0]
    250c:	00 
    250d:	48 8b 45 f8          	mov    rax,QWORD PTR [rbp-0x8]
    2511:	48 01 d0             	add    rax,rdx
    2514:	48 8b 00             	mov    rax,QWORD PTR [rax]
    2517:	48 85 c0             	test   rax,rax
    251a:	79 07                	jns    2523 <feature_supported+0x5e>
    251c:	b8 00 00 00 00       	mov    eax,0x0
    2521:	eb 4a                	jmp    256d <feature_supported+0xa8>
    2523:	83 45 f0 01          	add    DWORD PTR [rbp-0x10],0x1
    2527:	eb cb                	jmp    24f4 <feature_supported+0x2f>
    2529:	8b 45 f0             	mov    eax,DWORD PTR [rbp-0x10]
    252c:	c1 e0 06             	shl    eax,0x6
    252f:	89 c2                	mov    edx,eax
    2531:	8b 45 e4             	mov    eax,DWORD PTR [rbp-0x1c]
    2534:	29 d0                	sub    eax,edx
    2536:	89 45 f4             	mov    DWORD PTR [rbp-0xc],eax
    2539:	8b 45 f0             	mov    eax,DWORD PTR [rbp-0x10]
    253c:	48 8d 14 c5 00 00 00 	lea    rdx,[rax*8+0x0]
    2543:	00 
    2544:	48 8b 45 f8          	mov    rax,QWORD PTR [rbp-0x8]
    2548:	48 01 d0             	add    rax,rdx
    254b:	48 8b 10             	mov    rdx,QWORD PTR [rax]
    254e:	8b 45 f4             	mov    eax,DWORD PTR [rbp-0xc]
    2551:	89 c1                	mov    ecx,eax
    2553:	48 d3 ea             	shr    rdx,cl
    2556:	48 89 d0             	mov    rax,rdx
    2559:	83 e0 01             	and    eax,0x1
    255c:	48 85 c0             	test   rax,rax
    255f:	74 07                	je     2568 <feature_supported+0xa3>
    2561:	b8 01 00 00 00       	mov    eax,0x1
    2566:	eb 05                	jmp    256d <feature_supported+0xa8>
    2568:	b8 00 00 00 00       	mov    eax,0x0
    256d:	5d                   	pop    rbp
    256e:	c3                   	ret    

000000000000256f <is_stack_addr>:
    256f:	55                   	push   rbp
    2570:	48 89 e5             	mov    rbp,rsp
    2573:	48 83 ec 30          	sub    rsp,0x30
    2577:	48 89 7d d8          	mov    QWORD PTR [rbp-0x28],rdi
    257b:	48 89 75 d0          	mov    QWORD PTR [rbp-0x30],rsi
    257f:	e8 9f dd 01 00       	call   20323 <get_thread_data>
    2584:	48 89 45 e0          	mov    QWORD PTR [rbp-0x20],rax
    2588:	48 8b 45 e0          	mov    rax,QWORD PTR [rbp-0x20]
    258c:	48 8b 40 10          	mov    rax,QWORD PTR [rax+0x10]
    2590:	48 89 45 e8          	mov    QWORD PTR [rbp-0x18],rax
    2594:	48 8b 45 e0          	mov    rax,QWORD PTR [rbp-0x20]
    2598:	48 8b 40 18          	mov    rax,QWORD PTR [rax+0x18]
    259c:	48 89 45 f0          	mov    QWORD PTR [rbp-0x10],rax
    25a0:	48 8b 45 d8          	mov    rax,QWORD PTR [rbp-0x28]
    25a4:	48 89 45 f8          	mov    QWORD PTR [rbp-0x8],rax
    25a8:	48 8b 55 f8          	mov    rdx,QWORD PTR [rbp-0x8]
    25ac:	48 8b 45 d0          	mov    rax,QWORD PTR [rbp-0x30]
    25b0:	48 01 d0             	add    rax,rdx
    25b3:	48 39 45 f8          	cmp    QWORD PTR [rbp-0x8],rax
    25b7:	77 22                	ja     25db <is_stack_addr+0x6c>
    25b9:	48 8b 55 f8          	mov    rdx,QWORD PTR [rbp-0x8]
    25bd:	48 8b 45 d0          	mov    rax,QWORD PTR [rbp-0x30]
    25c1:	48 01 d0             	add    rax,rdx
    25c4:	48 39 45 e8          	cmp    QWORD PTR [rbp-0x18],rax
    25c8:	72 11                	jb     25db <is_stack_addr+0x6c>
    25ca:	48 8b 45 f0          	mov    rax,QWORD PTR [rbp-0x10]
    25ce:	48 3b 45 f8          	cmp    rax,QWORD PTR [rbp-0x8]
    25d2:	77 07                	ja     25db <is_stack_addr+0x6c>
    25d4:	b8 01 00 00 00       	mov    eax,0x1
    25d9:	eb 05                	jmp    25e0 <is_stack_addr+0x71>
    25db:	b8 00 00 00 00       	mov    eax,0x0
    25e0:	c9                   	leave  
    25e1:	c3                   	ret    

00000000000025e2 <is_valid_sp>:
    25e2:	55                   	push   rbp
    25e3:	48 89 e5             	mov    rbp,rsp
    25e6:	48 83 ec 10          	sub    rsp,0x10
    25ea:	48 89 7d f8          	mov    QWORD PTR [rbp-0x8],rdi
    25ee:	48 8b 45 f8          	mov    rax,QWORD PTR [rbp-0x8]
    25f2:	83 e0 07             	and    eax,0x7
    25f5:	48 85 c0             	test   rax,rax
    25f8:	75 1c                	jne    2616 <is_valid_sp+0x34>
    25fa:	48 8b 45 f8          	mov    rax,QWORD PTR [rbp-0x8]
    25fe:	be 00 00 00 00       	mov    esi,0x0
    2603:	48 89 c7             	mov    rdi,rax
    2606:	e8 64 ff ff ff       	call   256f <is_stack_addr>
    260b:	84 c0                	test   al,al
    260d:	74 07                	je     2616 <is_valid_sp+0x34>
    260f:	b8 01 00 00 00       	mov    eax,0x1
    2614:	eb 05                	jmp    261b <is_valid_sp+0x39>
    2616:	b8 00 00 00 00       	mov    eax,0x0
    261b:	c9                   	leave  
    261c:	c3                   	ret    

000000000000261d <internal_handle_exception>:
    261d:	55                   	push   rbp
    261e:	48 89 e5             	mov    rbp,rsp
    2621:	48 83 ec 50          	sub    rsp,0x50
    2625:	48 89 7d b8          	mov    QWORD PTR [rbp-0x48],rdi
    2629:	c7 45 c4 00 00 00 00 	mov    DWORD PTR [rbp-0x3c],0x0
    2630:	48 c7 45 c8 00 00 00 	mov    QWORD PTR [rbp-0x38],0x0
    2637:	00 
    2638:	e8 e6 dc 01 00       	call   20323 <get_thread_data>
    263d:	48 89 45 e0          	mov    QWORD PTR [rbp-0x20],rax
    2641:	48 c7 45 d0 00 00 00 	mov    QWORD PTR [rbp-0x30],0x0
    2648:	00 
    2649:	48 c7 45 e8 00 00 00 	mov    QWORD PTR [rbp-0x18],0x0
    2650:	00 
    2651:	48 c7 45 d8 00 00 00 	mov    QWORD PTR [rbp-0x28],0x0
    2658:	00 
    2659:	48 c7 45 f0 00 00 00 	mov    QWORD PTR [rbp-0x10],0x0
    2660:	00 
    2661:	48 8b 45 e0          	mov    rax,QWORD PTR [rbp-0x20]
    2665:	48 8b 40 60          	mov    rax,QWORD PTR [rax+0x60]
    2669:	48 85 c0             	test   rax,rax
    266c:	0f 88 8c 01 00 00    	js     27fe <internal_handle_exception+0x1e1>
    2672:	48 8b 45 e0          	mov    rax,QWORD PTR [rbp-0x20]
    2676:	48 8b 40 60          	mov    rax,QWORD PTR [rax+0x60]
    267a:	48 8d 50 01          	lea    rdx,[rax+0x1]
    267e:	48 8b 45 e0          	mov    rax,QWORD PTR [rbp-0x20]
    2682:	48 89 50 60          	mov    QWORD PTR [rax+0x60],rdx
    2686:	48 8d 3d bb 4d 22 00 	lea    rdi,[rip+0x224dbb]        # 227448 <_ZL14g_handler_lock>
    268d:	e8 c6 87 00 00       	call   ae58 <sgx_spin_lock>
    2692:	48 8b 05 a7 4d 22 00 	mov    rax,QWORD PTR [rip+0x224da7]        # 227440 <_ZL12g_first_node>
    2699:	48 89 45 c8          	mov    QWORD PTR [rbp-0x38],rax
    269d:	48 83 7d c8 00       	cmp    QWORD PTR [rbp-0x38],0x0
    26a2:	74 13                	je     26b7 <internal_handle_exception+0x9a>
    26a4:	48 83 45 d0 08       	add    QWORD PTR [rbp-0x30],0x8
    26a9:	48 8b 45 c8          	mov    rax,QWORD PTR [rbp-0x38]
    26ad:	48 8b 40 08          	mov    rax,QWORD PTR [rax+0x8]
    26b1:	48 89 45 c8          	mov    QWORD PTR [rbp-0x38],rax
    26b5:	eb e6                	jmp    269d <internal_handle_exception+0x80>
    26b7:	48 83 7d d0 00       	cmp    QWORD PTR [rbp-0x30],0x0
    26bc:	75 24                	jne    26e2 <internal_handle_exception+0xc5>
    26be:	48 8d 3d 83 4d 22 00 	lea    rdi,[rip+0x224d83]        # 227448 <_ZL14g_handler_lock>
    26c5:	e8 f5 87 00 00       	call   aebf <sgx_spin_unlock>
    26ca:	48 8b 45 e0          	mov    rax,QWORD PTR [rbp-0x20]
    26ce:	48 c7 40 60 ff ff ff 	mov    QWORD PTR [rax+0x60],0xffffffffffffffff
    26d5:	ff 
    26d6:	48 8b 45 b8          	mov    rax,QWORD PTR [rbp-0x48]
    26da:	48 89 c7             	mov    rdi,rax
    26dd:	e8 20 e0 01 00       	call   20702 <continue_execution>
    26e2:	48 8b 45 d0          	mov    rax,QWORD PTR [rbp-0x30]
    26e6:	48 89 c7             	mov    rdi,rax
    26e9:	e8 e3 5e 00 00       	call   85d1 <dlmalloc>
    26ee:	48 89 45 e8          	mov    QWORD PTR [rbp-0x18],rax
    26f2:	48 83 7d e8 00       	cmp    QWORD PTR [rbp-0x18],0x0
    26f7:	0f 94 c0             	sete   al
    26fa:	84 c0                	test   al,al
    26fc:	74 11                	je     270f <internal_handle_exception+0xf2>
    26fe:	48 8d 3d 43 4d 22 00 	lea    rdi,[rip+0x224d43]        # 227448 <_ZL14g_handler_lock>
    2705:	e8 b5 87 00 00       	call   aebf <sgx_spin_unlock>
    270a:	e9 f3 00 00 00       	jmp    2802 <internal_handle_exception+0x1e5>
    270f:	48 8b 45 e8          	mov    rax,QWORD PTR [rbp-0x18]
    2713:	48 89 45 d8          	mov    QWORD PTR [rbp-0x28],rax
    2717:	48 8b 05 22 4d 22 00 	mov    rax,QWORD PTR [rip+0x224d22]        # 227440 <_ZL12g_first_node>
    271e:	48 89 45 c8          	mov    QWORD PTR [rbp-0x38],rax
    2722:	48 83 7d c8 00       	cmp    QWORD PTR [rbp-0x38],0x0
    2727:	74 21                	je     274a <internal_handle_exception+0x12d>
    2729:	48 8b 45 c8          	mov    rax,QWORD PTR [rbp-0x38]
    272d:	48 8b 10             	mov    rdx,QWORD PTR [rax]
    2730:	48 8b 45 d8          	mov    rax,QWORD PTR [rbp-0x28]
    2734:	48 89 10             	mov    QWORD PTR [rax],rdx
    2737:	48 83 45 d8 08       	add    QWORD PTR [rbp-0x28],0x8
    273c:	48 8b 45 c8          	mov    rax,QWORD PTR [rbp-0x38]
    2740:	48 8b 40 08          	mov    rax,QWORD PTR [rax+0x8]
    2744:	48 89 45 c8          	mov    QWORD PTR [rbp-0x38],rax
    2748:	eb d8                	jmp    2722 <internal_handle_exception+0x105>
    274a:	48 8d 3d f7 4c 22 00 	lea    rdi,[rip+0x224cf7]        # 227448 <_ZL14g_handler_lock>
    2751:	e8 69 87 00 00       	call   aebf <sgx_spin_unlock>
    2756:	48 8b 45 e8          	mov    rax,QWORD PTR [rbp-0x18]
    275a:	48 89 45 d8          	mov    QWORD PTR [rbp-0x28],rax
    275e:	48 83 7d d0 00       	cmp    QWORD PTR [rbp-0x30],0x0
    2763:	74 38                	je     279d <internal_handle_exception+0x180>
    2765:	48 8b 45 d8          	mov    rax,QWORD PTR [rbp-0x28]
    2769:	48 8b 10             	mov    rdx,QWORD PTR [rax]
    276c:	48 8b 05 dd 4c 22 00 	mov    rax,QWORD PTR [rip+0x224cdd]        # 227450 <_ZL12g_veh_cookie>
    2773:	48 31 d0             	xor    rax,rdx
    2776:	48 89 45 f8          	mov    QWORD PTR [rbp-0x8],rax
    277a:	48 8b 55 b8          	mov    rdx,QWORD PTR [rbp-0x48]
    277e:	48 8b 45 f8          	mov    rax,QWORD PTR [rbp-0x8]
    2782:	48 89 d7             	mov    rdi,rdx
    2785:	ff d0                	call   rax
    2787:	89 45 c4             	mov    DWORD PTR [rbp-0x3c],eax
    278a:	83 7d c4 ff          	cmp    DWORD PTR [rbp-0x3c],0xffffffff
    278e:	74 0c                	je     279c <internal_handle_exception+0x17f>
    2790:	48 83 45 d8 08       	add    QWORD PTR [rbp-0x28],0x8
    2795:	48 83 6d d0 08       	sub    QWORD PTR [rbp-0x30],0x8
    279a:	eb c2                	jmp    275e <internal_handle_exception+0x141>
    279c:	90                   	nop
    279d:	48 8b 45 e8          	mov    rax,QWORD PTR [rbp-0x18]
    27a1:	48 89 c7             	mov    rdi,rax
    27a4:	e8 1f 69 00 00       	call   90c8 <dlfree>
    27a9:	48 8b 45 b8          	mov    rax,QWORD PTR [rbp-0x48]
    27ad:	48 8b 40 20          	mov    rax,QWORD PTR [rax+0x20]
    27b1:	48 89 45 f0          	mov    QWORD PTR [rbp-0x10],rax
    27b5:	48 8b 45 f0          	mov    rax,QWORD PTR [rbp-0x10]
    27b9:	48 89 c7             	mov    rdi,rax
    27bc:	e8 21 fe ff ff       	call   25e2 <is_valid_sp>
    27c1:	83 f0 01             	xor    eax,0x1
    27c4:	84 c0                	test   al,al
    27c6:	75 39                	jne    2801 <internal_handle_exception+0x1e4>
    27c8:	83 7d c4 ff          	cmp    DWORD PTR [rbp-0x3c],0xffffffff
    27cc:	75 16                	jne    27e4 <internal_handle_exception+0x1c7>
    27ce:	48 8b 45 e0          	mov    rax,QWORD PTR [rbp-0x20]
    27d2:	48 8b 40 60          	mov    rax,QWORD PTR [rax+0x60]
    27d6:	48 8d 50 ff          	lea    rdx,[rax-0x1]
    27da:	48 8b 45 e0          	mov    rax,QWORD PTR [rbp-0x20]
    27de:	48 89 50 60          	mov    QWORD PTR [rax+0x60],rdx
    27e2:	eb 0c                	jmp    27f0 <internal_handle_exception+0x1d3>
    27e4:	48 8b 45 e0          	mov    rax,QWORD PTR [rbp-0x20]
    27e8:	48 c7 40 60 ff ff ff 	mov    QWORD PTR [rax+0x60],0xffffffffffffffff
    27ef:	ff 
    27f0:	48 8b 45 b8          	mov    rax,QWORD PTR [rbp-0x48]
    27f4:	48 89 c7             	mov    rdi,rax
    27f7:	e8 06 df 01 00       	call   20702 <continue_execution>
    27fc:	eb 04                	jmp    2802 <internal_handle_exception+0x1e5>
    27fe:	90                   	nop
    27ff:	eb 01                	jmp    2802 <internal_handle_exception+0x1e5>
    2801:	90                   	nop
    2802:	48 8b 45 e0          	mov    rax,QWORD PTR [rbp-0x20]
    2806:	48 c7 40 60 ff ff ff 	mov    QWORD PTR [rax+0x60],0xffffffffffffffff
    280d:	ff 
    280e:	e8 e0 de 01 00       	call   206f3 <abort>

0000000000002813 <_ZL21expand_stack_by_pagesPvm>:
    2813:	55                   	push   rbp
    2814:	48 89 e5             	mov    rbp,rsp
    2817:	48 83 ec 20          	sub    rsp,0x20
    281b:	48 89 7d e8          	mov    QWORD PTR [rbp-0x18],rdi
    281f:	48 89 75 e0          	mov    QWORD PTR [rbp-0x20],rsi
    2823:	c7 45 fc ff ff ff ff 	mov    DWORD PTR [rbp-0x4],0xffffffff
    282a:	48 83 7d e8 00       	cmp    QWORD PTR [rbp-0x18],0x0
    282f:	74 07                	je     2838 <_ZL21expand_stack_by_pagesPvm+0x25>
    2831:	48 83 7d e0 00       	cmp    QWORD PTR [rbp-0x20],0x0
    2836:	75 07                	jne    283f <_ZL21expand_stack_by_pagesPvm+0x2c>
    2838:	b8 ff ff ff ff       	mov    eax,0xffffffff
    283d:	eb 19                	jmp    2858 <_ZL21expand_stack_by_pagesPvm+0x45>
    283f:	48 8b 55 e0          	mov    rdx,QWORD PTR [rbp-0x20]
    2843:	48 8b 45 e8          	mov    rax,QWORD PTR [rbp-0x18]
    2847:	48 89 d6             	mov    rsi,rdx
    284a:	48 89 c7             	mov    rdi,rax
    284d:	e8 13 07 00 00       	call   2f65 <apply_pages_within_exception>
    2852:	89 45 fc             	mov    DWORD PTR [rbp-0x4],eax
    2855:	8b 45 fc             	mov    eax,DWORD PTR [rbp-0x4]
    2858:	c9                   	leave  
    2859:	c3                   	ret    

000000000000285a <trts_handle_exception>:
    285a:	55                   	push   rbp
    285b:	48 89 e5             	mov    rbp,rsp
    285e:	48 83 ec 50          	sub    rsp,0x50
    2862:	48 89 7d b8          	mov    QWORD PTR [rbp-0x48],rdi
    2866:	e8 b8 da 01 00       	call   20323 <get_thread_data>
    286b:	48 89 45 c8          	mov    QWORD PTR [rbp-0x38],rax
    286f:	48 c7 45 d0 00 00 00 	mov    QWORD PTR [rbp-0x30],0x0
    2876:	00 
    2877:	48 c7 45 d8 00 00 00 	mov    QWORD PTR [rbp-0x28],0x0
    287e:	00 
    287f:	48 c7 45 e0 00 00 00 	mov    QWORD PTR [rbp-0x20],0x0
    2886:	00 
    2887:	48 c7 45 e8 00 00 00 	mov    QWORD PTR [rbp-0x18],0x0
    288e:	00 
    288f:	48 83 7d c8 00       	cmp    QWORD PTR [rbp-0x38],0x0
    2894:	0f 84 7a 04 00 00    	je     2d14 <trts_handle_exception+0x4ba>
    289a:	48 83 7d b8 00       	cmp    QWORD PTR [rbp-0x48],0x0
    289f:	0f 84 6f 04 00 00    	je     2d14 <trts_handle_exception+0x4ba>
    28a5:	48 8b 45 b8          	mov    rax,QWORD PTR [rbp-0x48]
    28a9:	48 89 c7             	mov    rdi,rax
    28ac:	e8 3b ed ff ff       	call   15ec <check_static_stack_canary>
    28b1:	85 c0                	test   eax,eax
    28b3:	0f 95 c0             	setne  al
    28b6:	84 c0                	test   al,al
    28b8:	0f 85 59 04 00 00    	jne    2d17 <trts_handle_exception+0x4bd>
    28be:	e8 2d da 01 00       	call   202f0 <get_enclave_state>
    28c3:	83 f8 02             	cmp    eax,0x2
    28c6:	0f 95 c0             	setne  al
    28c9:	84 c0                	test   al,al
    28cb:	0f 85 49 04 00 00    	jne    2d1a <trts_handle_exception+0x4c0>
    28d1:	48 8b 45 c8          	mov    rax,QWORD PTR [rbp-0x38]
    28d5:	48 8b 40 60          	mov    rax,QWORD PTR [rax+0x60]
    28d9:	48 83 f8 ff          	cmp    rax,0xffffffffffffffff
    28dd:	0f 84 3a 04 00 00    	je     2d1d <trts_handle_exception+0x4c3>
    28e3:	48 8b 45 c8          	mov    rax,QWORD PTR [rbp-0x38]
    28e7:	48 8b 40 10          	mov    rax,QWORD PTR [rax+0x10]
    28eb:	48 05 b0 02 01 00    	add    rax,0x102b0
    28f1:	48 39 45 b8          	cmp    QWORD PTR [rbp-0x48],rax
    28f5:	0f 85 19 04 00 00    	jne    2d14 <trts_handle_exception+0x4ba>
    28fb:	48 8b 45 c8          	mov    rax,QWORD PTR [rbp-0x38]
    28ff:	48 8b 40 20          	mov    rax,QWORD PTR [rax+0x20]
    2903:	48 25 00 f0 ff ff    	and    rax,0xfffffffffffff000
    2909:	48 8d 90 00 f0 ff ff 	lea    rdx,[rax-0x1000]
    2910:	48 8b 45 b8          	mov    rax,QWORD PTR [rbp-0x48]
    2914:	48 39 c2             	cmp    rdx,rax
    2917:	0f 85 f7 03 00 00    	jne    2d14 <trts_handle_exception+0x4ba>
    291d:	48 8b 45 c8          	mov    rax,QWORD PTR [rbp-0x38]
    2921:	48 8b 40 20          	mov    rax,QWORD PTR [rax+0x20]
    2925:	48 89 45 d0          	mov    QWORD PTR [rbp-0x30],rax
    2929:	48 8b 45 d0          	mov    rax,QWORD PTR [rbp-0x30]
    292d:	48 8b 40 20          	mov    rax,QWORD PTR [rax+0x20]
    2931:	48 89 45 f0          	mov    QWORD PTR [rbp-0x10],rax
    2935:	48 8b 45 f0          	mov    rax,QWORD PTR [rbp-0x10]
    2939:	be 00 00 00 00       	mov    esi,0x0
    293e:	48 89 c7             	mov    rdi,rax
    2941:	e8 29 fc ff ff       	call   256f <is_stack_addr>
    2946:	83 f0 01             	xor    eax,0x1
    2949:	84 c0                	test   al,al
    294b:	74 14                	je     2961 <trts_handle_exception+0x107>
    294d:	c7 05 a9 4a 22 00 03 	mov    DWORD PTR [rip+0x224aa9],0x3        # 227400 <g_enclave_state>
    2954:	00 00 00 
    2957:	b8 09 10 00 00       	mov    eax,0x1009
    295c:	e9 cf 03 00 00       	jmp    2d30 <trts_handle_exception+0x4d6>
    2961:	48 c7 45 e8 00 00 00 	mov    QWORD PTR [rbp-0x18],0x0
    2968:	00 
    2969:	48 83 6d e8 80       	sub    QWORD PTR [rbp-0x18],0xffffffffffffff80
    296e:	48 81 45 e8 98 00 00 	add    QWORD PTR [rbp-0x18],0x98
    2975:	00 
    2976:	48 8b 45 e8          	mov    rax,QWORD PTR [rbp-0x18]
    297a:	48 29 45 f0          	sub    QWORD PTR [rbp-0x10],rax
    297e:	48 83 65 f0 f0       	and    QWORD PTR [rbp-0x10],0xfffffffffffffff0
    2983:	48 8b 45 f0          	mov    rax,QWORD PTR [rbp-0x10]
    2987:	48 8b 55 e8          	mov    rdx,QWORD PTR [rbp-0x18]
    298b:	48 89 d6             	mov    rsi,rdx
    298e:	48 89 c7             	mov    rdi,rax
    2991:	e8 d9 fb ff ff       	call   256f <is_stack_addr>
    2996:	83 f0 01             	xor    eax,0x1
    2999:	84 c0                	test   al,al
    299b:	74 14                	je     29b1 <trts_handle_exception+0x157>
    299d:	c7 05 59 4a 22 00 03 	mov    DWORD PTR [rip+0x224a59],0x3        # 227400 <g_enclave_state>
    29a4:	00 00 00 
    29a7:	b8 09 10 00 00       	mov    eax,0x1009
    29ac:	e9 7f 03 00 00       	jmp    2d30 <trts_handle_exception+0x4d6>
    29b1:	48 8b 45 f0          	mov    rax,QWORD PTR [rbp-0x10]
    29b5:	48 89 45 d8          	mov    QWORD PTR [rbp-0x28],rax
    29b9:	48 c7 45 e8 08 00 00 	mov    QWORD PTR [rbp-0x18],0x8
    29c0:	00 
    29c1:	48 8b 45 e8          	mov    rax,QWORD PTR [rbp-0x18]
    29c5:	48 29 45 f0          	sub    QWORD PTR [rbp-0x10],rax
    29c9:	48 8b 45 f0          	mov    rax,QWORD PTR [rbp-0x10]
    29cd:	48 8b 55 e8          	mov    rdx,QWORD PTR [rbp-0x18]
    29d1:	48 89 d6             	mov    rsi,rdx
    29d4:	48 89 c7             	mov    rdi,rax
    29d7:	e8 93 fb ff ff       	call   256f <is_stack_addr>
    29dc:	83 f0 01             	xor    eax,0x1
    29df:	84 c0                	test   al,al
    29e1:	74 14                	je     29f7 <trts_handle_exception+0x19d>
    29e3:	c7 05 13 4a 22 00 03 	mov    DWORD PTR [rip+0x224a13],0x3        # 227400 <g_enclave_state>
    29ea:	00 00 00 
    29ed:	b8 09 10 00 00       	mov    eax,0x1009
    29f2:	e9 39 03 00 00       	jmp    2d30 <trts_handle_exception+0x4d6>
    29f7:	48 8b 45 c8          	mov    rax,QWORD PTR [rbp-0x38]
    29fb:	48 8b 80 98 00 00 00 	mov    rax,QWORD PTR [rax+0x98]
    2a02:	48 39 45 f0          	cmp    QWORD PTR [rbp-0x10],rax
    2a06:	0f 83 c7 00 00 00    	jae    2ad3 <trts_handle_exception+0x279>
    2a0c:	c7 45 c4 ff ff ff ff 	mov    DWORD PTR [rbp-0x3c],0xffffffff
    2a13:	48 c7 45 f8 00 00 00 	mov    QWORD PTR [rbp-0x8],0x0
    2a1a:	00 
    2a1b:	48 8b 45 c8          	mov    rax,QWORD PTR [rbp-0x38]
    2a1f:	48 8b 80 98 00 00 00 	mov    rax,QWORD PTR [rax+0x98]
    2a26:	48 2b 45 f0          	sub    rax,QWORD PTR [rbp-0x10]
    2a2a:	48 05 ff 0f 00 00    	add    rax,0xfff
    2a30:	48 25 00 f0 ff ff    	and    rax,0xfffffffffffff000
    2a36:	48 89 45 f8          	mov    QWORD PTR [rbp-0x8],rax
    2a3a:	48 8b 45 c8          	mov    rax,QWORD PTR [rbp-0x38]
    2a3e:	48 8b 80 98 00 00 00 	mov    rax,QWORD PTR [rax+0x98]
    2a45:	48 39 45 f8          	cmp    QWORD PTR [rbp-0x8],rax
    2a49:	73 47                	jae    2a92 <trts_handle_exception+0x238>
    2a4b:	48 8b 45 c8          	mov    rax,QWORD PTR [rbp-0x38]
    2a4f:	48 8b 80 98 00 00 00 	mov    rax,QWORD PTR [rax+0x98]
    2a56:	48 2b 45 f8          	sub    rax,QWORD PTR [rbp-0x8]
    2a5a:	48 89 c2             	mov    rdx,rax
    2a5d:	48 8b 45 c8          	mov    rax,QWORD PTR [rbp-0x38]
    2a61:	48 8b 40 18          	mov    rax,QWORD PTR [rax+0x18]
    2a65:	48 39 c2             	cmp    rdx,rax
    2a68:	72 28                	jb     2a92 <trts_handle_exception+0x238>
    2a6a:	48 8b 45 f8          	mov    rax,QWORD PTR [rbp-0x8]
    2a6e:	48 c1 e8 0c          	shr    rax,0xc
    2a72:	48 89 c2             	mov    rdx,rax
    2a75:	48 8b 45 c8          	mov    rax,QWORD PTR [rbp-0x38]
    2a79:	48 8b 80 98 00 00 00 	mov    rax,QWORD PTR [rax+0x98]
    2a80:	48 2b 45 f8          	sub    rax,QWORD PTR [rbp-0x8]
    2a84:	48 89 d6             	mov    rsi,rdx
    2a87:	48 89 c7             	mov    rdi,rax
    2a8a:	e8 84 fd ff ff       	call   2813 <_ZL21expand_stack_by_pagesPvm>
    2a8f:	89 45 c4             	mov    DWORD PTR [rbp-0x3c],eax
    2a92:	83 7d c4 00          	cmp    DWORD PTR [rbp-0x3c],0x0
    2a96:	75 27                	jne    2abf <trts_handle_exception+0x265>
    2a98:	48 8b 45 c8          	mov    rax,QWORD PTR [rbp-0x38]
    2a9c:	48 8b 80 98 00 00 00 	mov    rax,QWORD PTR [rax+0x98]
    2aa3:	48 2b 45 f8          	sub    rax,QWORD PTR [rbp-0x8]
    2aa7:	48 89 c2             	mov    rdx,rax
    2aaa:	48 8b 45 c8          	mov    rax,QWORD PTR [rbp-0x38]
    2aae:	48 89 90 98 00 00 00 	mov    QWORD PTR [rax+0x98],rdx
    2ab5:	b8 00 00 00 00       	mov    eax,0x0
    2aba:	e9 71 02 00 00       	jmp    2d30 <trts_handle_exception+0x4d6>
    2abf:	c7 05 37 49 22 00 03 	mov    DWORD PTR [rip+0x224937],0x3        # 227400 <g_enclave_state>
    2ac6:	00 00 00 
    2ac9:	b8 09 10 00 00       	mov    eax,0x1009
    2ace:	e9 5d 02 00 00       	jmp    2d30 <trts_handle_exception+0x4d6>
    2ad3:	48 8b 45 d0          	mov    rax,QWORD PTR [rbp-0x30]
    2ad7:	48 8b 90 88 00 00 00 	mov    rdx,QWORD PTR [rax+0x88]
    2ade:	48 8d 05 62 db 01 00 	lea    rax,[rip+0x1db62]        # 20647 <Lereport_inst>
    2ae5:	48 39 c2             	cmp    rdx,rax
    2ae8:	75 4d                	jne    2b37 <trts_handle_exception+0x2dd>
    2aea:	48 8b 45 d0          	mov    rax,QWORD PTR [rbp-0x30]
    2aee:	48 8b 00             	mov    rax,QWORD PTR [rax]
    2af1:	48 85 c0             	test   rax,rax
    2af4:	75 41                	jne    2b37 <trts_handle_exception+0x2dd>
    2af6:	48 8b 45 d0          	mov    rax,QWORD PTR [rbp-0x30]
    2afa:	48 8b 80 88 00 00 00 	mov    rax,QWORD PTR [rax+0x88]
    2b01:	48 8d 50 03          	lea    rdx,[rax+0x3]
    2b05:	48 8b 45 d0          	mov    rax,QWORD PTR [rbp-0x30]
    2b09:	48 89 90 88 00 00 00 	mov    QWORD PTR [rax+0x88],rdx
    2b10:	48 8b 45 d0          	mov    rax,QWORD PTR [rbp-0x30]
    2b14:	48 8b 80 80 00 00 00 	mov    rax,QWORD PTR [rax+0x80]
    2b1b:	48 83 c8 01          	or     rax,0x1
    2b1f:	48 89 c2             	mov    rdx,rax
    2b22:	48 8b 45 d0          	mov    rax,QWORD PTR [rbp-0x30]
    2b26:	48 89 90 80 00 00 00 	mov    QWORD PTR [rax+0x80],rdx
    2b2d:	b8 00 00 00 00       	mov    eax,0x0
    2b32:	e9 f9 01 00 00       	jmp    2d30 <trts_handle_exception+0x4d6>
    2b37:	48 8b 45 d0          	mov    rax,QWORD PTR [rbp-0x30]
    2b3b:	0f b6 80 a3 00 00 00 	movzx  eax,BYTE PTR [rax+0xa3]
    2b42:	83 e0 80             	and    eax,0xffffff80
    2b45:	84 c0                	test   al,al
    2b47:	0f 84 d3 01 00 00    	je     2d20 <trts_handle_exception+0x4c6>
    2b4d:	48 8b 45 d0          	mov    rax,QWORD PTR [rbp-0x30]
    2b51:	0f b6 80 a0 00 00 00 	movzx  eax,BYTE PTR [rax+0xa0]
    2b58:	0f b6 d0             	movzx  edx,al
    2b5b:	48 8b 45 d8          	mov    rax,QWORD PTR [rbp-0x28]
    2b5f:	89 90 90 00 00 00    	mov    DWORD PTR [rax+0x90],edx
    2b65:	48 8b 45 d0          	mov    rax,QWORD PTR [rbp-0x30]
    2b69:	0f b6 80 a1 00 00 00 	movzx  eax,BYTE PTR [rax+0xa1]
    2b70:	83 e0 07             	and    eax,0x7
    2b73:	0f b6 d0             	movzx  edx,al
    2b76:	48 8b 45 d8          	mov    rax,QWORD PTR [rbp-0x28]
    2b7a:	89 90 94 00 00 00    	mov    DWORD PTR [rax+0x94],edx
    2b80:	48 8b 45 d0          	mov    rax,QWORD PTR [rbp-0x30]
    2b84:	48 8b 10             	mov    rdx,QWORD PTR [rax]
    2b87:	48 8b 45 d8          	mov    rax,QWORD PTR [rbp-0x28]
    2b8b:	48 89 10             	mov    QWORD PTR [rax],rdx
    2b8e:	48 8b 45 d0          	mov    rax,QWORD PTR [rbp-0x30]
    2b92:	48 8b 50 08          	mov    rdx,QWORD PTR [rax+0x8]
    2b96:	48 8b 45 d8          	mov    rax,QWORD PTR [rbp-0x28]
    2b9a:	48 89 50 08          	mov    QWORD PTR [rax+0x8],rdx
    2b9e:	48 8b 45 d0          	mov    rax,QWORD PTR [rbp-0x30]
    2ba2:	48 8b 50 10          	mov    rdx,QWORD PTR [rax+0x10]
    2ba6:	48 8b 45 d8          	mov    rax,QWORD PTR [rbp-0x28]
    2baa:	48 89 50 10          	mov    QWORD PTR [rax+0x10],rdx
    2bae:	48 8b 45 d0          	mov    rax,QWORD PTR [rbp-0x30]
    2bb2:	48 8b 50 18          	mov    rdx,QWORD PTR [rax+0x18]
    2bb6:	48 8b 45 d8          	mov    rax,QWORD PTR [rbp-0x28]
    2bba:	48 89 50 18          	mov    QWORD PTR [rax+0x18],rdx
    2bbe:	48 8b 45 d0          	mov    rax,QWORD PTR [rbp-0x30]
    2bc2:	48 8b 50 20          	mov    rdx,QWORD PTR [rax+0x20]
    2bc6:	48 8b 45 d8          	mov    rax,QWORD PTR [rbp-0x28]
    2bca:	48 89 50 20          	mov    QWORD PTR [rax+0x20],rdx
    2bce:	48 8b 45 d0          	mov    rax,QWORD PTR [rbp-0x30]
    2bd2:	48 8b 50 28          	mov    rdx,QWORD PTR [rax+0x28]
    2bd6:	48 8b 45 d8          	mov    rax,QWORD PTR [rbp-0x28]
    2bda:	48 89 50 28          	mov    QWORD PTR [rax+0x28],rdx
    2bde:	48 8b 45 d0          	mov    rax,QWORD PTR [rbp-0x30]
    2be2:	48 8b 50 30          	mov    rdx,QWORD PTR [rax+0x30]
    2be6:	48 8b 45 d8          	mov    rax,QWORD PTR [rbp-0x28]
    2bea:	48 89 50 30          	mov    QWORD PTR [rax+0x30],rdx
    2bee:	48 8b 45 d0          	mov    rax,QWORD PTR [rbp-0x30]
    2bf2:	48 8b 50 38          	mov    rdx,QWORD PTR [rax+0x38]
    2bf6:	48 8b 45 d8          	mov    rax,QWORD PTR [rbp-0x28]
    2bfa:	48 89 50 38          	mov    QWORD PTR [rax+0x38],rdx
    2bfe:	48 8b 45 d0          	mov    rax,QWORD PTR [rbp-0x30]
    2c02:	48 8b 90 80 00 00 00 	mov    rdx,QWORD PTR [rax+0x80]
    2c09:	48 8b 45 d8          	mov    rax,QWORD PTR [rbp-0x28]
    2c0d:	48 89 90 80 00 00 00 	mov    QWORD PTR [rax+0x80],rdx
    2c14:	48 8b 45 d0          	mov    rax,QWORD PTR [rbp-0x30]
    2c18:	48 8b 90 88 00 00 00 	mov    rdx,QWORD PTR [rax+0x88]
    2c1f:	48 8b 45 d8          	mov    rax,QWORD PTR [rbp-0x28]
    2c23:	48 89 90 88 00 00 00 	mov    QWORD PTR [rax+0x88],rdx
    2c2a:	48 8b 45 d0          	mov    rax,QWORD PTR [rbp-0x30]
    2c2e:	48 8b 50 40          	mov    rdx,QWORD PTR [rax+0x40]
    2c32:	48 8b 45 d8          	mov    rax,QWORD PTR [rbp-0x28]
    2c36:	48 89 50 40          	mov    QWORD PTR [rax+0x40],rdx
    2c3a:	48 8b 45 d0          	mov    rax,QWORD PTR [rbp-0x30]
    2c3e:	48 8b 50 48          	mov    rdx,QWORD PTR [rax+0x48]
    2c42:	48 8b 45 d8          	mov    rax,QWORD PTR [rbp-0x28]
    2c46:	48 89 50 48          	mov    QWORD PTR [rax+0x48],rdx
    2c4a:	48 8b 45 d0          	mov    rax,QWORD PTR [rbp-0x30]
    2c4e:	48 8b 50 50          	mov    rdx,QWORD PTR [rax+0x50]
    2c52:	48 8b 45 d8          	mov    rax,QWORD PTR [rbp-0x28]
    2c56:	48 89 50 50          	mov    QWORD PTR [rax+0x50],rdx
    2c5a:	48 8b 45 d0          	mov    rax,QWORD PTR [rbp-0x30]
    2c5e:	48 8b 50 58          	mov    rdx,QWORD PTR [rax+0x58]
    2c62:	48 8b 45 d8          	mov    rax,QWORD PTR [rbp-0x28]
    2c66:	48 89 50 58          	mov    QWORD PTR [rax+0x58],rdx
    2c6a:	48 8b 45 d0          	mov    rax,QWORD PTR [rbp-0x30]
    2c6e:	48 8b 50 60          	mov    rdx,QWORD PTR [rax+0x60]
    2c72:	48 8b 45 d8          	mov    rax,QWORD PTR [rbp-0x28]
    2c76:	48 89 50 60          	mov    QWORD PTR [rax+0x60],rdx
    2c7a:	48 8b 45 d0          	mov    rax,QWORD PTR [rbp-0x30]
    2c7e:	48 8b 50 68          	mov    rdx,QWORD PTR [rax+0x68]
    2c82:	48 8b 45 d8          	mov    rax,QWORD PTR [rbp-0x28]
    2c86:	48 89 50 68          	mov    QWORD PTR [rax+0x68],rdx
    2c8a:	48 8b 45 d0          	mov    rax,QWORD PTR [rbp-0x30]
    2c8e:	48 8b 50 70          	mov    rdx,QWORD PTR [rax+0x70]
    2c92:	48 8b 45 d8          	mov    rax,QWORD PTR [rbp-0x28]
    2c96:	48 89 50 70          	mov    QWORD PTR [rax+0x70],rdx
    2c9a:	48 8b 45 d0          	mov    rax,QWORD PTR [rbp-0x30]
    2c9e:	48 8b 50 78          	mov    rdx,QWORD PTR [rax+0x78]
    2ca2:	48 8b 45 d8          	mov    rax,QWORD PTR [rbp-0x28]
    2ca6:	48 89 50 78          	mov    QWORD PTR [rax+0x78],rdx
    2caa:	48 8b 45 f0          	mov    rax,QWORD PTR [rbp-0x10]
    2cae:	48 89 45 e0          	mov    QWORD PTR [rbp-0x20],rax
    2cb2:	48 8d 15 64 f9 ff ff 	lea    rdx,[rip+0xfffffffffffff964]        # 261d <internal_handle_exception>
    2cb9:	48 8b 45 d0          	mov    rax,QWORD PTR [rbp-0x30]
    2cbd:	48 89 90 88 00 00 00 	mov    QWORD PTR [rax+0x88],rdx
    2cc4:	48 8b 55 e0          	mov    rdx,QWORD PTR [rbp-0x20]
    2cc8:	48 8b 45 d0          	mov    rax,QWORD PTR [rbp-0x30]
    2ccc:	48 89 50 20          	mov    QWORD PTR [rax+0x20],rdx
    2cd0:	48 8b 55 d8          	mov    rdx,QWORD PTR [rbp-0x28]
    2cd4:	48 8b 45 d0          	mov    rax,QWORD PTR [rbp-0x30]
    2cd8:	48 89 10             	mov    QWORD PTR [rax],rdx
    2cdb:	48 8b 55 d8          	mov    rdx,QWORD PTR [rbp-0x28]
    2cdf:	48 8b 45 d0          	mov    rax,QWORD PTR [rbp-0x30]
    2ce3:	48 89 50 38          	mov    QWORD PTR [rax+0x38],rdx
    2ce7:	48 8b 45 d8          	mov    rax,QWORD PTR [rbp-0x28]
    2ceb:	48 8b 90 88 00 00 00 	mov    rdx,QWORD PTR [rax+0x88]
    2cf2:	48 8b 45 e0          	mov    rax,QWORD PTR [rbp-0x20]
    2cf6:	48 89 10             	mov    QWORD PTR [rax],rdx
    2cf9:	48 8b 45 d0          	mov    rax,QWORD PTR [rbp-0x30]
    2cfd:	0f b6 90 a3 00 00 00 	movzx  edx,BYTE PTR [rax+0xa3]
    2d04:	83 e2 7f             	and    edx,0x7f
    2d07:	88 90 a3 00 00 00    	mov    BYTE PTR [rax+0xa3],dl
    2d0d:	b8 00 00 00 00       	mov    eax,0x0
    2d12:	eb 1c                	jmp    2d30 <trts_handle_exception+0x4d6>
    2d14:	90                   	nop
    2d15:	eb 0a                	jmp    2d21 <trts_handle_exception+0x4c7>
    2d17:	90                   	nop
    2d18:	eb 07                	jmp    2d21 <trts_handle_exception+0x4c7>
    2d1a:	90                   	nop
    2d1b:	eb 04                	jmp    2d21 <trts_handle_exception+0x4c7>
    2d1d:	90                   	nop
    2d1e:	eb 01                	jmp    2d21 <trts_handle_exception+0x4c7>
    2d20:	90                   	nop
    2d21:	c7 05 d5 46 22 00 03 	mov    DWORD PTR [rip+0x2246d5],0x3        # 227400 <g_enclave_state>
    2d28:	00 00 00 
    2d2b:	b8 06 10 00 00       	mov    eax,0x1006
    2d30:	c9                   	leave  
    2d31:	c3                   	ret    

0000000000002d32 <get_xfeature_state>:
    2d32:	55                   	push   rbp
    2d33:	48 89 e5             	mov    rbp,rsp
    2d36:	48 83 ec 10          	sub    rsp,0x10
    2d3a:	e8 0a ce 01 00       	call   1fb49 <sgx_self_report>
    2d3f:	48 89 45 f0          	mov    QWORD PTR [rbp-0x10],rax
    2d43:	48 8b 45 f0          	mov    rax,QWORD PTR [rbp-0x10]
    2d47:	48 8b 40 38          	mov    rax,QWORD PTR [rax+0x38]
    2d4b:	48 83 f8 03          	cmp    rax,0x3
    2d4f:	0f 95 c0             	setne  al
    2d52:	0f b6 c0             	movzx  eax,al
    2d55:	89 05 a9 46 22 00    	mov    DWORD PTR [rip+0x2246a9],eax        # 227404 <g_xsave_enabled>
    2d5b:	48 8b 45 f0          	mov    rax,QWORD PTR [rbp-0x10]
    2d5f:	48 8b 40 38          	mov    rax,QWORD PTR [rax+0x38]
    2d63:	48 89 45 f8          	mov    QWORD PTR [rbp-0x8],rax
    2d67:	48 8b 45 f8          	mov    rax,QWORD PTR [rbp-0x8]
    2d6b:	48 c1 e8 20          	shr    rax,0x20
    2d6f:	89 05 93 46 22 00    	mov    DWORD PTR [rip+0x224693],eax        # 227408 <g_xsave_mask_high>
    2d75:	48 8b 45 f8          	mov    rax,QWORD PTR [rbp-0x8]
    2d79:	89 05 8d 46 22 00    	mov    DWORD PTR [rip+0x22468d],eax        # 22740c <g_xsave_mask_low>
    2d7f:	48 8b 45 f8          	mov    rax,QWORD PTR [rbp-0x8]
    2d83:	c9                   	leave  
    2d84:	c3                   	ret    

0000000000002d85 <_ZL28set_global_feature_indicatormm>:
    2d85:	55                   	push   rbp
    2d86:	48 89 e5             	mov    rbp,rsp
    2d89:	48 89 7d f8          	mov    QWORD PTR [rbp-0x8],rdi
    2d8d:	48 89 75 f0          	mov    QWORD PTR [rbp-0x10],rsi
    2d91:	48 8b 45 f8          	mov    rax,QWORD PTR [rbp-0x8]
    2d95:	48 25 00 00 00 e1    	and    rax,0xffffffffe1000000
    2d9b:	48 85 c0             	test   rax,rax
    2d9e:	74 08                	je     2da8 <_ZL28set_global_feature_indicatormm+0x23>
    2da0:	48 81 65 f8 ff ff ff 	and    QWORD PTR [rbp-0x8],0x1effffff
    2da7:	1e 
    2da8:	48 8b 45 f8          	mov    rax,QWORD PTR [rbp-0x8]
    2dac:	48 25 00 fe ff ff    	and    rax,0xfffffffffffffe00
    2db2:	48 85 c0             	test   rax,rax
    2db5:	75 0a                	jne    2dc1 <_ZL28set_global_feature_indicatormm+0x3c>
    2db7:	b8 ff ff ff ff       	mov    eax,0xffffffff
    2dbc:	e9 d8 00 00 00       	jmp    2e99 <_ZL28set_global_feature_indicatormm+0x114>
    2dc1:	48 8b 45 f8          	mov    rax,QWORD PTR [rbp-0x8]
    2dc5:	83 e0 20             	and    eax,0x20
    2dc8:	48 85 c0             	test   rax,rax
    2dcb:	74 11                	je     2dde <_ZL28set_global_feature_indicatormm+0x59>
    2dcd:	48 8b 45 f8          	mov    rax,QWORD PTR [rbp-0x8]
    2dd1:	83 e0 1f             	and    eax,0x1f
    2dd4:	48 83 f8 1f          	cmp    rax,0x1f
    2dd8:	0f 85 8f 00 00 00    	jne    2e6d <_ZL28set_global_feature_indicatormm+0xe8>
    2dde:	48 8b 45 f8          	mov    rax,QWORD PTR [rbp-0x8]
    2de2:	83 e0 40             	and    eax,0x40
    2de5:	48 85 c0             	test   rax,rax
    2de8:	74 0d                	je     2df7 <_ZL28set_global_feature_indicatormm+0x72>
    2dea:	48 8b 45 f8          	mov    rax,QWORD PTR [rbp-0x8]
    2dee:	83 e0 3f             	and    eax,0x3f
    2df1:	48 83 f8 3f          	cmp    rax,0x3f
    2df5:	75 76                	jne    2e6d <_ZL28set_global_feature_indicatormm+0xe8>
    2df7:	48 8b 45 f8          	mov    rax,QWORD PTR [rbp-0x8]
    2dfb:	25 80 00 00 00       	and    eax,0x80
    2e00:	48 85 c0             	test   rax,rax
    2e03:	74 0d                	je     2e12 <_ZL28set_global_feature_indicatormm+0x8d>
    2e05:	48 8b 45 f8          	mov    rax,QWORD PTR [rbp-0x8]
    2e09:	83 e0 7f             	and    eax,0x7f
    2e0c:	48 83 f8 7f          	cmp    rax,0x7f
    2e10:	75 5b                	jne    2e6d <_ZL28set_global_feature_indicatormm+0xe8>
    2e12:	48 8b 45 f8          	mov    rax,QWORD PTR [rbp-0x8]
    2e16:	25 00 01 00 00       	and    eax,0x100
    2e1b:	48 85 c0             	test   rax,rax
    2e1e:	74 0f                	je     2e2f <_ZL28set_global_feature_indicatormm+0xaa>
    2e20:	48 8b 45 f8          	mov    rax,QWORD PTR [rbp-0x8]
    2e24:	0f b6 c0             	movzx  eax,al
    2e27:	48 3d ff 00 00 00    	cmp    rax,0xff
    2e2d:	75 3e                	jne    2e6d <_ZL28set_global_feature_indicatormm+0xe8>
    2e2f:	48 8b 45 f8          	mov    rax,QWORD PTR [rbp-0x8]
    2e33:	25 00 02 00 00       	and    eax,0x200
    2e38:	48 85 c0             	test   rax,rax
    2e3b:	74 11                	je     2e4e <_ZL28set_global_feature_indicatormm+0xc9>
    2e3d:	48 8b 45 f8          	mov    rax,QWORD PTR [rbp-0x8]
    2e41:	25 ff 01 00 00       	and    eax,0x1ff
    2e46:	48 3d ff 01 00 00    	cmp    rax,0x1ff
    2e4c:	75 1f                	jne    2e6d <_ZL28set_global_feature_indicatormm+0xe8>
    2e4e:	48 8b 45 f8          	mov    rax,QWORD PTR [rbp-0x8]
    2e52:	25 00 04 00 00       	and    eax,0x400
    2e57:	48 85 c0             	test   rax,rax
    2e5a:	74 18                	je     2e74 <_ZL28set_global_feature_indicatormm+0xef>
    2e5c:	48 8b 45 f8          	mov    rax,QWORD PTR [rbp-0x8]
    2e60:	25 ff 03 00 00       	and    eax,0x3ff
    2e65:	48 3d ff 03 00 00    	cmp    rax,0x3ff
    2e6b:	74 07                	je     2e74 <_ZL28set_global_feature_indicatormm+0xef>
    2e6d:	b8 ff ff ff ff       	mov    eax,0xffffffff
    2e72:	eb 25                	jmp    2e99 <_ZL28set_global_feature_indicatormm+0x114>
    2e74:	48 8b 45 f0          	mov    rax,QWORD PTR [rbp-0x10]
    2e78:	83 e0 06             	and    eax,0x6
    2e7b:	48 83 f8 06          	cmp    rax,0x6
    2e7f:	74 08                	je     2e89 <_ZL28set_global_feature_indicatormm+0x104>
    2e81:	48 81 65 f8 ff 7f 12 	and    QWORD PTR [rbp-0x8],0xfffffffff1127fff
    2e88:	f1 
    2e89:	48 8b 45 f8          	mov    rax,QWORD PTR [rbp-0x8]
    2e8d:	48 89 05 ac 2f 22 00 	mov    QWORD PTR [rip+0x222fac],rax        # 225e40 <g_cpu_feature_indicator>
    2e94:	b8 00 00 00 00       	mov    eax,0x0
    2e99:	5d                   	pop    rbp
    2e9a:	c3                   	ret    

0000000000002e9b <init_optimized_libs>:
    2e9b:	55                   	push   rbp
    2e9c:	48 89 e5             	mov    rbp,rsp
    2e9f:	48 83 ec 20          	sub    rsp,0x20
    2ea3:	48 89 7d f8          	mov    QWORD PTR [rbp-0x8],rdi
    2ea7:	48 89 75 f0          	mov    QWORD PTR [rbp-0x10],rsi
    2eab:	48 89 55 e8          	mov    QWORD PTR [rbp-0x18],rdx
    2eaf:	8b 05 4b 45 22 00    	mov    eax,DWORD PTR [rip+0x22454b]        # 227400 <g_enclave_state>
    2eb5:	83 f8 01             	cmp    eax,0x1
    2eb8:	74 07                	je     2ec1 <init_optimized_libs+0x26>
    2eba:	b8 ff ff ff ff       	mov    eax,0xffffffff
    2ebf:	eb 6d                	jmp    2f2e <init_optimized_libs+0x93>
    2ec1:	48 8b 55 e8          	mov    rdx,QWORD PTR [rbp-0x18]
    2ec5:	48 8b 45 f8          	mov    rax,QWORD PTR [rbp-0x8]
    2ec9:	48 89 d6             	mov    rsi,rdx
    2ecc:	48 89 c7             	mov    rdi,rax
    2ecf:	e8 b1 fe ff ff       	call   2d85 <_ZL28set_global_feature_indicatormm>
    2ed4:	85 c0                	test   eax,eax
    2ed6:	0f 95 c0             	setne  al
    2ed9:	84 c0                	test   al,al
    2edb:	74 07                	je     2ee4 <init_optimized_libs+0x49>
    2edd:	b8 ff ff ff ff       	mov    eax,0xffffffff
    2ee2:	eb 4a                	jmp    2f2e <init_optimized_libs+0x93>
    2ee4:	48 8b 05 55 2f 22 00 	mov    rax,QWORD PTR [rip+0x222f55]        # 225e40 <g_cpu_feature_indicator>
    2eeb:	48 89 c7             	mov    rdi,rax
    2eee:	e8 07 7f 00 00       	call   adfa <sgx_init_string_lib>
    2ef3:	85 c0                	test   eax,eax
    2ef5:	0f 95 c0             	setne  al
    2ef8:	84 c0                	test   al,al
    2efa:	74 07                	je     2f03 <init_optimized_libs+0x68>
    2efc:	b8 ff ff ff ff       	mov    eax,0xffffffff
    2f01:	eb 2b                	jmp    2f2e <init_optimized_libs+0x93>
    2f03:	48 8b 05 36 2f 22 00 	mov    rax,QWORD PTR [rip+0x222f36]        # 225e40 <g_cpu_feature_indicator>
    2f0a:	48 8b 55 f0          	mov    rdx,QWORD PTR [rbp-0x10]
    2f0e:	48 89 d6             	mov    rsi,rdx
    2f11:	48 89 c7             	mov    rdi,rax
    2f14:	e8 4b 4e 01 00       	call   17d64 <sgx_init_crypto_lib>
    2f19:	85 c0                	test   eax,eax
    2f1b:	0f 95 c0             	setne  al
    2f1e:	84 c0                	test   al,al
    2f20:	74 07                	je     2f29 <init_optimized_libs+0x8e>
    2f22:	b8 ff ff ff ff       	mov    eax,0xffffffff
    2f27:	eb 05                	jmp    2f2e <init_optimized_libs+0x93>
    2f29:	b8 00 00 00 00       	mov    eax,0x0
    2f2e:	c9                   	leave  
    2f2f:	c3                   	ret    

0000000000002f30 <do_init_switchless>:
    2f30:	55                   	push   rbp
    2f31:	48 89 e5             	mov    rbp,rsp
    2f34:	48 89 7d f8          	mov    QWORD PTR [rbp-0x8],rdi
    2f38:	b8 01 00 00 00       	mov    eax,0x1
    2f3d:	5d                   	pop    rbp
    2f3e:	c3                   	ret    

0000000000002f3f <do_run_switchless_tworker>:
    2f3f:	55                   	push   rbp
    2f40:	48 89 e5             	mov    rbp,rsp
    2f43:	48 89 7d f8          	mov    QWORD PTR [rbp-0x8],rdi
    2f47:	b8 01 00 00 00       	mov    eax,0x1
    2f4c:	5d                   	pop    rbp
    2f4d:	c3                   	ret    

0000000000002f4e <sgx_accept_forward>:
    2f4e:	55                   	push   rbp
    2f4f:	48 89 e5             	mov    rbp,rsp
    2f52:	48 89 7d f8          	mov    QWORD PTR [rbp-0x8],rdi
    2f56:	48 89 75 f0          	mov    QWORD PTR [rbp-0x10],rsi
    2f5a:	48 89 55 e8          	mov    QWORD PTR [rbp-0x18],rdx
    2f5e:	b8 00 00 00 00       	mov    eax,0x0
    2f63:	5d                   	pop    rbp
    2f64:	c3                   	ret    

0000000000002f65 <apply_pages_within_exception>:
    2f65:	55                   	push   rbp
    2f66:	48 89 e5             	mov    rbp,rsp
    2f69:	48 89 7d f8          	mov    QWORD PTR [rbp-0x8],rdi
    2f6d:	48 89 75 f0          	mov    QWORD PTR [rbp-0x10],rsi
    2f71:	b8 00 00 00 00       	mov    eax,0x0
    2f76:	5d                   	pop    rbp
    2f77:	c3                   	ret    

0000000000002f78 <apply_EPC_pages>:
    2f78:	55                   	push   rbp
    2f79:	48 89 e5             	mov    rbp,rsp
    2f7c:	48 89 7d f8          	mov    QWORD PTR [rbp-0x8],rdi
    2f80:	48 89 75 f0          	mov    QWORD PTR [rbp-0x10],rsi
    2f84:	b8 00 00 00 00       	mov    eax,0x0
    2f89:	5d                   	pop    rbp
    2f8a:	c3                   	ret    

0000000000002f8b <trim_EPC_pages>:
    2f8b:	55                   	push   rbp
    2f8c:	48 89 e5             	mov    rbp,rsp
    2f8f:	48 89 7d f8          	mov    QWORD PTR [rbp-0x8],rdi
    2f93:	48 89 75 f0          	mov    QWORD PTR [rbp-0x10],rsi
    2f97:	b8 00 00 00 00       	mov    eax,0x0
    2f9c:	5d                   	pop    rbp
    2f9d:	c3                   	ret    

0000000000002f9e <do_add_thread>:
    2f9e:	55                   	push   rbp
    2f9f:	48 89 e5             	mov    rbp,rsp
    2fa2:	48 89 7d f8          	mov    QWORD PTR [rbp-0x8],rdi
    2fa6:	b8 00 00 00 00       	mov    eax,0x0
    2fab:	5d                   	pop    rbp
    2fac:	c3                   	ret    

0000000000002fad <_ZL16init_stack_guardPv>:
    2fad:	55                   	push   rbp
    2fae:	48 89 e5             	mov    rbp,rsp
    2fb1:	48 83 ec 20          	sub    rsp,0x20
    2fb5:	48 89 7d e8          	mov    QWORD PTR [rbp-0x18],rdi
    2fb9:	e8 65 d3 01 00       	call   20323 <get_thread_data>
    2fbe:	48 89 45 f8          	mov    QWORD PTR [rbp-0x8],rax
    2fc2:	48 83 7d f8 00       	cmp    QWORD PTR [rbp-0x8],0x0
    2fc7:	74 21                	je     2fea <_ZL16init_stack_guardPv+0x3d>
    2fc9:	48 8b 45 f8          	mov    rax,QWORD PTR [rbp-0x8]
    2fcd:	48 8b 50 10          	mov    rdx,QWORD PTR [rax+0x10]
    2fd1:	48 8b 45 f8          	mov    rax,QWORD PTR [rbp-0x8]
    2fd5:	48 8b 40 08          	mov    rax,QWORD PTR [rax+0x8]
    2fd9:	48 39 c2             	cmp    rdx,rax
    2fdc:	75 13                	jne    2ff1 <_ZL16init_stack_guardPv+0x44>
    2fde:	48 8b 05 f3 3b 22 00 	mov    rax,QWORD PTR [rip+0x223bf3]        # 226bd8 <g_global_data+0x18>
    2fe5:	48 85 c0             	test   rax,rax
    2fe8:	74 07                	je     2ff1 <_ZL16init_stack_guardPv+0x44>
    2fea:	b8 01 00 00 00       	mov    eax,0x1
    2fef:	eb 05                	jmp    2ff6 <_ZL16init_stack_guardPv+0x49>
    2ff1:	b8 00 00 00 00       	mov    eax,0x0
    2ff6:	84 c0                	test   al,al
    2ff8:	74 6d                	je     3067 <_ZL16init_stack_guardPv+0xba>
    2ffa:	48 8b 15 df 3b 22 00 	mov    rdx,QWORD PTR [rip+0x223bdf]        # 226be0 <g_global_data+0x20>
    3001:	48 8b 45 e8          	mov    rax,QWORD PTR [rbp-0x18]
    3005:	48 01 d0             	add    rax,rdx
    3008:	48 89 45 f8          	mov    QWORD PTR [rbp-0x8],rax
    300c:	48 83 7d f8 00       	cmp    QWORD PTR [rbp-0x8],0x0
    3011:	75 1f                	jne    3032 <_ZL16init_stack_guardPv+0x85>
    3013:	48 8d 0d 26 d8 01 00 	lea    rcx,[rip+0x1d826]        # 20840 <g_dyn_entry_table+0x40>
    301a:	48 8d 15 7f d8 01 00 	lea    rdx,[rip+0x1d87f]        # 208a0 <_ZZL16init_stack_guardPvE8__func__>
    3021:	be 3f 00 00 00       	mov    esi,0x3f
    3026:	48 8d 3d 2b d8 01 00 	lea    rdi,[rip+0x1d82b]        # 20858 <g_dyn_entry_table+0x58>
    302d:	e8 da 1a 00 00       	call   4b0c <__assert>
    3032:	48 c7 45 f0 00 00 00 	mov    QWORD PTR [rbp-0x10],0x0
    3039:	00 
    303a:	48 8d 45 f0          	lea    rax,[rbp-0x10]
    303e:	be 08 00 00 00       	mov    esi,0x8
    3043:	48 89 c7             	mov    rdi,rax
    3046:	e8 88 e4 ff ff       	call   14d3 <sgx_read_rand>
    304b:	85 c0                	test   eax,eax
    304d:	0f 95 c0             	setne  al
    3050:	84 c0                	test   al,al
    3052:	74 05                	je     3059 <_ZL16init_stack_guardPv+0xac>
    3054:	e8 9a d6 01 00       	call   206f3 <abort>
    3059:	48 8b 55 f0          	mov    rdx,QWORD PTR [rbp-0x10]
    305d:	48 8b 45 f8          	mov    rax,QWORD PTR [rbp-0x8]
    3061:	48 89 50 28          	mov    QWORD PTR [rax+0x28],rdx
    3065:	eb 01                	jmp    3068 <_ZL16init_stack_guardPv+0xbb>
    3067:	90                   	nop
    3068:	c9                   	leave  
    3069:	c3                   	ret    

000000000000306a <_ZL8_EGETKEYP14_key_request_tPh>:
    306a:	55                   	push   rbp
    306b:	48 89 e5             	mov    rbp,rsp
    306e:	48 81 ec 00 01 00 00 	sub    rsp,0x100
    3075:	48 89 bd 08 ff ff ff 	mov    QWORD PTR [rbp-0xf8],rdi
    307c:	48 89 b5 00 ff ff ff 	mov    QWORD PTR [rbp-0x100],rsi
    3083:	64 48 8b 04 25 28 00 	mov    rax,QWORD PTR fs:0x28
    308a:	00 00 
    308c:	48 89 45 f8          	mov    QWORD PTR [rbp-0x8],rax
    3090:	31 c0                	xor    eax,eax
    3092:	48 8b 85 08 ff ff ff 	mov    rax,QWORD PTR [rbp-0xf8]
    3099:	25 ff 01 00 00       	and    eax,0x1ff
    309e:	48 85 c0             	test   rax,rax
    30a1:	0f 95 c0             	setne  al
    30a4:	0f b6 c0             	movzx  eax,al
    30a7:	48 85 c0             	test   rax,rax
    30aa:	74 05                	je     30b1 <_ZL8_EGETKEYP14_key_request_tPh+0x47>
    30ac:	e8 42 d6 01 00       	call   206f3 <abort>
    30b1:	48 8b 85 08 ff ff ff 	mov    rax,QWORD PTR [rbp-0xf8]
    30b8:	be 00 02 00 00       	mov    esi,0x200
    30bd:	48 89 c7             	mov    rdi,rax
    30c0:	e8 d2 e0 ff ff       	call   1197 <sgx_is_within_enclave>
    30c5:	85 c0                	test   eax,eax
    30c7:	0f 94 c0             	sete   al
    30ca:	0f b6 c0             	movzx  eax,al
    30cd:	48 85 c0             	test   rax,rax
    30d0:	0f 95 c0             	setne  al
    30d3:	84 c0                	test   al,al
    30d5:	74 05                	je     30dc <_ZL8_EGETKEYP14_key_request_tPh+0x72>
    30d7:	e8 17 d6 01 00       	call   206f3 <abort>
    30dc:	48 8b 85 00 ff ff ff 	mov    rax,QWORD PTR [rbp-0x100]
    30e3:	83 e0 0f             	and    eax,0xf
    30e6:	48 85 c0             	test   rax,rax
    30e9:	0f 95 c0             	setne  al
    30ec:	0f b6 c0             	movzx  eax,al
    30ef:	48 85 c0             	test   rax,rax
    30f2:	74 05                	je     30f9 <_ZL8_EGETKEYP14_key_request_tPh+0x8f>
    30f4:	e8 fa d5 01 00       	call   206f3 <abort>
    30f9:	48 8b 85 00 ff ff ff 	mov    rax,QWORD PTR [rbp-0x100]
    3100:	be 10 00 00 00       	mov    esi,0x10
    3105:	48 89 c7             	mov    rdi,rax
    3108:	e8 8a e0 ff ff       	call   1197 <sgx_is_within_enclave>
    310d:	85 c0                	test   eax,eax
    310f:	0f 94 c0             	sete   al
    3112:	0f b6 c0             	movzx  eax,al
    3115:	48 85 c0             	test   rax,rax
    3118:	0f 95 c0             	setne  al
    311b:	84 c0                	test   al,al
    311d:	74 05                	je     3124 <_ZL8_EGETKEYP14_key_request_tPh+0xba>
    311f:	e8 cf d5 01 00       	call   206f3 <abort>
    3124:	48 8b 85 08 ff ff ff 	mov    rax,QWORD PTR [rbp-0xf8]
    312b:	0f b7 40 02          	movzx  eax,WORD PTR [rax+0x2]
    312f:	0f b7 c0             	movzx  eax,ax
    3132:	83 e0 fc             	and    eax,0xfffffffc
    3135:	85 c0                	test   eax,eax
    3137:	0f 95 c0             	setne  al
    313a:	0f b6 c0             	movzx  eax,al
    313d:	48 85 c0             	test   rax,rax
    3140:	74 05                	je     3147 <_ZL8_EGETKEYP14_key_request_tPh+0xdd>
    3142:	e8 ac d5 01 00       	call   206f3 <abort>
    3147:	48 8b 85 08 ff ff ff 	mov    rax,QWORD PTR [rbp-0xf8]
    314e:	48 83 c0 06          	add    rax,0x6
    3152:	48 89 85 20 ff ff ff 	mov    QWORD PTR [rbp-0xe0],rax
    3159:	c7 85 18 ff ff ff 00 	mov    DWORD PTR [rbp-0xe8],0x0
    3160:	00 00 00 
    3163:	83 bd 18 ff ff ff 01 	cmp    DWORD PTR [rbp-0xe8],0x1
    316a:	77 2e                	ja     319a <_ZL8_EGETKEYP14_key_request_tPh+0x130>
    316c:	8b 95 18 ff ff ff    	mov    edx,DWORD PTR [rbp-0xe8]
    3172:	48 8b 85 20 ff ff ff 	mov    rax,QWORD PTR [rbp-0xe0]
    3179:	48 01 d0             	add    rax,rdx
    317c:	0f b6 00             	movzx  eax,BYTE PTR [rax]
    317f:	84 c0                	test   al,al
    3181:	0f 95 c0             	setne  al
    3184:	0f b6 c0             	movzx  eax,al
    3187:	48 85 c0             	test   rax,rax
    318a:	74 05                	je     3191 <_ZL8_EGETKEYP14_key_request_tPh+0x127>
    318c:	e8 62 d5 01 00       	call   206f3 <abort>
    3191:	83 85 18 ff ff ff 01 	add    DWORD PTR [rbp-0xe8],0x1
    3198:	eb c9                	jmp    3163 <_ZL8_EGETKEYP14_key_request_tPh+0xf9>
    319a:	48 8b 85 08 ff ff ff 	mov    rax,QWORD PTR [rbp-0xf8]
    31a1:	48 83 c0 4e          	add    rax,0x4e
    31a5:	48 89 85 20 ff ff ff 	mov    QWORD PTR [rbp-0xe0],rax
    31ac:	c7 85 1c ff ff ff 00 	mov    DWORD PTR [rbp-0xe4],0x0
    31b3:	00 00 00 
    31b6:	81 bd 1c ff ff ff b1 	cmp    DWORD PTR [rbp-0xe4],0x1b1
    31bd:	01 00 00 
    31c0:	77 2e                	ja     31f0 <_ZL8_EGETKEYP14_key_request_tPh+0x186>
    31c2:	8b 95 1c ff ff ff    	mov    edx,DWORD PTR [rbp-0xe4]
    31c8:	48 8b 85 20 ff ff ff 	mov    rax,QWORD PTR [rbp-0xe0]
    31cf:	48 01 d0             	add    rax,rdx
    31d2:	0f b6 00             	movzx  eax,BYTE PTR [rax]
    31d5:	84 c0                	test   al,al
    31d7:	0f 95 c0             	setne  al
    31da:	0f b6 c0             	movzx  eax,al
    31dd:	48 85 c0             	test   rax,rax
    31e0:	74 05                	je     31e7 <_ZL8_EGETKEYP14_key_request_tPh+0x17d>
    31e2:	e8 0c d5 01 00       	call   206f3 <abort>
    31e7:	83 85 1c ff ff ff 01 	add    DWORD PTR [rbp-0xe4],0x1
    31ee:	eb c6                	jmp    31b6 <_ZL8_EGETKEYP14_key_request_tPh+0x14c>
    31f0:	48 8b 05 69 42 22 00 	mov    rax,QWORD PTR [rip+0x224269]        # 227460 <g_global_data_sim>
    31f7:	48 89 85 28 ff ff ff 	mov    QWORD PTR [rbp-0xd8],rax
    31fe:	48 8d 85 40 ff ff ff 	lea    rax,[rbp-0xc0]
    3205:	ba b8 00 00 00       	mov    edx,0xb8
    320a:	be 00 00 00 00       	mov    esi,0x0
    320f:	48 89 c7             	mov    rdi,rax
    3212:	e8 df 75 00 00       	call   a7f6 <memset>
    3217:	48 8b 85 08 ff ff ff 	mov    rax,QWORD PTR [rbp-0xf8]
    321e:	0f b7 00             	movzx  eax,WORD PTR [rax]
    3221:	66 89 85 48 ff ff ff 	mov    WORD PTR [rbp-0xb8],ax
    3228:	48 8d 85 30 ff ff ff 	lea    rax,[rbp-0xd0]
    322f:	ba 10 00 00 00       	mov    edx,0x10
    3234:	be 00 00 00 00       	mov    esi,0x0
    3239:	48 89 c7             	mov    rdi,rax
    323c:	e8 b5 75 00 00       	call   a7f6 <memset>
    3241:	48 8b 85 08 ff ff ff 	mov    rax,QWORD PTR [rbp-0xf8]
    3248:	48 8b 40 18          	mov    rax,QWORD PTR [rax+0x18]
    324c:	48 83 c8 03          	or     rax,0x3
    3250:	48 89 85 30 ff ff ff 	mov    QWORD PTR [rbp-0xd0],rax
    3257:	48 8b 95 30 ff ff ff 	mov    rdx,QWORD PTR [rbp-0xd0]
    325e:	48 8b 85 28 ff ff ff 	mov    rax,QWORD PTR [rbp-0xd8]
    3265:	48 8b 40 30          	mov    rax,QWORD PTR [rax+0x30]
    3269:	48 21 d0             	and    rax,rdx
    326c:	48 89 85 30 ff ff ff 	mov    QWORD PTR [rbp-0xd0],rax
    3273:	48 8b 85 08 ff ff ff 	mov    rax,QWORD PTR [rbp-0xf8]
    327a:	48 8b 50 20          	mov    rdx,QWORD PTR [rax+0x20]
    327e:	48 8b 85 28 ff ff ff 	mov    rax,QWORD PTR [rbp-0xd8]
    3285:	48 8b 40 38          	mov    rax,QWORD PTR [rax+0x38]
    3289:	48 21 d0             	and    rax,rdx
    328c:	48 89 85 38 ff ff ff 	mov    QWORD PTR [rbp-0xc8],rax
    3293:	48 8b 85 08 ff ff ff 	mov    rax,QWORD PTR [rbp-0xf8]
    329a:	48 83 c0 08          	add    rax,0x8
    329e:	48 8d 95 40 ff ff ff 	lea    rdx,[rbp-0xc0]
    32a5:	48 8d 4a 30          	lea    rcx,[rdx+0x30]
    32a9:	ba 10 00 00 00       	mov    edx,0x10
    32ae:	48 89 ce             	mov    rsi,rcx
    32b1:	48 89 c7             	mov    rdi,rax
    32b4:	e8 31 73 00 00       	call   a5ea <memcmp>
    32b9:	85 c0                	test   eax,eax
    32bb:	0f 94 c0             	sete   al
    32be:	84 c0                	test   al,al
    32c0:	74 1f                	je     32e1 <_ZL8_EGETKEYP14_key_request_tPh+0x277>
    32c2:	48 8b 85 08 ff ff ff 	mov    rax,QWORD PTR [rbp-0xf8]
    32c9:	48 83 c0 08          	add    rax,0x8
    32cd:	ba 10 00 00 00       	mov    edx,0x10
    32d2:	48 8d 35 e7 d5 01 00 	lea    rsi,[rip+0x1d5e7]        # 208c0 <_ZL14DEFAULT_CPUSVN>
    32d9:	48 89 c7             	mov    rdi,rax
    32dc:	e8 a7 74 00 00       	call   a788 <memcpy>
    32e1:	48 8b 85 08 ff ff ff 	mov    rax,QWORD PTR [rbp-0xf8]
    32e8:	0f b7 00             	movzx  eax,WORD PTR [rax]
    32eb:	0f b7 c0             	movzx  eax,ax
    32ee:	83 f8 04             	cmp    eax,0x4
    32f1:	0f 87 c8 07 00 00    	ja     3abf <_ZL8_EGETKEYP14_key_request_tPh+0xa55>
    32f7:	89 c0                	mov    eax,eax
    32f9:	48 8d 14 85 00 00 00 	lea    rdx,[rax*4+0x0]
    3300:	00 
    3301:	48 8d 05 f8 d5 01 00 	lea    rax,[rip+0x1d5f8]        # 20900 <_ZL20SIMU_OWNER_EPOCH_MSR+0x10>
    3308:	8b 04 02             	mov    eax,DWORD PTR [rdx+rax*1]
    330b:	48 63 d0             	movsxd rdx,eax
    330e:	48 8d 05 eb d5 01 00 	lea    rax,[rip+0x1d5eb]        # 20900 <_ZL20SIMU_OWNER_EPOCH_MSR+0x10>
    3315:	48 01 d0             	add    rax,rdx
    3318:	ff e0                	jmp    rax
    331a:	48 8b 85 08 ff ff ff 	mov    rax,QWORD PTR [rbp-0xf8]
    3321:	0f b7 50 04          	movzx  edx,WORD PTR [rax+0x4]
    3325:	48 8b 85 28 ff ff ff 	mov    rax,QWORD PTR [rbp-0xd8]
    332c:	0f b7 80 02 01 00 00 	movzx  eax,WORD PTR [rax+0x102]
    3333:	66 39 c2             	cmp    dx,ax
    3336:	76 0a                	jbe    3342 <_ZL8_EGETKEYP14_key_request_tPh+0x2d8>
    3338:	b8 40 00 00 00       	mov    eax,0x40
    333d:	e9 a2 07 00 00       	jmp    3ae4 <_ZL8_EGETKEYP14_key_request_tPh+0xa7a>
    3342:	48 8b 85 08 ff ff ff 	mov    rax,QWORD PTR [rbp-0xf8]
    3349:	48 83 c0 08          	add    rax,0x8
    334d:	ba 10 00 00 00       	mov    edx,0x10
    3352:	48 8d 35 77 d5 01 00 	lea    rsi,[rip+0x1d577]        # 208d0 <_ZL15UPGRADED_CPUSVN>
    3359:	48 89 c7             	mov    rdi,rax
    335c:	e8 89 72 00 00       	call   a5ea <memcmp>
    3361:	85 c0                	test   eax,eax
    3363:	74 4d                	je     33b2 <_ZL8_EGETKEYP14_key_request_tPh+0x348>
    3365:	48 8b 85 08 ff ff ff 	mov    rax,QWORD PTR [rbp-0xf8]
    336c:	48 83 c0 08          	add    rax,0x8
    3370:	ba 10 00 00 00       	mov    edx,0x10
    3375:	48 8d 35 44 d5 01 00 	lea    rsi,[rip+0x1d544]        # 208c0 <_ZL14DEFAULT_CPUSVN>
    337c:	48 89 c7             	mov    rdi,rax
    337f:	e8 66 72 00 00       	call   a5ea <memcmp>
    3384:	85 c0                	test   eax,eax
    3386:	74 2a                	je     33b2 <_ZL8_EGETKEYP14_key_request_tPh+0x348>
    3388:	48 8b 85 08 ff ff ff 	mov    rax,QWORD PTR [rbp-0xf8]
    338f:	48 83 c0 08          	add    rax,0x8
    3393:	ba 10 00 00 00       	mov    edx,0x10
    3398:	48 8d 35 41 d5 01 00 	lea    rsi,[rip+0x1d541]        # 208e0 <_ZL17DOWNGRADED_CPUSVN>
    339f:	48 89 c7             	mov    rdi,rax
    33a2:	e8 43 72 00 00       	call   a5ea <memcmp>
    33a7:	85 c0                	test   eax,eax
    33a9:	74 07                	je     33b2 <_ZL8_EGETKEYP14_key_request_tPh+0x348>
    33ab:	b8 01 00 00 00       	mov    eax,0x1
    33b0:	eb 05                	jmp    33b7 <_ZL8_EGETKEYP14_key_request_tPh+0x34d>
    33b2:	b8 00 00 00 00       	mov    eax,0x0
    33b7:	84 c0                	test   al,al
    33b9:	74 0a                	je     33c5 <_ZL8_EGETKEYP14_key_request_tPh+0x35b>
    33bb:	b8 20 00 00 00       	mov    eax,0x20
    33c0:	e9 1f 07 00 00       	jmp    3ae4 <_ZL8_EGETKEYP14_key_request_tPh+0xa7a>
    33c5:	ba 10 00 00 00       	mov    edx,0x10
    33ca:	48 8d 35 ef d4 01 00 	lea    rsi,[rip+0x1d4ef]        # 208c0 <_ZL14DEFAULT_CPUSVN>
    33d1:	48 8d 3d 90 40 22 00 	lea    rdi,[rip+0x224090]        # 227468 <g_global_data_sim+0x8>
    33d8:	e8 0d 72 00 00       	call   a5ea <memcmp>
    33dd:	85 c0                	test   eax,eax
    33df:	75 23                	jne    3404 <_ZL8_EGETKEYP14_key_request_tPh+0x39a>
    33e1:	48 8b 85 08 ff ff ff 	mov    rax,QWORD PTR [rbp-0xf8]
    33e8:	48 83 c0 08          	add    rax,0x8
    33ec:	ba 10 00 00 00       	mov    edx,0x10
    33f1:	48 8d 35 d8 d4 01 00 	lea    rsi,[rip+0x1d4d8]        # 208d0 <_ZL15UPGRADED_CPUSVN>
    33f8:	48 89 c7             	mov    rdi,rax
    33fb:	e8 ea 71 00 00       	call   a5ea <memcmp>
    3400:	85 c0                	test   eax,eax
    3402:	74 3f                	je     3443 <_ZL8_EGETKEYP14_key_request_tPh+0x3d9>
    3404:	ba 10 00 00 00       	mov    edx,0x10
    3409:	48 8d 35 d0 d4 01 00 	lea    rsi,[rip+0x1d4d0]        # 208e0 <_ZL17DOWNGRADED_CPUSVN>
    3410:	48 8d 3d 51 40 22 00 	lea    rdi,[rip+0x224051]        # 227468 <g_global_data_sim+0x8>
    3417:	e8 ce 71 00 00       	call   a5ea <memcmp>
    341c:	85 c0                	test   eax,eax
    341e:	75 2a                	jne    344a <_ZL8_EGETKEYP14_key_request_tPh+0x3e0>
    3420:	48 8b 85 08 ff ff ff 	mov    rax,QWORD PTR [rbp-0xf8]
    3427:	48 83 c0 08          	add    rax,0x8
    342b:	ba 10 00 00 00       	mov    edx,0x10
    3430:	48 8d 35 a9 d4 01 00 	lea    rsi,[rip+0x1d4a9]        # 208e0 <_ZL17DOWNGRADED_CPUSVN>
    3437:	48 89 c7             	mov    rdi,rax
    343a:	e8 ab 71 00 00       	call   a5ea <memcmp>
    343f:	85 c0                	test   eax,eax
    3441:	74 07                	je     344a <_ZL8_EGETKEYP14_key_request_tPh+0x3e0>
    3443:	b8 01 00 00 00       	mov    eax,0x1
    3448:	eb 05                	jmp    344f <_ZL8_EGETKEYP14_key_request_tPh+0x3e5>
    344a:	b8 00 00 00 00       	mov    eax,0x0
    344f:	84 c0                	test   al,al
    3451:	74 0a                	je     345d <_ZL8_EGETKEYP14_key_request_tPh+0x3f3>
    3453:	b8 20 00 00 00       	mov    eax,0x20
    3458:	e9 87 06 00 00       	jmp    3ae4 <_ZL8_EGETKEYP14_key_request_tPh+0xa7a>
    345d:	c7 85 40 ff ff ff b0 	mov    DWORD PTR [rbp-0xc0],0xb0
    3464:	00 00 00 
    3467:	48 8b 85 08 ff ff ff 	mov    rax,QWORD PTR [rbp-0xf8]
    346e:	0f b7 40 02          	movzx  eax,WORD PTR [rax+0x2]
    3472:	0f b7 c0             	movzx  eax,ax
    3475:	83 e0 01             	and    eax,0x1
    3478:	85 c0                	test   eax,eax
    347a:	74 26                	je     34a2 <_ZL8_EGETKEYP14_key_request_tPh+0x438>
    347c:	48 8b 85 28 ff ff ff 	mov    rax,QWORD PTR [rbp-0xd8]
    3483:	48 8d 48 40          	lea    rcx,[rax+0x40]
    3487:	48 8d 85 40 ff ff ff 	lea    rax,[rbp-0xc0]
    348e:	48 83 c0 54          	add    rax,0x54
    3492:	ba 20 00 00 00       	mov    edx,0x20
    3497:	48 89 ce             	mov    rsi,rcx
    349a:	48 89 c7             	mov    rdi,rax
    349d:	e8 e6 72 00 00       	call   a788 <memcpy>
    34a2:	48 8b 85 08 ff ff ff 	mov    rax,QWORD PTR [rbp-0xf8]
    34a9:	0f b7 40 02          	movzx  eax,WORD PTR [rax+0x2]
    34ad:	0f b7 c0             	movzx  eax,ax
    34b0:	83 e0 02             	and    eax,0x2
    34b3:	85 c0                	test   eax,eax
    34b5:	74 29                	je     34e0 <_ZL8_EGETKEYP14_key_request_tPh+0x476>
    34b7:	48 8b 85 28 ff ff ff 	mov    rax,QWORD PTR [rbp-0xd8]
    34be:	48 8d 88 80 00 00 00 	lea    rcx,[rax+0x80]
    34c5:	48 8d 85 40 ff ff ff 	lea    rax,[rbp-0xc0]
    34cc:	48 83 c0 74          	add    rax,0x74
    34d0:	ba 20 00 00 00       	mov    edx,0x20
    34d5:	48 89 ce             	mov    rsi,rcx
    34d8:	48 89 c7             	mov    rdi,rax
    34db:	e8 a8 72 00 00       	call   a788 <memcpy>
    34e0:	48 8d 85 30 ff ff ff 	lea    rax,[rbp-0xd0]
    34e7:	48 8d 95 40 ff ff ff 	lea    rdx,[rbp-0xc0]
    34ee:	48 8d 4a 10          	lea    rcx,[rdx+0x10]
    34f2:	ba 10 00 00 00       	mov    edx,0x10
    34f7:	48 89 c6             	mov    rsi,rax
    34fa:	48 89 cf             	mov    rdi,rcx
    34fd:	e8 86 72 00 00       	call   a788 <memcpy>
    3502:	48 8b 85 08 ff ff ff 	mov    rax,QWORD PTR [rbp-0xf8]
    3509:	48 8d 48 18          	lea    rcx,[rax+0x18]
    350d:	48 8d 85 40 ff ff ff 	lea    rax,[rbp-0xc0]
    3514:	48 83 c0 20          	add    rax,0x20
    3518:	ba 10 00 00 00       	mov    edx,0x10
    351d:	48 89 ce             	mov    rsi,rcx
    3520:	48 89 c7             	mov    rdi,rax
    3523:	e8 60 72 00 00       	call   a788 <memcpy>
    3528:	48 8d 85 40 ff ff ff 	lea    rax,[rbp-0xc0]
    352f:	48 83 c0 30          	add    rax,0x30
    3533:	ba 10 00 00 00       	mov    edx,0x10
    3538:	48 8d 35 b1 d3 01 00 	lea    rsi,[rip+0x1d3b1]        # 208f0 <_ZL20SIMU_OWNER_EPOCH_MSR>
    353f:	48 89 c7             	mov    rdi,rax
    3542:	e8 41 72 00 00       	call   a788 <memcpy>
    3547:	48 8b 85 08 ff ff ff 	mov    rax,QWORD PTR [rbp-0xf8]
    354e:	48 8d 48 08          	lea    rcx,[rax+0x8]
    3552:	48 8d 85 40 ff ff ff 	lea    rax,[rbp-0xc0]
    3559:	48 83 c0 40          	add    rax,0x40
    355d:	ba 10 00 00 00       	mov    edx,0x10
    3562:	48 89 ce             	mov    rsi,rcx
    3565:	48 89 c7             	mov    rdi,rax
    3568:	e8 1b 72 00 00       	call   a788 <memcpy>
    356d:	48 8b 85 08 ff ff ff 	mov    rax,QWORD PTR [rbp-0xf8]
    3574:	0f b7 40 04          	movzx  eax,WORD PTR [rax+0x4]
    3578:	66 89 45 90          	mov    WORD PTR [rbp-0x70],ax
    357c:	48 8b 85 28 ff ff ff 	mov    rax,QWORD PTR [rbp-0xd8]
    3583:	0f b7 80 00 01 00 00 	movzx  eax,WORD PTR [rax+0x100]
    358a:	66 89 45 92          	mov    WORD PTR [rbp-0x6e],ax
    358e:	48 8b 85 08 ff ff ff 	mov    rax,QWORD PTR [rbp-0xf8]
    3595:	48 8d 48 28          	lea    rcx,[rax+0x28]
    3599:	48 8d 85 40 ff ff ff 	lea    rax,[rbp-0xc0]
    35a0:	48 05 94 00 00 00    	add    rax,0x94
    35a6:	ba 20 00 00 00       	mov    edx,0x20
    35ab:	48 89 ce             	mov    rsi,rcx
    35ae:	48 89 c7             	mov    rdi,rax
    35b1:	e8 d2 71 00 00       	call   a788 <memcpy>
    35b6:	e9 0b 05 00 00       	jmp    3ac6 <_ZL8_EGETKEYP14_key_request_tPh+0xa5c>
    35bb:	c7 85 40 ff ff ff 78 	mov    DWORD PTR [rbp-0xc0],0x78
    35c2:	00 00 00 
    35c5:	48 8b 85 28 ff ff ff 	mov    rax,QWORD PTR [rbp-0xd8]
    35cc:	48 8d 48 30          	lea    rcx,[rax+0x30]
    35d0:	48 8d 85 40 ff ff ff 	lea    rax,[rbp-0xc0]
    35d7:	48 83 c0 10          	add    rax,0x10
    35db:	ba 10 00 00 00       	mov    edx,0x10
    35e0:	48 89 ce             	mov    rsi,rcx
    35e3:	48 89 c7             	mov    rdi,rax
    35e6:	e8 9d 71 00 00       	call   a788 <memcpy>
    35eb:	48 8d 85 40 ff ff ff 	lea    rax,[rbp-0xc0]
    35f2:	48 83 c0 20          	add    rax,0x20
    35f6:	ba 10 00 00 00       	mov    edx,0x10
    35fb:	48 8d 35 ee d2 01 00 	lea    rsi,[rip+0x1d2ee]        # 208f0 <_ZL20SIMU_OWNER_EPOCH_MSR>
    3602:	48 89 c7             	mov    rdi,rax
    3605:	e8 7e 71 00 00       	call   a788 <memcpy>
    360a:	48 8d 85 40 ff ff ff 	lea    rax,[rbp-0xc0]
    3611:	48 83 c0 50          	add    rax,0x50
    3615:	ba 10 00 00 00       	mov    edx,0x10
    361a:	48 8d 35 47 3e 22 00 	lea    rsi,[rip+0x223e47]        # 227468 <g_global_data_sim+0x8>
    3621:	48 89 c7             	mov    rdi,rax
    3624:	e8 5f 71 00 00       	call   a788 <memcpy>
    3629:	48 8b 85 28 ff ff ff 	mov    rax,QWORD PTR [rbp-0xd8]
    3630:	48 8d 48 40          	lea    rcx,[rax+0x40]
    3634:	48 8d 85 40 ff ff ff 	lea    rax,[rbp-0xc0]
    363b:	48 83 c0 30          	add    rax,0x30
    363f:	ba 20 00 00 00       	mov    edx,0x20
    3644:	48 89 ce             	mov    rsi,rcx
    3647:	48 89 c7             	mov    rdi,rax
    364a:	e8 39 71 00 00       	call   a788 <memcpy>
    364f:	48 8b 85 08 ff ff ff 	mov    rax,QWORD PTR [rbp-0xf8]
    3656:	48 8d 48 28          	lea    rcx,[rax+0x28]
    365a:	48 8d 85 40 ff ff ff 	lea    rax,[rbp-0xc0]
    3661:	48 83 c0 60          	add    rax,0x60
    3665:	ba 20 00 00 00       	mov    edx,0x20
    366a:	48 89 ce             	mov    rsi,rcx
    366d:	48 89 c7             	mov    rdi,rax
    3670:	e8 13 71 00 00       	call   a788 <memcpy>
    3675:	e9 4c 04 00 00       	jmp    3ac6 <_ZL8_EGETKEYP14_key_request_tPh+0xa5c>
    367a:	48 8b 85 28 ff ff ff 	mov    rax,QWORD PTR [rbp-0xd8]
    3681:	48 8b 40 30          	mov    rax,QWORD PTR [rax+0x30]
    3685:	83 e0 20             	and    eax,0x20
    3688:	48 85 c0             	test   rax,rax
    368b:	75 0a                	jne    3697 <_ZL8_EGETKEYP14_key_request_tPh+0x62d>
    368d:	b8 02 00 00 00       	mov    eax,0x2
    3692:	e9 4d 04 00 00       	jmp    3ae4 <_ZL8_EGETKEYP14_key_request_tPh+0xa7a>
    3697:	48 8b 85 08 ff ff ff 	mov    rax,QWORD PTR [rbp-0xf8]
    369e:	0f b7 50 04          	movzx  edx,WORD PTR [rax+0x4]
    36a2:	48 8b 85 28 ff ff ff 	mov    rax,QWORD PTR [rbp-0xd8]
    36a9:	0f b7 80 02 01 00 00 	movzx  eax,WORD PTR [rax+0x102]
    36b0:	66 39 c2             	cmp    dx,ax
    36b3:	76 0a                	jbe    36bf <_ZL8_EGETKEYP14_key_request_tPh+0x655>
    36b5:	b8 40 00 00 00       	mov    eax,0x40
    36ba:	e9 25 04 00 00       	jmp    3ae4 <_ZL8_EGETKEYP14_key_request_tPh+0xa7a>
    36bf:	48 8b 85 08 ff ff ff 	mov    rax,QWORD PTR [rbp-0xf8]
    36c6:	48 83 c0 08          	add    rax,0x8
    36ca:	ba 10 00 00 00       	mov    edx,0x10
    36cf:	48 8d 35 fa d1 01 00 	lea    rsi,[rip+0x1d1fa]        # 208d0 <_ZL15UPGRADED_CPUSVN>
    36d6:	48 89 c7             	mov    rdi,rax
    36d9:	e8 0c 6f 00 00       	call   a5ea <memcmp>
    36de:	85 c0                	test   eax,eax
    36e0:	74 4d                	je     372f <_ZL8_EGETKEYP14_key_request_tPh+0x6c5>
    36e2:	48 8b 85 08 ff ff ff 	mov    rax,QWORD PTR [rbp-0xf8]
    36e9:	48 83 c0 08          	add    rax,0x8
    36ed:	ba 10 00 00 00       	mov    edx,0x10
    36f2:	48 8d 35 c7 d1 01 00 	lea    rsi,[rip+0x1d1c7]        # 208c0 <_ZL14DEFAULT_CPUSVN>
    36f9:	48 89 c7             	mov    rdi,rax
    36fc:	e8 e9 6e 00 00       	call   a5ea <memcmp>
    3701:	85 c0                	test   eax,eax
    3703:	74 2a                	je     372f <_ZL8_EGETKEYP14_key_request_tPh+0x6c5>
    3705:	48 8b 85 08 ff ff ff 	mov    rax,QWORD PTR [rbp-0xf8]
    370c:	48 83 c0 08          	add    rax,0x8
    3710:	ba 10 00 00 00       	mov    edx,0x10
    3715:	48 8d 35 c4 d1 01 00 	lea    rsi,[rip+0x1d1c4]        # 208e0 <_ZL17DOWNGRADED_CPUSVN>
    371c:	48 89 c7             	mov    rdi,rax
    371f:	e8 c6 6e 00 00       	call   a5ea <memcmp>
    3724:	85 c0                	test   eax,eax
    3726:	74 07                	je     372f <_ZL8_EGETKEYP14_key_request_tPh+0x6c5>
    3728:	b8 01 00 00 00       	mov    eax,0x1
    372d:	eb 05                	jmp    3734 <_ZL8_EGETKEYP14_key_request_tPh+0x6ca>
    372f:	b8 00 00 00 00       	mov    eax,0x0
    3734:	84 c0                	test   al,al
    3736:	74 0a                	je     3742 <_ZL8_EGETKEYP14_key_request_tPh+0x6d8>
    3738:	b8 20 00 00 00       	mov    eax,0x20
    373d:	e9 a2 03 00 00       	jmp    3ae4 <_ZL8_EGETKEYP14_key_request_tPh+0xa7a>
    3742:	ba 10 00 00 00       	mov    edx,0x10
    3747:	48 8d 35 72 d1 01 00 	lea    rsi,[rip+0x1d172]        # 208c0 <_ZL14DEFAULT_CPUSVN>
    374e:	48 8d 3d 13 3d 22 00 	lea    rdi,[rip+0x223d13]        # 227468 <g_global_data_sim+0x8>
    3755:	e8 90 6e 00 00       	call   a5ea <memcmp>
    375a:	85 c0                	test   eax,eax
    375c:	75 23                	jne    3781 <_ZL8_EGETKEYP14_key_request_tPh+0x717>
    375e:	48 8b 85 08 ff ff ff 	mov    rax,QWORD PTR [rbp-0xf8]
    3765:	48 83 c0 08          	add    rax,0x8
    3769:	ba 10 00 00 00       	mov    edx,0x10
    376e:	48 8d 35 5b d1 01 00 	lea    rsi,[rip+0x1d15b]        # 208d0 <_ZL15UPGRADED_CPUSVN>
    3775:	48 89 c7             	mov    rdi,rax
    3778:	e8 6d 6e 00 00       	call   a5ea <memcmp>
    377d:	85 c0                	test   eax,eax
    377f:	74 3f                	je     37c0 <_ZL8_EGETKEYP14_key_request_tPh+0x756>
    3781:	ba 10 00 00 00       	mov    edx,0x10
    3786:	48 8d 35 53 d1 01 00 	lea    rsi,[rip+0x1d153]        # 208e0 <_ZL17DOWNGRADED_CPUSVN>
    378d:	48 8d 3d d4 3c 22 00 	lea    rdi,[rip+0x223cd4]        # 227468 <g_global_data_sim+0x8>
    3794:	e8 51 6e 00 00       	call   a5ea <memcmp>
    3799:	85 c0                	test   eax,eax
    379b:	75 2a                	jne    37c7 <_ZL8_EGETKEYP14_key_request_tPh+0x75d>
    379d:	48 8b 85 08 ff ff ff 	mov    rax,QWORD PTR [rbp-0xf8]
    37a4:	48 83 c0 08          	add    rax,0x8
    37a8:	ba 10 00 00 00       	mov    edx,0x10
    37ad:	48 8d 35 2c d1 01 00 	lea    rsi,[rip+0x1d12c]        # 208e0 <_ZL17DOWNGRADED_CPUSVN>
    37b4:	48 89 c7             	mov    rdi,rax
    37b7:	e8 2e 6e 00 00       	call   a5ea <memcmp>
    37bc:	85 c0                	test   eax,eax
    37be:	74 07                	je     37c7 <_ZL8_EGETKEYP14_key_request_tPh+0x75d>
    37c0:	b8 01 00 00 00       	mov    eax,0x1
    37c5:	eb 05                	jmp    37cc <_ZL8_EGETKEYP14_key_request_tPh+0x762>
    37c7:	b8 00 00 00 00       	mov    eax,0x0
    37cc:	84 c0                	test   al,al
    37ce:	74 0a                	je     37da <_ZL8_EGETKEYP14_key_request_tPh+0x770>
    37d0:	b8 20 00 00 00       	mov    eax,0x20
    37d5:	e9 0a 03 00 00       	jmp    3ae4 <_ZL8_EGETKEYP14_key_request_tPh+0xa7a>
    37da:	c7 85 40 ff ff ff 60 	mov    DWORD PTR [rbp-0xc0],0x60
    37e1:	00 00 00 
    37e4:	48 8b 85 28 ff ff ff 	mov    rax,QWORD PTR [rbp-0xd8]
    37eb:	48 8d 48 30          	lea    rcx,[rax+0x30]
    37ef:	48 8d 85 40 ff ff ff 	lea    rax,[rbp-0xc0]
    37f6:	48 83 c0 10          	add    rax,0x10
    37fa:	ba 10 00 00 00       	mov    edx,0x10
    37ff:	48 89 ce             	mov    rsi,rcx
    3802:	48 89 c7             	mov    rdi,rax
    3805:	e8 7e 6f 00 00       	call   a788 <memcpy>
    380a:	48 8d 85 40 ff ff ff 	lea    rax,[rbp-0xc0]
    3811:	48 83 c0 20          	add    rax,0x20
    3815:	ba 10 00 00 00       	mov    edx,0x10
    381a:	48 8d 35 cf d0 01 00 	lea    rsi,[rip+0x1d0cf]        # 208f0 <_ZL20SIMU_OWNER_EPOCH_MSR>
    3821:	48 89 c7             	mov    rdi,rax
    3824:	e8 5f 6f 00 00       	call   a788 <memcpy>
    3829:	48 8b 85 08 ff ff ff 	mov    rax,QWORD PTR [rbp-0xf8]
    3830:	48 8d 48 08          	lea    rcx,[rax+0x8]
    3834:	48 8d 85 40 ff ff ff 	lea    rax,[rbp-0xc0]
    383b:	48 83 c0 30          	add    rax,0x30
    383f:	ba 10 00 00 00       	mov    edx,0x10
    3844:	48 89 ce             	mov    rsi,rcx
    3847:	48 89 c7             	mov    rdi,rax
    384a:	e8 39 6f 00 00       	call   a788 <memcpy>
    384f:	48 8b 85 08 ff ff ff 	mov    rax,QWORD PTR [rbp-0xf8]
    3856:	0f b7 40 04          	movzx  eax,WORD PTR [rax+0x4]
    385a:	66 89 45 80          	mov    WORD PTR [rbp-0x80],ax
    385e:	48 8b 85 28 ff ff ff 	mov    rax,QWORD PTR [rbp-0xd8]
    3865:	0f b7 80 00 01 00 00 	movzx  eax,WORD PTR [rax+0x100]
    386c:	66 89 45 82          	mov    WORD PTR [rbp-0x7e],ax
    3870:	48 8b 85 08 ff ff ff 	mov    rax,QWORD PTR [rbp-0xf8]
    3877:	48 8d 48 28          	lea    rcx,[rax+0x28]
    387b:	48 8d 85 40 ff ff ff 	lea    rax,[rbp-0xc0]
    3882:	48 83 c0 44          	add    rax,0x44
    3886:	ba 20 00 00 00       	mov    edx,0x20
    388b:	48 89 ce             	mov    rsi,rcx
    388e:	48 89 c7             	mov    rdi,rax
    3891:	e8 f2 6e 00 00       	call   a788 <memcpy>
    3896:	e9 2b 02 00 00       	jmp    3ac6 <_ZL8_EGETKEYP14_key_request_tPh+0xa5c>
    389b:	48 8b 85 28 ff ff ff 	mov    rax,QWORD PTR [rbp-0xd8]
    38a2:	48 8b 40 30          	mov    rax,QWORD PTR [rax+0x30]
    38a6:	83 e0 10             	and    eax,0x10
    38a9:	48 85 c0             	test   rax,rax
    38ac:	75 0a                	jne    38b8 <_ZL8_EGETKEYP14_key_request_tPh+0x84e>
    38ae:	b8 02 00 00 00       	mov    eax,0x2
    38b3:	e9 2c 02 00 00       	jmp    3ae4 <_ZL8_EGETKEYP14_key_request_tPh+0xa7a>
    38b8:	48 8b 85 08 ff ff ff 	mov    rax,QWORD PTR [rbp-0xf8]
    38bf:	0f b7 50 04          	movzx  edx,WORD PTR [rax+0x4]
    38c3:	48 8b 85 28 ff ff ff 	mov    rax,QWORD PTR [rbp-0xd8]
    38ca:	0f b7 80 02 01 00 00 	movzx  eax,WORD PTR [rax+0x102]
    38d1:	66 39 c2             	cmp    dx,ax
    38d4:	76 0a                	jbe    38e0 <_ZL8_EGETKEYP14_key_request_tPh+0x876>
    38d6:	b8 40 00 00 00       	mov    eax,0x40
    38db:	e9 04 02 00 00       	jmp    3ae4 <_ZL8_EGETKEYP14_key_request_tPh+0xa7a>
    38e0:	48 8b 85 08 ff ff ff 	mov    rax,QWORD PTR [rbp-0xf8]
    38e7:	48 83 c0 08          	add    rax,0x8
    38eb:	ba 10 00 00 00       	mov    edx,0x10
    38f0:	48 8d 35 d9 cf 01 00 	lea    rsi,[rip+0x1cfd9]        # 208d0 <_ZL15UPGRADED_CPUSVN>
    38f7:	48 89 c7             	mov    rdi,rax
    38fa:	e8 eb 6c 00 00       	call   a5ea <memcmp>
    38ff:	85 c0                	test   eax,eax
    3901:	74 4d                	je     3950 <_ZL8_EGETKEYP14_key_request_tPh+0x8e6>
    3903:	48 8b 85 08 ff ff ff 	mov    rax,QWORD PTR [rbp-0xf8]
    390a:	48 83 c0 08          	add    rax,0x8
    390e:	ba 10 00 00 00       	mov    edx,0x10
    3913:	48 8d 35 a6 cf 01 00 	lea    rsi,[rip+0x1cfa6]        # 208c0 <_ZL14DEFAULT_CPUSVN>
    391a:	48 89 c7             	mov    rdi,rax
    391d:	e8 c8 6c 00 00       	call   a5ea <memcmp>
    3922:	85 c0                	test   eax,eax
    3924:	74 2a                	je     3950 <_ZL8_EGETKEYP14_key_request_tPh+0x8e6>
    3926:	48 8b 85 08 ff ff ff 	mov    rax,QWORD PTR [rbp-0xf8]
    392d:	48 83 c0 08          	add    rax,0x8
    3931:	ba 10 00 00 00       	mov    edx,0x10
    3936:	48 8d 35 a3 cf 01 00 	lea    rsi,[rip+0x1cfa3]        # 208e0 <_ZL17DOWNGRADED_CPUSVN>
    393d:	48 89 c7             	mov    rdi,rax
    3940:	e8 a5 6c 00 00       	call   a5ea <memcmp>
    3945:	85 c0                	test   eax,eax
    3947:	74 07                	je     3950 <_ZL8_EGETKEYP14_key_request_tPh+0x8e6>
    3949:	b8 01 00 00 00       	mov    eax,0x1
    394e:	eb 05                	jmp    3955 <_ZL8_EGETKEYP14_key_request_tPh+0x8eb>
    3950:	b8 00 00 00 00       	mov    eax,0x0
    3955:	84 c0                	test   al,al
    3957:	74 0a                	je     3963 <_ZL8_EGETKEYP14_key_request_tPh+0x8f9>
    3959:	b8 20 00 00 00       	mov    eax,0x20
    395e:	e9 81 01 00 00       	jmp    3ae4 <_ZL8_EGETKEYP14_key_request_tPh+0xa7a>
    3963:	ba 10 00 00 00       	mov    edx,0x10
    3968:	48 8d 35 51 cf 01 00 	lea    rsi,[rip+0x1cf51]        # 208c0 <_ZL14DEFAULT_CPUSVN>
    396f:	48 8d 3d f2 3a 22 00 	lea    rdi,[rip+0x223af2]        # 227468 <g_global_data_sim+0x8>
    3976:	e8 6f 6c 00 00       	call   a5ea <memcmp>
    397b:	85 c0                	test   eax,eax
    397d:	75 23                	jne    39a2 <_ZL8_EGETKEYP14_key_request_tPh+0x938>
    397f:	48 8b 85 08 ff ff ff 	mov    rax,QWORD PTR [rbp-0xf8]
    3986:	48 83 c0 08          	add    rax,0x8
    398a:	ba 10 00 00 00       	mov    edx,0x10
    398f:	48 8d 35 3a cf 01 00 	lea    rsi,[rip+0x1cf3a]        # 208d0 <_ZL15UPGRADED_CPUSVN>
    3996:	48 89 c7             	mov    rdi,rax
    3999:	e8 4c 6c 00 00       	call   a5ea <memcmp>
    399e:	85 c0                	test   eax,eax
    39a0:	74 3f                	je     39e1 <_ZL8_EGETKEYP14_key_request_tPh+0x977>
    39a2:	ba 10 00 00 00       	mov    edx,0x10
    39a7:	48 8d 35 32 cf 01 00 	lea    rsi,[rip+0x1cf32]        # 208e0 <_ZL17DOWNGRADED_CPUSVN>
    39ae:	48 8d 3d b3 3a 22 00 	lea    rdi,[rip+0x223ab3]        # 227468 <g_global_data_sim+0x8>
    39b5:	e8 30 6c 00 00       	call   a5ea <memcmp>
    39ba:	85 c0                	test   eax,eax
    39bc:	75 2a                	jne    39e8 <_ZL8_EGETKEYP14_key_request_tPh+0x97e>
    39be:	48 8b 85 08 ff ff ff 	mov    rax,QWORD PTR [rbp-0xf8]
    39c5:	48 83 c0 08          	add    rax,0x8
    39c9:	ba 10 00 00 00       	mov    edx,0x10
    39ce:	48 8d 35 0b cf 01 00 	lea    rsi,[rip+0x1cf0b]        # 208e0 <_ZL17DOWNGRADED_CPUSVN>
    39d5:	48 89 c7             	mov    rdi,rax
    39d8:	e8 0d 6c 00 00       	call   a5ea <memcmp>
    39dd:	85 c0                	test   eax,eax
    39df:	74 07                	je     39e8 <_ZL8_EGETKEYP14_key_request_tPh+0x97e>
    39e1:	b8 01 00 00 00       	mov    eax,0x1
    39e6:	eb 05                	jmp    39ed <_ZL8_EGETKEYP14_key_request_tPh+0x983>
    39e8:	b8 00 00 00 00       	mov    eax,0x0
    39ed:	84 c0                	test   al,al
    39ef:	74 0a                	je     39fb <_ZL8_EGETKEYP14_key_request_tPh+0x991>
    39f1:	b8 20 00 00 00       	mov    eax,0x20
    39f6:	e9 e9 00 00 00       	jmp    3ae4 <_ZL8_EGETKEYP14_key_request_tPh+0xa7a>
    39fb:	c7 85 40 ff ff ff 60 	mov    DWORD PTR [rbp-0xc0],0x60
    3a02:	00 00 00 
    3a05:	48 8d 85 30 ff ff ff 	lea    rax,[rbp-0xd0]
    3a0c:	48 8d 95 40 ff ff ff 	lea    rdx,[rbp-0xc0]
    3a13:	48 8d 4a 10          	lea    rcx,[rdx+0x10]
    3a17:	ba 10 00 00 00       	mov    edx,0x10
    3a1c:	48 89 c6             	mov    rsi,rax
    3a1f:	48 89 cf             	mov    rdi,rcx
    3a22:	e8 61 6d 00 00       	call   a788 <memcpy>
    3a27:	48 8b 85 08 ff ff ff 	mov    rax,QWORD PTR [rbp-0xf8]
    3a2e:	48 8d 48 18          	lea    rcx,[rax+0x18]
    3a32:	48 8d 85 40 ff ff ff 	lea    rax,[rbp-0xc0]
    3a39:	48 83 c0 20          	add    rax,0x20
    3a3d:	ba 10 00 00 00       	mov    edx,0x10
    3a42:	48 89 ce             	mov    rsi,rcx
    3a45:	48 89 c7             	mov    rdi,rax
    3a48:	e8 3b 6d 00 00       	call   a788 <memcpy>
    3a4d:	48 8b 85 08 ff ff ff 	mov    rax,QWORD PTR [rbp-0xf8]
    3a54:	48 8d 48 08          	lea    rcx,[rax+0x8]
    3a58:	48 8d 85 40 ff ff ff 	lea    rax,[rbp-0xc0]
    3a5f:	48 83 c0 30          	add    rax,0x30
    3a63:	ba 10 00 00 00       	mov    edx,0x10
    3a68:	48 89 ce             	mov    rsi,rcx
    3a6b:	48 89 c7             	mov    rdi,rax
    3a6e:	e8 15 6d 00 00       	call   a788 <memcpy>
    3a73:	48 8b 85 08 ff ff ff 	mov    rax,QWORD PTR [rbp-0xf8]
    3a7a:	0f b7 40 04          	movzx  eax,WORD PTR [rax+0x4]
    3a7e:	66 89 45 80          	mov    WORD PTR [rbp-0x80],ax
    3a82:	48 8b 85 28 ff ff ff 	mov    rax,QWORD PTR [rbp-0xd8]
    3a89:	0f b7 80 00 01 00 00 	movzx  eax,WORD PTR [rax+0x100]
    3a90:	66 89 45 82          	mov    WORD PTR [rbp-0x7e],ax
    3a94:	48 8b 85 28 ff ff ff 	mov    rax,QWORD PTR [rbp-0xd8]
    3a9b:	48 8d 88 80 00 00 00 	lea    rcx,[rax+0x80]
    3aa2:	48 8d 85 40 ff ff ff 	lea    rax,[rbp-0xc0]
    3aa9:	48 83 c0 44          	add    rax,0x44
    3aad:	ba 20 00 00 00       	mov    edx,0x20
    3ab2:	48 89 ce             	mov    rsi,rcx
    3ab5:	48 89 c7             	mov    rdi,rax
    3ab8:	e8 cb 6c 00 00       	call   a788 <memcpy>
    3abd:	eb 07                	jmp    3ac6 <_ZL8_EGETKEYP14_key_request_tPh+0xa5c>
    3abf:	b8 00 01 00 00       	mov    eax,0x100
    3ac4:	eb 1e                	jmp    3ae4 <_ZL8_EGETKEYP14_key_request_tPh+0xa7a>
    3ac6:	48 8b 95 00 ff ff ff 	mov    rdx,QWORD PTR [rbp-0x100]
    3acd:	48 8d 85 40 ff ff ff 	lea    rax,[rbp-0xc0]
    3ad4:	48 89 d6             	mov    rsi,rdx
    3ad7:	48 89 c7             	mov    rdi,rax
    3ada:	e8 53 04 00 00       	call   3f32 <derive_key>
    3adf:	b8 00 00 00 00       	mov    eax,0x0
    3ae4:	48 8b 4d f8          	mov    rcx,QWORD PTR [rbp-0x8]
    3ae8:	64 48 33 0c 25 28 00 	xor    rcx,QWORD PTR fs:0x28
    3aef:	00 00 
    3af1:	74 05                	je     3af8 <_ZL8_EGETKEYP14_key_request_tPh+0xa8e>
    3af3:	e8 ea 0f 00 00       	call   4ae2 <__stack_chk_fail>
    3af8:	c9                   	leave  
    3af9:	c3                   	ret    

0000000000003afa <_ZL8_EREPORTPK14_target_info_tPK18_sgx_report_data_tP9_report_t>:
    3afa:	4c 8d 54 24 08       	lea    r10,[rsp+0x8]
    3aff:	48 81 e4 00 fe ff ff 	and    rsp,0xfffffffffffffe00
    3b06:	41 ff 72 f8          	push   QWORD PTR [r10-0x8]
    3b0a:	55                   	push   rbp
    3b0b:	48 89 e5             	mov    rbp,rsp
    3b0e:	41 52                	push   r10
    3b10:	48 81 ec e8 05 00 00 	sub    rsp,0x5e8
    3b17:	48 89 bd 38 fb ff ff 	mov    QWORD PTR [rbp-0x4c8],rdi
    3b1e:	48 89 b5 30 fb ff ff 	mov    QWORD PTR [rbp-0x4d0],rsi
    3b25:	48 89 95 28 fb ff ff 	mov    QWORD PTR [rbp-0x4d8],rdx
    3b2c:	64 48 8b 04 25 28 00 	mov    rax,QWORD PTR fs:0x28
    3b33:	00 00 
    3b35:	48 89 85 08 fe ff ff 	mov    QWORD PTR [rbp-0x1f8],rax
    3b3c:	31 c0                	xor    eax,eax
    3b3e:	48 8b 85 38 fb ff ff 	mov    rax,QWORD PTR [rbp-0x4c8]
    3b45:	25 ff 01 00 00       	and    eax,0x1ff
    3b4a:	48 85 c0             	test   rax,rax
    3b4d:	0f 95 c0             	setne  al
    3b50:	0f b6 c0             	movzx  eax,al
    3b53:	48 85 c0             	test   rax,rax
    3b56:	74 05                	je     3b5d <_ZL8_EREPORTPK14_target_info_tPK18_sgx_report_data_tP9_report_t+0x63>
    3b58:	e8 96 cb 01 00       	call   206f3 <abort>
    3b5d:	48 8b 85 38 fb ff ff 	mov    rax,QWORD PTR [rbp-0x4c8]
    3b64:	be 00 02 00 00       	mov    esi,0x200
    3b69:	48 89 c7             	mov    rdi,rax
    3b6c:	e8 26 d6 ff ff       	call   1197 <sgx_is_within_enclave>
    3b71:	85 c0                	test   eax,eax
    3b73:	0f 94 c0             	sete   al
    3b76:	0f b6 c0             	movzx  eax,al
    3b79:	48 85 c0             	test   rax,rax
    3b7c:	0f 95 c0             	setne  al
    3b7f:	84 c0                	test   al,al
    3b81:	74 05                	je     3b88 <_ZL8_EREPORTPK14_target_info_tPK18_sgx_report_data_tP9_report_t+0x8e>
    3b83:	e8 6b cb 01 00       	call   206f3 <abort>
    3b88:	48 8b 85 30 fb ff ff 	mov    rax,QWORD PTR [rbp-0x4d0]
    3b8f:	83 e0 7f             	and    eax,0x7f
    3b92:	48 85 c0             	test   rax,rax
    3b95:	0f 95 c0             	setne  al
    3b98:	0f b6 c0             	movzx  eax,al
    3b9b:	48 85 c0             	test   rax,rax
    3b9e:	74 05                	je     3ba5 <_ZL8_EREPORTPK14_target_info_tPK18_sgx_report_data_tP9_report_t+0xab>
    3ba0:	e8 4e cb 01 00       	call   206f3 <abort>
    3ba5:	48 8b 85 30 fb ff ff 	mov    rax,QWORD PTR [rbp-0x4d0]
    3bac:	be 40 00 00 00       	mov    esi,0x40
    3bb1:	48 89 c7             	mov    rdi,rax
    3bb4:	e8 de d5 ff ff       	call   1197 <sgx_is_within_enclave>
    3bb9:	85 c0                	test   eax,eax
    3bbb:	0f 94 c0             	sete   al
    3bbe:	0f b6 c0             	movzx  eax,al
    3bc1:	48 85 c0             	test   rax,rax
    3bc4:	0f 95 c0             	setne  al
    3bc7:	84 c0                	test   al,al
    3bc9:	74 05                	je     3bd0 <_ZL8_EREPORTPK14_target_info_tPK18_sgx_report_data_tP9_report_t+0xd6>
    3bcb:	e8 23 cb 01 00       	call   206f3 <abort>
    3bd0:	48 8b 85 28 fb ff ff 	mov    rax,QWORD PTR [rbp-0x4d8]
    3bd7:	25 ff 01 00 00       	and    eax,0x1ff
    3bdc:	48 85 c0             	test   rax,rax
    3bdf:	0f 95 c0             	setne  al
    3be2:	0f b6 c0             	movzx  eax,al
    3be5:	48 85 c0             	test   rax,rax
    3be8:	74 05                	je     3bef <_ZL8_EREPORTPK14_target_info_tPK18_sgx_report_data_tP9_report_t+0xf5>
    3bea:	e8 04 cb 01 00       	call   206f3 <abort>
    3bef:	48 8b 85 28 fb ff ff 	mov    rax,QWORD PTR [rbp-0x4d8]
    3bf6:	be b0 01 00 00       	mov    esi,0x1b0
    3bfb:	48 89 c7             	mov    rdi,rax
    3bfe:	e8 94 d5 ff ff       	call   1197 <sgx_is_within_enclave>
    3c03:	85 c0                	test   eax,eax
    3c05:	0f 94 c0             	sete   al
    3c08:	0f b6 c0             	movzx  eax,al
    3c0b:	48 85 c0             	test   rax,rax
    3c0e:	0f 95 c0             	setne  al
    3c11:	84 c0                	test   al,al
    3c13:	74 05                	je     3c1a <_ZL8_EREPORTPK14_target_info_tPK18_sgx_report_data_tP9_report_t+0x120>
    3c15:	e8 d9 ca 01 00       	call   206f3 <abort>
    3c1a:	48 8b 05 3f 38 22 00 	mov    rax,QWORD PTR [rip+0x22383f]        # 227460 <g_global_data_sim>
    3c21:	48 89 85 48 fb ff ff 	mov    QWORD PTR [rbp-0x4b8],rax
    3c28:	48 8d 85 10 fc ff ff 	lea    rax,[rbp-0x3f0]
    3c2f:	ba b0 01 00 00       	mov    edx,0x1b0
    3c34:	be 00 00 00 00       	mov    esi,0x0
    3c39:	48 89 c7             	mov    rdi,rax
    3c3c:	e8 b5 6b 00 00       	call   a7f6 <memset>
    3c41:	48 8d 85 10 fc ff ff 	lea    rax,[rbp-0x3f0]
    3c48:	ba 10 00 00 00       	mov    edx,0x10
    3c4d:	48 8d 35 14 38 22 00 	lea    rsi,[rip+0x223814]        # 227468 <g_global_data_sim+0x8>
    3c54:	48 89 c7             	mov    rdi,rax
    3c57:	e8 2c 6b 00 00       	call   a788 <memcpy>
    3c5c:	48 8b 85 48 fb ff ff 	mov    rax,QWORD PTR [rbp-0x4b8]
    3c63:	0f b7 80 00 01 00 00 	movzx  eax,WORD PTR [rax+0x100]
    3c6a:	66 89 85 10 fd ff ff 	mov    WORD PTR [rbp-0x2f0],ax
    3c71:	48 8b 85 48 fb ff ff 	mov    rax,QWORD PTR [rbp-0x4b8]
    3c78:	0f b7 80 02 01 00 00 	movzx  eax,WORD PTR [rax+0x102]
    3c7f:	66 89 85 12 fd ff ff 	mov    WORD PTR [rbp-0x2ee],ax
    3c86:	48 8b 85 48 fb ff ff 	mov    rax,QWORD PTR [rbp-0x4b8]
    3c8d:	48 8d 48 30          	lea    rcx,[rax+0x30]
    3c91:	48 8d 85 10 fc ff ff 	lea    rax,[rbp-0x3f0]
    3c98:	48 83 c0 30          	add    rax,0x30
    3c9c:	ba 10 00 00 00       	mov    edx,0x10
    3ca1:	48 89 ce             	mov    rsi,rcx
    3ca4:	48 89 c7             	mov    rdi,rax
    3ca7:	e8 dc 6a 00 00       	call   a788 <memcpy>
    3cac:	48 8b 85 30 fb ff ff 	mov    rax,QWORD PTR [rbp-0x4d0]
    3cb3:	48 8d 95 10 fc ff ff 	lea    rdx,[rbp-0x3f0]
    3cba:	48 8d 8a 40 01 00 00 	lea    rcx,[rdx+0x140]
    3cc1:	ba 40 00 00 00       	mov    edx,0x40
    3cc6:	48 89 c6             	mov    rsi,rax
    3cc9:	48 89 cf             	mov    rdi,rcx
    3ccc:	e8 b7 6a 00 00       	call   a788 <memcpy>
    3cd1:	48 8b 85 48 fb ff ff 	mov    rax,QWORD PTR [rbp-0x4b8]
    3cd8:	48 8d 48 40          	lea    rcx,[rax+0x40]
    3cdc:	48 8d 85 10 fc ff ff 	lea    rax,[rbp-0x3f0]
    3ce3:	48 83 c0 40          	add    rax,0x40
    3ce7:	ba 20 00 00 00       	mov    edx,0x20
    3cec:	48 89 ce             	mov    rsi,rcx
    3cef:	48 89 c7             	mov    rdi,rax
    3cf2:	e8 91 6a 00 00       	call   a788 <memcpy>
    3cf7:	48 8b 85 48 fb ff ff 	mov    rax,QWORD PTR [rbp-0x4b8]
    3cfe:	48 8d 88 80 00 00 00 	lea    rcx,[rax+0x80]
    3d05:	48 8d 85 10 fc ff ff 	lea    rax,[rbp-0x3f0]
    3d0c:	48 83 e8 80          	sub    rax,0xffffffffffffff80
    3d10:	ba 20 00 00 00       	mov    edx,0x20
    3d15:	48 89 ce             	mov    rsi,rcx
    3d18:	48 89 c7             	mov    rdi,rax
    3d1b:	e8 68 6a 00 00       	call   a788 <memcpy>
    3d20:	bf 03 00 00 00       	mov    edi,0x3
    3d25:	e8 9e 01 00 00       	call   3ec8 <get_base_key>
    3d2a:	48 89 c1             	mov    rcx,rax
    3d2d:	48 8d 85 10 fc ff ff 	lea    rax,[rbp-0x3f0]
    3d34:	48 05 80 01 00 00    	add    rax,0x180
    3d3a:	ba 10 00 00 00       	mov    edx,0x10
    3d3f:	48 89 ce             	mov    rsi,rcx
    3d42:	48 89 c7             	mov    rdi,rax
    3d45:	e8 3e 6a 00 00       	call   a788 <memcpy>
    3d4a:	48 8d 85 50 fb ff ff 	lea    rax,[rbp-0x4b0]
    3d51:	ba b8 00 00 00       	mov    edx,0xb8
    3d56:	be 00 00 00 00       	mov    esi,0x0
    3d5b:	48 89 c7             	mov    rdi,rax
    3d5e:	e8 93 6a 00 00       	call   a7f6 <memset>
    3d63:	c7 85 50 fb ff ff 78 	mov    DWORD PTR [rbp-0x4b0],0x78
    3d6a:	00 00 00 
    3d6d:	66 c7 85 58 fb ff ff 	mov    WORD PTR [rbp-0x4a8],0x3
    3d74:	03 00 
    3d76:	48 8b 85 38 fb ff ff 	mov    rax,QWORD PTR [rbp-0x4c8]
    3d7d:	48 8d 95 50 fb ff ff 	lea    rdx,[rbp-0x4b0]
    3d84:	48 8d 4a 30          	lea    rcx,[rdx+0x30]
    3d88:	ba 20 00 00 00       	mov    edx,0x20
    3d8d:	48 89 c6             	mov    rsi,rax
    3d90:	48 89 cf             	mov    rdi,rcx
    3d93:	e8 f0 69 00 00       	call   a788 <memcpy>
    3d98:	48 8b 85 38 fb ff ff 	mov    rax,QWORD PTR [rbp-0x4c8]
    3d9f:	48 8d 48 20          	lea    rcx,[rax+0x20]
    3da3:	48 8d 85 50 fb ff ff 	lea    rax,[rbp-0x4b0]
    3daa:	48 83 c0 10          	add    rax,0x10
    3dae:	ba 10 00 00 00       	mov    edx,0x10
    3db3:	48 89 ce             	mov    rsi,rcx
    3db6:	48 89 c7             	mov    rdi,rax
    3db9:	e8 ca 69 00 00       	call   a788 <memcpy>
    3dbe:	48 8d 85 50 fb ff ff 	lea    rax,[rbp-0x4b0]
    3dc5:	48 83 c0 20          	add    rax,0x20
    3dc9:	ba 10 00 00 00       	mov    edx,0x10
    3dce:	48 8d 35 1b cb 01 00 	lea    rsi,[rip+0x1cb1b]        # 208f0 <_ZL20SIMU_OWNER_EPOCH_MSR>
    3dd5:	48 89 c7             	mov    rdi,rax
    3dd8:	e8 ab 69 00 00       	call   a788 <memcpy>
    3ddd:	48 8d 85 50 fb ff ff 	lea    rax,[rbp-0x4b0]
    3de4:	48 83 c0 50          	add    rax,0x50
    3de8:	ba 10 00 00 00       	mov    edx,0x10
    3ded:	48 8d 35 74 36 22 00 	lea    rsi,[rip+0x223674]        # 227468 <g_global_data_sim+0x8>
    3df4:	48 89 c7             	mov    rdi,rax
    3df7:	e8 8c 69 00 00       	call   a788 <memcpy>
    3dfc:	48 8d 85 10 fc ff ff 	lea    rax,[rbp-0x3f0]
    3e03:	48 8d 88 80 01 00 00 	lea    rcx,[rax+0x180]
    3e0a:	48 8d 85 50 fb ff ff 	lea    rax,[rbp-0x4b0]
    3e11:	48 83 c0 60          	add    rax,0x60
    3e15:	ba 20 00 00 00       	mov    edx,0x20
    3e1a:	48 89 ce             	mov    rsi,rcx
    3e1d:	48 89 c7             	mov    rdi,rax
    3e20:	e8 63 69 00 00       	call   a788 <memcpy>
    3e25:	48 8d 85 f0 fd ff ff 	lea    rax,[rbp-0x210]
    3e2c:	ba 10 00 00 00       	mov    edx,0x10
    3e31:	be 00 00 00 00       	mov    esi,0x0
    3e36:	48 89 c7             	mov    rdi,rax
    3e39:	e8 b8 69 00 00       	call   a7f6 <memset>
    3e3e:	48 8d 95 f0 fd ff ff 	lea    rdx,[rbp-0x210]
    3e45:	48 8d 85 50 fb ff ff 	lea    rax,[rbp-0x4b0]
    3e4c:	48 89 d6             	mov    rsi,rdx
    3e4f:	48 89 c7             	mov    rdi,rax
    3e52:	e8 db 00 00 00       	call   3f32 <derive_key>
    3e57:	48 8d 85 10 fc ff ff 	lea    rax,[rbp-0x3f0]
    3e5e:	48 8d 90 a0 01 00 00 	lea    rdx,[rax+0x1a0]
    3e65:	48 8d b5 10 fc ff ff 	lea    rsi,[rbp-0x3f0]
    3e6c:	48 8d 85 f0 fd ff ff 	lea    rax,[rbp-0x210]
    3e73:	48 89 d1             	mov    rcx,rdx
    3e76:	ba 80 01 00 00       	mov    edx,0x180
    3e7b:	48 89 c7             	mov    rdi,rax
    3e7e:	e8 04 01 00 00       	call   3f87 <cmac>
    3e83:	48 8d 8d 10 fc ff ff 	lea    rcx,[rbp-0x3f0]
    3e8a:	48 8b 85 28 fb ff ff 	mov    rax,QWORD PTR [rbp-0x4d8]
    3e91:	ba b0 01 00 00       	mov    edx,0x1b0
    3e96:	48 89 ce             	mov    rsi,rcx
    3e99:	48 89 c7             	mov    rdi,rax
    3e9c:	e8 e7 68 00 00       	call   a788 <memcpy>
    3ea1:	90                   	nop
    3ea2:	48 8b 85 08 fe ff ff 	mov    rax,QWORD PTR [rbp-0x1f8]
    3ea9:	64 48 33 04 25 28 00 	xor    rax,QWORD PTR fs:0x28
    3eb0:	00 00 
    3eb2:	74 05                	je     3eb9 <_ZL8_EREPORTPK14_target_info_tPK18_sgx_report_data_tP9_report_t+0x3bf>
    3eb4:	e8 29 0c 00 00       	call   4ae2 <__stack_chk_fail>
    3eb9:	48 81 c4 e8 05 00 00 	add    rsp,0x5e8
    3ec0:	41 5a                	pop    r10
    3ec2:	5d                   	pop    rbp
    3ec3:	49 8d 62 f8          	lea    rsp,[r10-0x8]
    3ec7:	c3                   	ret    

0000000000003ec8 <get_base_key>:
    3ec8:	55                   	push   rbp
    3ec9:	48 89 e5             	mov    rbp,rsp
    3ecc:	89 f8                	mov    eax,edi
    3ece:	66 89 45 fc          	mov    WORD PTR [rbp-0x4],ax
    3ed2:	0f b7 45 fc          	movzx  eax,WORD PTR [rbp-0x4]
    3ed6:	83 f8 04             	cmp    eax,0x4
    3ed9:	77 50                	ja     3f2b <get_base_key+0x63>
    3edb:	89 c0                	mov    eax,eax
    3edd:	48 8d 14 85 00 00 00 	lea    rdx,[rax*4+0x0]
    3ee4:	00 
    3ee5:	48 8d 05 84 ca 01 00 	lea    rax,[rip+0x1ca84]        # 20970 <_ZL18BASE_PROV_SEAL_KEY+0x10>
    3eec:	8b 04 02             	mov    eax,DWORD PTR [rdx+rax*1]
    3eef:	48 63 d0             	movsxd rdx,eax
    3ef2:	48 8d 05 77 ca 01 00 	lea    rax,[rip+0x1ca77]        # 20970 <_ZL18BASE_PROV_SEAL_KEY+0x10>
    3ef9:	48 01 d0             	add    rax,rdx
    3efc:	ff e0                	jmp    rax
    3efe:	48 8d 05 1b ca 01 00 	lea    rax,[rip+0x1ca1b]        # 20920 <_ZL13BASE_SEAL_KEY>
    3f05:	eb 29                	jmp    3f30 <get_base_key+0x68>
    3f07:	48 8d 05 22 ca 01 00 	lea    rax,[rip+0x1ca22]        # 20930 <_ZL15BASE_REPORT_KEY>
    3f0e:	eb 20                	jmp    3f30 <get_base_key+0x68>
    3f10:	48 8d 05 29 ca 01 00 	lea    rax,[rip+0x1ca29]        # 20940 <_ZL19BASE_EINITTOKEN_KEY>
    3f17:	eb 17                	jmp    3f30 <get_base_key+0x68>
    3f19:	48 8d 05 30 ca 01 00 	lea    rax,[rip+0x1ca30]        # 20950 <_ZL18BASE_PROVISION_KEY>
    3f20:	eb 0e                	jmp    3f30 <get_base_key+0x68>
    3f22:	48 8d 05 37 ca 01 00 	lea    rax,[rip+0x1ca37]        # 20960 <_ZL18BASE_PROV_SEAL_KEY>
    3f29:	eb 05                	jmp    3f30 <get_base_key+0x68>
    3f2b:	b8 00 00 00 00       	mov    eax,0x0
    3f30:	5d                   	pop    rbp
    3f31:	c3                   	ret    

0000000000003f32 <derive_key>:
    3f32:	55                   	push   rbp
    3f33:	48 89 e5             	mov    rbp,rsp
    3f36:	41 54                	push   r12
    3f38:	53                   	push   rbx
    3f39:	48 83 ec 10          	sub    rsp,0x10
    3f3d:	48 89 7d e8          	mov    QWORD PTR [rbp-0x18],rdi
    3f41:	48 89 75 e0          	mov    QWORD PTR [rbp-0x20],rsi
    3f45:	48 8b 45 e8          	mov    rax,QWORD PTR [rbp-0x18]
    3f49:	8b 00                	mov    eax,DWORD PTR [rax]
    3f4b:	41 89 c4             	mov    r12d,eax
    3f4e:	48 8b 45 e8          	mov    rax,QWORD PTR [rbp-0x18]
    3f52:	48 8d 58 08          	lea    rbx,[rax+0x8]
    3f56:	48 8b 45 e8          	mov    rax,QWORD PTR [rbp-0x18]
    3f5a:	0f b7 40 08          	movzx  eax,WORD PTR [rax+0x8]
    3f5e:	0f b7 c0             	movzx  eax,ax
    3f61:	89 c7                	mov    edi,eax
    3f63:	e8 60 ff ff ff       	call   3ec8 <get_base_key>
    3f68:	48 89 c7             	mov    rdi,rax
    3f6b:	48 8b 45 e0          	mov    rax,QWORD PTR [rbp-0x20]
    3f6f:	48 89 c1             	mov    rcx,rax
    3f72:	44 89 e2             	mov    edx,r12d
    3f75:	48 89 de             	mov    rsi,rbx
    3f78:	e8 05 3e 01 00       	call   17d82 <sgx_rijndael128_cmac_msg>
    3f7d:	90                   	nop
    3f7e:	48 83 c4 10          	add    rsp,0x10
    3f82:	5b                   	pop    rbx
    3f83:	41 5c                	pop    r12
    3f85:	5d                   	pop    rbp
    3f86:	c3                   	ret    

0000000000003f87 <cmac>:
    3f87:	55                   	push   rbp
    3f88:	48 89 e5             	mov    rbp,rsp
    3f8b:	48 83 ec 20          	sub    rsp,0x20
    3f8f:	48 89 7d f8          	mov    QWORD PTR [rbp-0x8],rdi
    3f93:	48 89 75 f0          	mov    QWORD PTR [rbp-0x10],rsi
    3f97:	89 55 ec             	mov    DWORD PTR [rbp-0x14],edx
    3f9a:	48 89 4d e0          	mov    QWORD PTR [rbp-0x20],rcx
    3f9e:	8b 55 ec             	mov    edx,DWORD PTR [rbp-0x14]
    3fa1:	48 8b 4d e0          	mov    rcx,QWORD PTR [rbp-0x20]
    3fa5:	48 8b 75 f0          	mov    rsi,QWORD PTR [rbp-0x10]
    3fa9:	48 8b 45 f8          	mov    rax,QWORD PTR [rbp-0x8]
    3fad:	48 89 c7             	mov    rdi,rax
    3fb0:	e8 cd 3d 01 00       	call   17d82 <sgx_rijndael128_cmac_msg>
    3fb5:	90                   	nop
    3fb6:	c9                   	leave  
    3fb7:	c3                   	ret    

0000000000003fb8 <get_phdr>:
    3fb8:	55                   	push   rbp
    3fb9:	48 89 e5             	mov    rbp,rsp
    3fbc:	48 89 7d f8          	mov    QWORD PTR [rbp-0x8],rdi
    3fc0:	48 83 7d f8 00       	cmp    QWORD PTR [rbp-0x8],0x0
    3fc5:	75 07                	jne    3fce <get_phdr+0x16>
    3fc7:	b8 00 00 00 00       	mov    eax,0x0
    3fcc:	eb 5a                	jmp    4028 <get_phdr+0x70>
    3fce:	48 8b 45 f8          	mov    rax,QWORD PTR [rbp-0x8]
    3fd2:	0f b6 00             	movzx  eax,BYTE PTR [rax]
    3fd5:	3c 7f                	cmp    al,0x7f
    3fd7:	75 24                	jne    3ffd <get_phdr+0x45>
    3fd9:	48 8b 45 f8          	mov    rax,QWORD PTR [rbp-0x8]
    3fdd:	0f b6 40 01          	movzx  eax,BYTE PTR [rax+0x1]
    3fe1:	3c 45                	cmp    al,0x45
    3fe3:	75 18                	jne    3ffd <get_phdr+0x45>
    3fe5:	48 8b 45 f8          	mov    rax,QWORD PTR [rbp-0x8]
    3fe9:	0f b6 40 02          	movzx  eax,BYTE PTR [rax+0x2]
    3fed:	3c 4c                	cmp    al,0x4c
    3fef:	75 0c                	jne    3ffd <get_phdr+0x45>
    3ff1:	48 8b 45 f8          	mov    rax,QWORD PTR [rbp-0x8]
    3ff5:	0f b6 40 03          	movzx  eax,BYTE PTR [rax+0x3]
    3ff9:	3c 46                	cmp    al,0x46
    3ffb:	74 07                	je     4004 <get_phdr+0x4c>
    3ffd:	b8 00 00 00 00       	mov    eax,0x0
    4002:	eb 24                	jmp    4028 <get_phdr+0x70>
    4004:	48 8b 45 f8          	mov    rax,QWORD PTR [rbp-0x8]
    4008:	0f b7 40 10          	movzx  eax,WORD PTR [rax+0x10]
    400c:	66 83 f8 03          	cmp    ax,0x3
    4010:	74 07                	je     4019 <get_phdr+0x61>
    4012:	b8 00 00 00 00       	mov    eax,0x0
    4017:	eb 0f                	jmp    4028 <get_phdr+0x70>
    4019:	48 8b 45 f8          	mov    rax,QWORD PTR [rbp-0x8]
    401d:	48 8b 50 20          	mov    rdx,QWORD PTR [rax+0x20]
    4021:	48 8b 45 f8          	mov    rax,QWORD PTR [rbp-0x8]
    4025:	48 01 d0             	add    rax,rdx
    4028:	5d                   	pop    rbp
    4029:	c3                   	ret    

000000000000402a <get_sym>:
    402a:	55                   	push   rbp
    402b:	48 89 e5             	mov    rbp,rsp
    402e:	48 89 7d f8          	mov    QWORD PTR [rbp-0x8],rdi
    4032:	48 89 75 f0          	mov    QWORD PTR [rbp-0x10],rsi
    4036:	48 8b 55 f0          	mov    rdx,QWORD PTR [rbp-0x10]
    403a:	48 89 d0             	mov    rax,rdx
    403d:	48 01 c0             	add    rax,rax
    4040:	48 01 d0             	add    rax,rdx
    4043:	48 c1 e0 03          	shl    rax,0x3
    4047:	48 89 c2             	mov    rdx,rax
    404a:	48 8b 45 f8          	mov    rax,QWORD PTR [rbp-0x8]
    404e:	48 01 d0             	add    rax,rdx
    4051:	0f b6 40 04          	movzx  eax,BYTE PTR [rax+0x4]
    4055:	c0 e8 04             	shr    al,0x4
    4058:	3c 02                	cmp    al,0x2
    405a:	75 2b                	jne    4087 <get_sym+0x5d>
    405c:	48 8b 55 f0          	mov    rdx,QWORD PTR [rbp-0x10]
    4060:	48 89 d0             	mov    rax,rdx
    4063:	48 01 c0             	add    rax,rax
    4066:	48 01 d0             	add    rax,rdx
    4069:	48 c1 e0 03          	shl    rax,0x3
    406d:	48 89 c2             	mov    rdx,rax
    4070:	48 8b 45 f8          	mov    rax,QWORD PTR [rbp-0x8]
    4074:	48 01 d0             	add    rax,rdx
    4077:	48 8b 40 08          	mov    rax,QWORD PTR [rax+0x8]
    407b:	48 85 c0             	test   rax,rax
    407e:	75 07                	jne    4087 <get_sym+0x5d>
    4080:	b8 00 00 00 00       	mov    eax,0x0
    4085:	eb 1b                	jmp    40a2 <get_sym+0x78>
    4087:	48 8b 55 f0          	mov    rdx,QWORD PTR [rbp-0x10]
    408b:	48 89 d0             	mov    rax,rdx
    408e:	48 01 c0             	add    rax,rax
    4091:	48 01 d0             	add    rax,rdx
    4094:	48 c1 e0 03          	shl    rax,0x3
    4098:	48 89 c2             	mov    rdx,rax
    409b:	48 8b 45 f8          	mov    rax,QWORD PTR [rbp-0x8]
    409f:	48 01 d0             	add    rax,rdx
    40a2:	5d                   	pop    rbp
    40a3:	c3                   	ret    

00000000000040a4 <do_relocs>:
    40a4:	55                   	push   rbp
    40a5:	48 89 e5             	mov    rbp,rsp
    40a8:	48 83 ec 60          	sub    rsp,0x60
    40ac:	48 89 7d b8          	mov    QWORD PTR [rbp-0x48],rdi
    40b0:	48 89 75 b0          	mov    QWORD PTR [rbp-0x50],rsi
    40b4:	48 89 55 a8          	mov    QWORD PTR [rbp-0x58],rdx
    40b8:	48 89 4d a0          	mov    QWORD PTR [rbp-0x60],rcx
    40bc:	64 48 8b 04 25 28 00 	mov    rax,QWORD PTR fs:0x28
    40c3:	00 00 
    40c5:	48 89 45 f8          	mov    QWORD PTR [rbp-0x8],rax
    40c9:	31 c0                	xor    eax,eax
    40cb:	48 8b 55 b8          	mov    rdx,QWORD PTR [rbp-0x48]
    40cf:	48 8b 45 b0          	mov    rax,QWORD PTR [rbp-0x50]
    40d3:	48 01 d0             	add    rax,rdx
    40d6:	48 89 45 d0          	mov    QWORD PTR [rbp-0x30],rax
    40da:	48 8b 55 b8          	mov    rdx,QWORD PTR [rbp-0x48]
    40de:	48 8b 45 a8          	mov    rax,QWORD PTR [rbp-0x58]
    40e2:	48 01 d0             	add    rax,rdx
    40e5:	48 89 45 e0          	mov    QWORD PTR [rbp-0x20],rax
    40e9:	48 c7 45 c8 00 00 00 	mov    QWORD PTR [rbp-0x38],0x0
    40f0:	00 
    40f1:	48 c7 45 d8 00 00 00 	mov    QWORD PTR [rbp-0x28],0x0
    40f8:	00 
    40f9:	e9 a2 01 00 00       	jmp    42a0 <do_relocs+0x1fc>
    40fe:	48 8b 45 d0          	mov    rax,QWORD PTR [rbp-0x30]
    4102:	48 8b 10             	mov    rdx,QWORD PTR [rax]
    4105:	48 8b 45 b8          	mov    rax,QWORD PTR [rbp-0x48]
    4109:	48 01 d0             	add    rax,rdx
    410c:	48 89 45 e8          	mov    QWORD PTR [rbp-0x18],rax
    4110:	48 8b 45 d0          	mov    rax,QWORD PTR [rbp-0x30]
    4114:	48 8b 40 08          	mov    rax,QWORD PTR [rax+0x8]
    4118:	89 c0                	mov    eax,eax
    411a:	48 83 f8 12          	cmp    rax,0x12
    411e:	0f 87 61 01 00 00    	ja     4285 <do_relocs+0x1e1>
    4124:	48 8d 14 85 00 00 00 	lea    rdx,[rax*4+0x0]
    412b:	00 
    412c:	48 8d 05 51 c8 01 00 	lea    rax,[rip+0x1c851]        # 20984 <_ZL18BASE_PROV_SEAL_KEY+0x24>
    4133:	8b 04 02             	mov    eax,DWORD PTR [rdx+rax*1]
    4136:	48 63 d0             	movsxd rdx,eax
    4139:	48 8d 05 44 c8 01 00 	lea    rax,[rip+0x1c844]        # 20984 <_ZL18BASE_PROV_SEAL_KEY+0x24>
    4140:	48 01 d0             	add    rax,rdx
    4143:	ff e0                	jmp    rax
    4145:	48 8b 45 d0          	mov    rax,QWORD PTR [rbp-0x30]
    4149:	48 8b 40 10          	mov    rax,QWORD PTR [rax+0x10]
    414d:	48 89 c2             	mov    rdx,rax
    4150:	48 8b 45 b8          	mov    rax,QWORD PTR [rbp-0x48]
    4154:	48 01 c2             	add    rdx,rax
    4157:	48 8b 45 e8          	mov    rax,QWORD PTR [rbp-0x18]
    415b:	48 89 10             	mov    QWORD PTR [rax],rdx
    415e:	e9 33 01 00 00       	jmp    4296 <do_relocs+0x1f2>
    4163:	48 8b 45 d0          	mov    rax,QWORD PTR [rbp-0x30]
    4167:	48 8b 40 08          	mov    rax,QWORD PTR [rax+0x8]
    416b:	48 c1 e8 20          	shr    rax,0x20
    416f:	48 89 c2             	mov    rdx,rax
    4172:	48 8b 45 e0          	mov    rax,QWORD PTR [rbp-0x20]
    4176:	48 89 d6             	mov    rsi,rdx
    4179:	48 89 c7             	mov    rdi,rax
    417c:	e8 a9 fe ff ff       	call   402a <get_sym>
    4181:	48 89 45 f0          	mov    QWORD PTR [rbp-0x10],rax
    4185:	48 83 7d f0 00       	cmp    QWORD PTR [rbp-0x10],0x0
    418a:	0f 84 ff 00 00 00    	je     428f <do_relocs+0x1eb>
    4190:	48 8b 45 f0          	mov    rax,QWORD PTR [rbp-0x10]
    4194:	48 8b 50 08          	mov    rdx,QWORD PTR [rax+0x8]
    4198:	48 8b 45 b8          	mov    rax,QWORD PTR [rbp-0x48]
    419c:	48 01 c2             	add    rdx,rax
    419f:	48 8b 45 d0          	mov    rax,QWORD PTR [rbp-0x30]
    41a3:	48 8b 40 10          	mov    rax,QWORD PTR [rax+0x10]
    41a7:	48 01 c2             	add    rdx,rax
    41aa:	48 8b 45 e8          	mov    rax,QWORD PTR [rbp-0x18]
    41ae:	48 89 10             	mov    QWORD PTR [rax],rdx
    41b1:	e9 e0 00 00 00       	jmp    4296 <do_relocs+0x1f2>
    41b6:	48 8b 45 e8          	mov    rax,QWORD PTR [rbp-0x18]
    41ba:	48 c7 00 01 00 00 00 	mov    QWORD PTR [rax],0x1
    41c1:	e9 d0 00 00 00       	jmp    4296 <do_relocs+0x1f2>
    41c6:	48 8b 45 d0          	mov    rax,QWORD PTR [rbp-0x30]
    41ca:	48 8b 40 08          	mov    rax,QWORD PTR [rax+0x8]
    41ce:	48 c1 e8 20          	shr    rax,0x20
    41d2:	48 89 c2             	mov    rdx,rax
    41d5:	48 8b 45 e0          	mov    rax,QWORD PTR [rbp-0x20]
    41d9:	48 89 d6             	mov    rsi,rdx
    41dc:	48 89 c7             	mov    rdi,rax
    41df:	e8 46 fe ff ff       	call   402a <get_sym>
    41e4:	48 89 45 f0          	mov    QWORD PTR [rbp-0x10],rax
    41e8:	48 83 7d f0 00       	cmp    QWORD PTR [rbp-0x10],0x0
    41ed:	0f 84 9f 00 00 00    	je     4292 <do_relocs+0x1ee>
    41f3:	48 8b 45 f0          	mov    rax,QWORD PTR [rbp-0x10]
    41f7:	48 8b 50 08          	mov    rdx,QWORD PTR [rax+0x8]
    41fb:	48 8b 45 d0          	mov    rax,QWORD PTR [rbp-0x30]
    41ff:	48 8b 40 10          	mov    rax,QWORD PTR [rax+0x10]
    4203:	48 01 c2             	add    rdx,rax
    4206:	48 8b 45 e8          	mov    rax,QWORD PTR [rbp-0x18]
    420a:	48 89 10             	mov    QWORD PTR [rax],rdx
    420d:	e9 84 00 00 00       	jmp    4296 <do_relocs+0x1f2>
    4212:	48 8b 45 d0          	mov    rax,QWORD PTR [rbp-0x30]
    4216:	48 8b 40 08          	mov    rax,QWORD PTR [rax+0x8]
    421a:	48 c1 e8 20          	shr    rax,0x20
    421e:	48 89 c2             	mov    rdx,rax
    4221:	48 8b 45 e0          	mov    rax,QWORD PTR [rbp-0x20]
    4225:	48 89 d6             	mov    rsi,rdx
    4228:	48 89 c7             	mov    rdi,rax
    422b:	e8 fa fd ff ff       	call   402a <get_sym>
    4230:	48 89 45 f0          	mov    QWORD PTR [rbp-0x10],rax
    4234:	48 83 7d f0 00       	cmp    QWORD PTR [rbp-0x10],0x0
    4239:	74 5a                	je     4295 <do_relocs+0x1f1>
    423b:	48 8b 45 b8          	mov    rax,QWORD PTR [rbp-0x48]
    423f:	48 8d 55 c8          	lea    rdx,[rbp-0x38]
    4243:	48 89 d6             	mov    rsi,rdx
    4246:	48 89 c7             	mov    rdi,rax
    4249:	e8 4f 03 00 00       	call   459d <elf_tls_aligned_virtual_size>
    424e:	85 c0                	test   eax,eax
    4250:	75 2c                	jne    427e <do_relocs+0x1da>
    4252:	48 8b 45 c8          	mov    rax,QWORD PTR [rbp-0x38]
    4256:	48 85 c0             	test   rax,rax
    4259:	74 23                	je     427e <do_relocs+0x1da>
    425b:	48 8b 45 f0          	mov    rax,QWORD PTR [rbp-0x10]
    425f:	48 8b 50 08          	mov    rdx,QWORD PTR [rax+0x8]
    4263:	48 8b 45 d0          	mov    rax,QWORD PTR [rbp-0x30]
    4267:	48 8b 40 10          	mov    rax,QWORD PTR [rax+0x10]
    426b:	48 01 c2             	add    rdx,rax
    426e:	48 8b 45 c8          	mov    rax,QWORD PTR [rbp-0x38]
    4272:	48 29 c2             	sub    rdx,rax
    4275:	48 8b 45 e8          	mov    rax,QWORD PTR [rbp-0x18]
    4279:	48 89 10             	mov    QWORD PTR [rax],rdx
    427c:	eb 18                	jmp    4296 <do_relocs+0x1f2>
    427e:	b8 ff ff ff ff       	mov    eax,0xffffffff
    4283:	eb 2e                	jmp    42b3 <do_relocs+0x20f>
    4285:	b8 ff ff ff ff       	mov    eax,0xffffffff
    428a:	eb 27                	jmp    42b3 <do_relocs+0x20f>
    428c:	90                   	nop
    428d:	eb 07                	jmp    4296 <do_relocs+0x1f2>
    428f:	90                   	nop
    4290:	eb 04                	jmp    4296 <do_relocs+0x1f2>
    4292:	90                   	nop
    4293:	eb 01                	jmp    4296 <do_relocs+0x1f2>
    4295:	90                   	nop
    4296:	48 83 45 d8 01       	add    QWORD PTR [rbp-0x28],0x1
    429b:	48 83 45 d0 18       	add    QWORD PTR [rbp-0x30],0x18
    42a0:	48 8b 45 d8          	mov    rax,QWORD PTR [rbp-0x28]
    42a4:	48 3b 45 a0          	cmp    rax,QWORD PTR [rbp-0x60]
    42a8:	0f 82 50 fe ff ff    	jb     40fe <do_relocs+0x5a>
    42ae:	b8 00 00 00 00       	mov    eax,0x0
    42b3:	48 8b 4d f8          	mov    rcx,QWORD PTR [rbp-0x8]
    42b7:	64 48 33 0c 25 28 00 	xor    rcx,QWORD PTR fs:0x28
    42be:	00 00 
    42c0:	74 05                	je     42c7 <do_relocs+0x223>
    42c2:	e8 1b 08 00 00       	call   4ae2 <__stack_chk_fail>
    42c7:	c9                   	leave  
    42c8:	c3                   	ret    

00000000000042c9 <relocate_enclave>:
    42c9:	55                   	push   rbp
    42ca:	48 89 e5             	mov    rbp,rsp
    42cd:	48 83 c4 80          	add    rsp,0xffffffffffffff80
    42d1:	48 89 7d 88          	mov    QWORD PTR [rbp-0x78],rdi
    42d5:	c7 45 94 00 00 00 00 	mov    DWORD PTR [rbp-0x6c],0x0
    42dc:	48 8b 45 88          	mov    rax,QWORD PTR [rbp-0x78]
    42e0:	48 89 45 e0          	mov    QWORD PTR [rbp-0x20],rax
    42e4:	48 8b 45 e0          	mov    rax,QWORD PTR [rbp-0x20]
    42e8:	48 89 c7             	mov    rdi,rax
    42eb:	e8 c8 fc ff ff       	call   3fb8 <get_phdr>
    42f0:	48 89 45 98          	mov    QWORD PTR [rbp-0x68],rax
    42f4:	48 83 7d 98 00       	cmp    QWORD PTR [rbp-0x68],0x0
    42f9:	0f 85 c3 01 00 00    	jne    44c2 <relocate_enclave+0x1f9>
    42ff:	b8 ff ff ff ff       	mov    eax,0xffffffff
    4304:	e9 d2 01 00 00       	jmp    44db <relocate_enclave+0x212>
    4309:	48 8b 45 98          	mov    rax,QWORD PTR [rbp-0x68]
    430d:	8b 00                	mov    eax,DWORD PTR [rax]
    430f:	83 f8 02             	cmp    eax,0x2
    4312:	0f 85 a1 01 00 00    	jne    44b9 <relocate_enclave+0x1f0>
    4318:	48 8b 45 98          	mov    rax,QWORD PTR [rbp-0x68]
    431c:	48 8b 40 20          	mov    rax,QWORD PTR [rax+0x20]
    4320:	48 c1 e8 04          	shr    rax,0x4
    4324:	48 89 45 e8          	mov    QWORD PTR [rbp-0x18],rax
    4328:	48 8b 45 98          	mov    rax,QWORD PTR [rbp-0x68]
    432c:	48 8b 50 18          	mov    rdx,QWORD PTR [rax+0x18]
    4330:	48 8b 45 e0          	mov    rax,QWORD PTR [rbp-0x20]
    4334:	48 01 d0             	add    rax,rdx
    4337:	48 89 45 a8          	mov    QWORD PTR [rbp-0x58],rax
    433b:	48 c7 45 b0 00 00 00 	mov    QWORD PTR [rbp-0x50],0x0
    4342:	00 
    4343:	48 c7 45 b8 00 00 00 	mov    QWORD PTR [rbp-0x48],0x0
    434a:	00 
    434b:	48 c7 45 c0 00 00 00 	mov    QWORD PTR [rbp-0x40],0x0
    4352:	00 
    4353:	48 c7 45 c8 00 00 00 	mov    QWORD PTR [rbp-0x38],0x0
    435a:	00 
    435b:	48 c7 45 d0 00 00 00 	mov    QWORD PTR [rbp-0x30],0x0
    4362:	00 
    4363:	48 c7 45 d8 00 00 00 	mov    QWORD PTR [rbp-0x28],0x0
    436a:	00 
    436b:	48 c7 45 a0 00 00 00 	mov    QWORD PTR [rbp-0x60],0x0
    4372:	00 
    4373:	e9 9b 00 00 00       	jmp    4413 <relocate_enclave+0x14a>
    4378:	48 8b 45 a8          	mov    rax,QWORD PTR [rbp-0x58]
    437c:	48 8b 00             	mov    rax,QWORD PTR [rax]
    437f:	48 85 c0             	test   rax,rax
    4382:	0f 84 9b 00 00 00    	je     4423 <relocate_enclave+0x15a>
    4388:	48 8b 45 a8          	mov    rax,QWORD PTR [rbp-0x58]
    438c:	48 8b 00             	mov    rax,QWORD PTR [rax]
    438f:	48 83 f8 17          	cmp    rax,0x17
    4393:	77 74                	ja     4409 <relocate_enclave+0x140>
    4395:	48 8d 14 85 00 00 00 	lea    rdx,[rax*4+0x0]
    439c:	00 
    439d:	48 8d 05 2c c6 01 00 	lea    rax,[rip+0x1c62c]        # 209d0 <_ZL18BASE_PROV_SEAL_KEY+0x70>
    43a4:	8b 04 02             	mov    eax,DWORD PTR [rdx+rax*1]
    43a7:	48 63 d0             	movsxd rdx,eax
    43aa:	48 8d 05 1f c6 01 00 	lea    rax,[rip+0x1c61f]        # 209d0 <_ZL18BASE_PROV_SEAL_KEY+0x70>
    43b1:	48 01 d0             	add    rax,rdx
    43b4:	ff e0                	jmp    rax
    43b6:	48 8b 45 a8          	mov    rax,QWORD PTR [rbp-0x58]
    43ba:	48 8b 40 08          	mov    rax,QWORD PTR [rax+0x8]
    43be:	48 89 45 b0          	mov    QWORD PTR [rbp-0x50],rax
    43c2:	eb 45                	jmp    4409 <relocate_enclave+0x140>
    43c4:	48 8b 45 a8          	mov    rax,QWORD PTR [rbp-0x58]
    43c8:	48 8b 40 08          	mov    rax,QWORD PTR [rax+0x8]
    43cc:	48 89 45 b8          	mov    QWORD PTR [rbp-0x48],rax
    43d0:	eb 37                	jmp    4409 <relocate_enclave+0x140>
    43d2:	48 8b 45 a8          	mov    rax,QWORD PTR [rbp-0x58]
    43d6:	48 8b 40 08          	mov    rax,QWORD PTR [rax+0x8]
    43da:	48 89 45 c8          	mov    QWORD PTR [rbp-0x38],rax
    43de:	eb 29                	jmp    4409 <relocate_enclave+0x140>
    43e0:	48 8b 45 a8          	mov    rax,QWORD PTR [rbp-0x58]
    43e4:	48 8b 40 08          	mov    rax,QWORD PTR [rax+0x8]
    43e8:	48 89 45 d0          	mov    QWORD PTR [rbp-0x30],rax
    43ec:	eb 1b                	jmp    4409 <relocate_enclave+0x140>
    43ee:	48 8b 45 a8          	mov    rax,QWORD PTR [rbp-0x58]
    43f2:	48 8b 40 08          	mov    rax,QWORD PTR [rax+0x8]
    43f6:	48 89 45 c0          	mov    QWORD PTR [rbp-0x40],rax
    43fa:	eb 0d                	jmp    4409 <relocate_enclave+0x140>
    43fc:	48 8b 45 a8          	mov    rax,QWORD PTR [rbp-0x58]
    4400:	48 8b 40 08          	mov    rax,QWORD PTR [rax+0x8]
    4404:	48 89 45 d8          	mov    QWORD PTR [rbp-0x28],rax
    4408:	90                   	nop
    4409:	48 83 45 a0 01       	add    QWORD PTR [rbp-0x60],0x1
    440e:	48 83 45 a8 10       	add    QWORD PTR [rbp-0x58],0x10
    4413:	48 8b 45 a0          	mov    rax,QWORD PTR [rbp-0x60]
    4417:	48 3b 45 e8          	cmp    rax,QWORD PTR [rbp-0x18]
    441b:	0f 82 57 ff ff ff    	jb     4378 <relocate_enclave+0xaf>
    4421:	eb 01                	jmp    4424 <relocate_enclave+0x15b>
    4423:	90                   	nop
    4424:	48 83 7d b8 00       	cmp    QWORD PTR [rbp-0x48],0x0
    4429:	74 45                	je     4470 <relocate_enclave+0x1a7>
    442b:	48 83 7d d0 00       	cmp    QWORD PTR [rbp-0x30],0x0
    4430:	75 0a                	jne    443c <relocate_enclave+0x173>
    4432:	b8 ff ff ff ff       	mov    eax,0xffffffff
    4437:	e9 9f 00 00 00       	jmp    44db <relocate_enclave+0x212>
    443c:	48 8b 45 c8          	mov    rax,QWORD PTR [rbp-0x38]
    4440:	ba 00 00 00 00       	mov    edx,0x0
    4445:	48 f7 75 d0          	div    QWORD PTR [rbp-0x30]
    4449:	48 89 45 f0          	mov    QWORD PTR [rbp-0x10],rax
    444d:	48 8b 45 88          	mov    rax,QWORD PTR [rbp-0x78]
    4451:	48 8b 4d f0          	mov    rcx,QWORD PTR [rbp-0x10]
    4455:	48 8b 55 b0          	mov    rdx,QWORD PTR [rbp-0x50]
    4459:	48 8b 75 b8          	mov    rsi,QWORD PTR [rbp-0x48]
    445d:	48 89 c7             	mov    rdi,rax
    4460:	e8 3f fc ff ff       	call   40a4 <do_relocs>
    4465:	85 c0                	test   eax,eax
    4467:	74 07                	je     4470 <relocate_enclave+0x1a7>
    4469:	b8 ff ff ff ff       	mov    eax,0xffffffff
    446e:	eb 6b                	jmp    44db <relocate_enclave+0x212>
    4470:	48 83 7d c0 00       	cmp    QWORD PTR [rbp-0x40],0x0
    4475:	74 42                	je     44b9 <relocate_enclave+0x1f0>
    4477:	48 83 7d d0 00       	cmp    QWORD PTR [rbp-0x30],0x0
    447c:	75 07                	jne    4485 <relocate_enclave+0x1bc>
    447e:	b8 ff ff ff ff       	mov    eax,0xffffffff
    4483:	eb 56                	jmp    44db <relocate_enclave+0x212>
    4485:	48 8b 45 d8          	mov    rax,QWORD PTR [rbp-0x28]
    4489:	ba 00 00 00 00       	mov    edx,0x0
    448e:	48 f7 75 d0          	div    QWORD PTR [rbp-0x30]
    4492:	48 89 45 f8          	mov    QWORD PTR [rbp-0x8],rax
    4496:	48 8b 45 88          	mov    rax,QWORD PTR [rbp-0x78]
    449a:	48 8b 4d f8          	mov    rcx,QWORD PTR [rbp-0x8]
    449e:	48 8b 55 b0          	mov    rdx,QWORD PTR [rbp-0x50]
    44a2:	48 8b 75 c0          	mov    rsi,QWORD PTR [rbp-0x40]
    44a6:	48 89 c7             	mov    rdi,rax
    44a9:	e8 f6 fb ff ff       	call   40a4 <do_relocs>
    44ae:	85 c0                	test   eax,eax
    44b0:	74 07                	je     44b9 <relocate_enclave+0x1f0>
    44b2:	b8 ff ff ff ff       	mov    eax,0xffffffff
    44b7:	eb 22                	jmp    44db <relocate_enclave+0x212>
    44b9:	83 45 94 01          	add    DWORD PTR [rbp-0x6c],0x1
    44bd:	48 83 45 98 38       	add    QWORD PTR [rbp-0x68],0x38
    44c2:	48 8b 45 e0          	mov    rax,QWORD PTR [rbp-0x20]
    44c6:	0f b7 40 38          	movzx  eax,WORD PTR [rax+0x38]
    44ca:	0f b7 c0             	movzx  eax,ax
    44cd:	39 45 94             	cmp    DWORD PTR [rbp-0x6c],eax
    44d0:	0f 82 33 fe ff ff    	jb     4309 <relocate_enclave+0x40>
    44d6:	b8 00 00 00 00       	mov    eax,0x0
    44db:	c9                   	leave  
    44dc:	c3                   	ret    

00000000000044dd <elf_tls_info>:
    44dd:	55                   	push   rbp
    44de:	48 89 e5             	mov    rbp,rsp
    44e1:	48 83 ec 38          	sub    rsp,0x38
    44e5:	48 89 7d d8          	mov    QWORD PTR [rbp-0x28],rdi
    44e9:	48 89 75 d0          	mov    QWORD PTR [rbp-0x30],rsi
    44ed:	48 89 55 c8          	mov    QWORD PTR [rbp-0x38],rdx
    44f1:	c7 45 ec 00 00 00 00 	mov    DWORD PTR [rbp-0x14],0x0
    44f8:	48 8b 45 d8          	mov    rax,QWORD PTR [rbp-0x28]
    44fc:	48 89 45 f8          	mov    QWORD PTR [rbp-0x8],rax
    4500:	48 8b 45 f8          	mov    rax,QWORD PTR [rbp-0x8]
    4504:	48 89 c7             	mov    rdi,rax
    4507:	e8 ac fa ff ff       	call   3fb8 <get_phdr>
    450c:	48 89 45 f0          	mov    QWORD PTR [rbp-0x10],rax
    4510:	48 83 7d d0 00       	cmp    QWORD PTR [rbp-0x30],0x0
    4515:	74 07                	je     451e <elf_tls_info+0x41>
    4517:	48 83 7d c8 00       	cmp    QWORD PTR [rbp-0x38],0x0
    451c:	75 07                	jne    4525 <elf_tls_info+0x48>
    451e:	b8 ff ff ff ff       	mov    eax,0xffffffff
    4523:	eb 76                	jmp    459b <elf_tls_info+0xbe>
    4525:	48 83 7d f0 00       	cmp    QWORD PTR [rbp-0x10],0x0
    452a:	75 07                	jne    4533 <elf_tls_info+0x56>
    452c:	b8 ff ff ff ff       	mov    eax,0xffffffff
    4531:	eb 68                	jmp    459b <elf_tls_info+0xbe>
    4533:	48 8b 45 d0          	mov    rax,QWORD PTR [rbp-0x30]
    4537:	48 c7 00 00 00 00 00 	mov    QWORD PTR [rax],0x0
    453e:	48 8b 45 c8          	mov    rax,QWORD PTR [rbp-0x38]
    4542:	48 c7 00 00 00 00 00 	mov    QWORD PTR [rax],0x0
    4549:	eb 3b                	jmp    4586 <elf_tls_info+0xa9>
    454b:	48 8b 45 f0          	mov    rax,QWORD PTR [rbp-0x10]
    454f:	8b 00                	mov    eax,DWORD PTR [rax]
    4551:	83 f8 07             	cmp    eax,0x7
    4554:	75 27                	jne    457d <elf_tls_info+0xa0>
    4556:	48 8b 45 f0          	mov    rax,QWORD PTR [rbp-0x10]
    455a:	48 8b 50 10          	mov    rdx,QWORD PTR [rax+0x10]
    455e:	48 8b 45 d8          	mov    rax,QWORD PTR [rbp-0x28]
    4562:	48 01 c2             	add    rdx,rax
    4565:	48 8b 45 d0          	mov    rax,QWORD PTR [rbp-0x30]
    4569:	48 89 10             	mov    QWORD PTR [rax],rdx
    456c:	48 8b 45 f0          	mov    rax,QWORD PTR [rbp-0x10]
    4570:	48 8b 50 20          	mov    rdx,QWORD PTR [rax+0x20]
    4574:	48 8b 45 c8          	mov    rax,QWORD PTR [rbp-0x38]
    4578:	48 89 10             	mov    QWORD PTR [rax],rdx
    457b:	eb 19                	jmp    4596 <elf_tls_info+0xb9>
    457d:	83 45 ec 01          	add    DWORD PTR [rbp-0x14],0x1
    4581:	48 83 45 f0 38       	add    QWORD PTR [rbp-0x10],0x38
    4586:	48 8b 45 f8          	mov    rax,QWORD PTR [rbp-0x8]
    458a:	0f b7 40 38          	movzx  eax,WORD PTR [rax+0x38]
    458e:	0f b7 c0             	movzx  eax,ax
    4591:	39 45 ec             	cmp    DWORD PTR [rbp-0x14],eax
    4594:	72 b5                	jb     454b <elf_tls_info+0x6e>
    4596:	b8 00 00 00 00       	mov    eax,0x0
    459b:	c9                   	leave  
    459c:	c3                   	ret    

000000000000459d <elf_tls_aligned_virtual_size>:
    459d:	55                   	push   rbp
    459e:	48 89 e5             	mov    rbp,rsp
    45a1:	48 83 ec 40          	sub    rsp,0x40
    45a5:	48 89 7d c8          	mov    QWORD PTR [rbp-0x38],rdi
    45a9:	48 89 75 c0          	mov    QWORD PTR [rbp-0x40],rsi
    45ad:	c7 45 dc 00 00 00 00 	mov    DWORD PTR [rbp-0x24],0x0
    45b4:	48 8b 45 c8          	mov    rax,QWORD PTR [rbp-0x38]
    45b8:	48 89 45 e8          	mov    QWORD PTR [rbp-0x18],rax
    45bc:	48 8b 45 e8          	mov    rax,QWORD PTR [rbp-0x18]
    45c0:	48 89 c7             	mov    rdi,rax
    45c3:	e8 f0 f9 ff ff       	call   3fb8 <get_phdr>
    45c8:	48 89 45 e0          	mov    QWORD PTR [rbp-0x20],rax
    45cc:	48 c7 45 f0 00 00 00 	mov    QWORD PTR [rbp-0x10],0x0
    45d3:	00 
    45d4:	48 c7 45 f8 00 00 00 	mov    QWORD PTR [rbp-0x8],0x0
    45db:	00 
    45dc:	48 83 7d e0 00       	cmp    QWORD PTR [rbp-0x20],0x0
    45e1:	75 0a                	jne    45ed <elf_tls_aligned_virtual_size+0x50>
    45e3:	b8 ff ff ff ff       	mov    eax,0xffffffff
    45e8:	e9 9c 00 00 00       	jmp    4689 <elf_tls_aligned_virtual_size+0xec>
    45ed:	48 83 7d c0 00       	cmp    QWORD PTR [rbp-0x40],0x0
    45f2:	75 0a                	jne    45fe <elf_tls_aligned_virtual_size+0x61>
    45f4:	b8 ff ff ff ff       	mov    eax,0xffffffff
    45f9:	e9 8b 00 00 00       	jmp    4689 <elf_tls_aligned_virtual_size+0xec>
    45fe:	48 8b 45 c0          	mov    rax,QWORD PTR [rbp-0x40]
    4602:	48 c7 00 00 00 00 00 	mov    QWORD PTR [rax],0x0
    4609:	eb 69                	jmp    4674 <elf_tls_aligned_virtual_size+0xd7>
    460b:	48 8b 45 e0          	mov    rax,QWORD PTR [rbp-0x20]
    460f:	8b 00                	mov    eax,DWORD PTR [rax]
    4611:	83 f8 07             	cmp    eax,0x7
    4614:	75 55                	jne    466b <elf_tls_aligned_virtual_size+0xce>
    4616:	48 8b 45 e0          	mov    rax,QWORD PTR [rbp-0x20]
    461a:	48 8b 40 28          	mov    rax,QWORD PTR [rax+0x28]
    461e:	48 89 45 f0          	mov    QWORD PTR [rbp-0x10],rax
    4622:	48 8b 45 e0          	mov    rax,QWORD PTR [rbp-0x20]
    4626:	48 8b 40 30          	mov    rax,QWORD PTR [rax+0x30]
    462a:	48 89 45 f8          	mov    QWORD PTR [rbp-0x8],rax
    462e:	48 83 7d f8 00       	cmp    QWORD PTR [rbp-0x8],0x0
    4633:	74 07                	je     463c <elf_tls_aligned_virtual_size+0x9f>
    4635:	48 83 7d f8 01       	cmp    QWORD PTR [rbp-0x8],0x1
    463a:	75 0d                	jne    4649 <elf_tls_aligned_virtual_size+0xac>
    463c:	48 8b 45 c0          	mov    rax,QWORD PTR [rbp-0x40]
    4640:	48 8b 55 f0          	mov    rdx,QWORD PTR [rbp-0x10]
    4644:	48 89 10             	mov    QWORD PTR [rax],rdx
    4647:	eb 3b                	jmp    4684 <elf_tls_aligned_virtual_size+0xe7>
    4649:	48 8b 55 f0          	mov    rdx,QWORD PTR [rbp-0x10]
    464d:	48 8b 45 f8          	mov    rax,QWORD PTR [rbp-0x8]
    4651:	48 01 d0             	add    rax,rdx
    4654:	48 8d 50 ff          	lea    rdx,[rax-0x1]
    4658:	48 8b 45 f8          	mov    rax,QWORD PTR [rbp-0x8]
    465c:	48 f7 d8             	neg    rax
    465f:	48 21 c2             	and    rdx,rax
    4662:	48 8b 45 c0          	mov    rax,QWORD PTR [rbp-0x40]
    4666:	48 89 10             	mov    QWORD PTR [rax],rdx
    4669:	eb 19                	jmp    4684 <elf_tls_aligned_virtual_size+0xe7>
    466b:	83 45 dc 01          	add    DWORD PTR [rbp-0x24],0x1
    466f:	48 83 45 e0 38       	add    QWORD PTR [rbp-0x20],0x38
    4674:	48 8b 45 e8          	mov    rax,QWORD PTR [rbp-0x18]
    4678:	0f b7 40 38          	movzx  eax,WORD PTR [rax+0x38]
    467c:	0f b7 c0             	movzx  eax,ax
    467f:	39 45 dc             	cmp    DWORD PTR [rbp-0x24],eax
    4682:	72 87                	jb     460b <elf_tls_aligned_virtual_size+0x6e>
    4684:	b8 00 00 00 00       	mov    eax,0x0
    4689:	c9                   	leave  
    468a:	c3                   	ret    

000000000000468b <elf_get_init_array>:
    468b:	55                   	push   rbp
    468c:	48 89 e5             	mov    rbp,rsp
    468f:	48 83 ec 48          	sub    rsp,0x48
    4693:	48 89 7d c8          	mov    QWORD PTR [rbp-0x38],rdi
    4697:	48 89 75 c0          	mov    QWORD PTR [rbp-0x40],rsi
    469b:	48 89 55 b8          	mov    QWORD PTR [rbp-0x48],rdx
    469f:	c7 45 d4 00 00 00 00 	mov    DWORD PTR [rbp-0x2c],0x0
    46a6:	48 8b 45 c8          	mov    rax,QWORD PTR [rbp-0x38]
    46aa:	48 89 45 f0          	mov    QWORD PTR [rbp-0x10],rax
    46ae:	48 8b 45 f0          	mov    rax,QWORD PTR [rbp-0x10]
    46b2:	48 89 c7             	mov    rdi,rax
    46b5:	e8 fe f8 ff ff       	call   3fb8 <get_phdr>
    46ba:	48 89 45 d8          	mov    QWORD PTR [rbp-0x28],rax
    46be:	48 83 7d c0 00       	cmp    QWORD PTR [rbp-0x40],0x0
    46c3:	74 07                	je     46cc <elf_get_init_array+0x41>
    46c5:	48 83 7d b8 00       	cmp    QWORD PTR [rbp-0x48],0x0
    46ca:	75 0a                	jne    46d6 <elf_get_init_array+0x4b>
    46cc:	b8 ff ff ff ff       	mov    eax,0xffffffff
    46d1:	e9 d0 00 00 00       	jmp    47a6 <elf_get_init_array+0x11b>
    46d6:	48 83 7d d8 00       	cmp    QWORD PTR [rbp-0x28],0x0
    46db:	75 0a                	jne    46e7 <elf_get_init_array+0x5c>
    46dd:	b8 ff ff ff ff       	mov    eax,0xffffffff
    46e2:	e9 bf 00 00 00       	jmp    47a6 <elf_get_init_array+0x11b>
    46e7:	48 8b 45 c0          	mov    rax,QWORD PTR [rbp-0x40]
    46eb:	48 c7 00 00 00 00 00 	mov    QWORD PTR [rax],0x0
    46f2:	48 8b 45 b8          	mov    rax,QWORD PTR [rbp-0x48]
    46f6:	48 c7 00 00 00 00 00 	mov    QWORD PTR [rax],0x0
    46fd:	e9 8b 00 00 00       	jmp    478d <elf_get_init_array+0x102>
    4702:	48 8b 45 d8          	mov    rax,QWORD PTR [rbp-0x28]
    4706:	8b 00                	mov    eax,DWORD PTR [rax]
    4708:	83 f8 02             	cmp    eax,0x2
    470b:	75 77                	jne    4784 <elf_get_init_array+0xf9>
    470d:	48 8b 45 d8          	mov    rax,QWORD PTR [rbp-0x28]
    4711:	48 8b 40 20          	mov    rax,QWORD PTR [rax+0x20]
    4715:	48 c1 e8 04          	shr    rax,0x4
    4719:	48 89 45 f8          	mov    QWORD PTR [rbp-0x8],rax
    471d:	48 8b 45 d8          	mov    rax,QWORD PTR [rbp-0x28]
    4721:	48 8b 50 18          	mov    rdx,QWORD PTR [rax+0x18]
    4725:	48 8b 45 f0          	mov    rax,QWORD PTR [rbp-0x10]
    4729:	48 01 d0             	add    rax,rdx
    472c:	48 89 45 e8          	mov    QWORD PTR [rbp-0x18],rax
    4730:	48 c7 45 e0 00 00 00 	mov    QWORD PTR [rbp-0x20],0x0
    4737:	00 
    4738:	eb 40                	jmp    477a <elf_get_init_array+0xef>
    473a:	48 8b 45 e8          	mov    rax,QWORD PTR [rbp-0x18]
    473e:	48 8b 00             	mov    rax,QWORD PTR [rax]
    4741:	48 83 f8 19          	cmp    rax,0x19
    4745:	74 08                	je     474f <elf_get_init_array+0xc4>
    4747:	48 83 f8 1b          	cmp    rax,0x1b
    474b:	74 13                	je     4760 <elf_get_init_array+0xd5>
    474d:	eb 21                	jmp    4770 <elf_get_init_array+0xe5>
    474f:	48 8b 45 e8          	mov    rax,QWORD PTR [rbp-0x18]
    4753:	48 8b 50 08          	mov    rdx,QWORD PTR [rax+0x8]
    4757:	48 8b 45 c0          	mov    rax,QWORD PTR [rbp-0x40]
    475b:	48 89 10             	mov    QWORD PTR [rax],rdx
    475e:	eb 10                	jmp    4770 <elf_get_init_array+0xe5>
    4760:	48 8b 45 e8          	mov    rax,QWORD PTR [rbp-0x18]
    4764:	48 8b 50 08          	mov    rdx,QWORD PTR [rax+0x8]
    4768:	48 8b 45 b8          	mov    rax,QWORD PTR [rbp-0x48]
    476c:	48 89 10             	mov    QWORD PTR [rax],rdx
    476f:	90                   	nop
    4770:	48 83 45 e0 01       	add    QWORD PTR [rbp-0x20],0x1
    4775:	48 83 45 e8 10       	add    QWORD PTR [rbp-0x18],0x10
    477a:	48 8b 45 e0          	mov    rax,QWORD PTR [rbp-0x20]
    477e:	48 3b 45 f8          	cmp    rax,QWORD PTR [rbp-0x8]
    4782:	72 b6                	jb     473a <elf_get_init_array+0xaf>
    4784:	83 45 d4 01          	add    DWORD PTR [rbp-0x2c],0x1
